
../../../../build/stm32f4xx/main.elf:     file format elf32-littlearm


Disassembly of section .text:

08000000 <_stext>:
 8000000:	20017fff 	.word	0x20017fff
 8000004:	080001d5 	.word	0x080001d5
 8000008:	08000a6d 	.word	0x08000a6d
 800000c:	08000a7d 	.word	0x08000a7d
 8000010:	08000a95 	.word	0x08000a95
 8000014:	08000a9b 	.word	0x08000a9b
 8000018:	08000aa1 	.word	0x08000aa1
	...
 800002c:	08000aa7 	.word	0x08000aa7
 8000030:	08000ab5 	.word	0x08000ab5
 8000034:	00000000 	.word	0x00000000
 8000038:	08000225 	.word	0x08000225
 800003c:	08000ac3 	.word	0x08000ac3
 8000040:	08000225 	.word	0x08000225
 8000044:	08000225 	.word	0x08000225
 8000048:	08000225 	.word	0x08000225
 800004c:	08000225 	.word	0x08000225
 8000050:	08000225 	.word	0x08000225
 8000054:	08000225 	.word	0x08000225
 8000058:	08000225 	.word	0x08000225
 800005c:	08000225 	.word	0x08000225
 8000060:	08000225 	.word	0x08000225
 8000064:	08000225 	.word	0x08000225
 8000068:	08000225 	.word	0x08000225
 800006c:	08000225 	.word	0x08000225
 8000070:	08000225 	.word	0x08000225
 8000074:	08000225 	.word	0x08000225
 8000078:	08000225 	.word	0x08000225
 800007c:	08000225 	.word	0x08000225
 8000080:	08000225 	.word	0x08000225
 8000084:	08000225 	.word	0x08000225
 8000088:	08000225 	.word	0x08000225
	...
 800009c:	08000225 	.word	0x08000225
 80000a0:	08000225 	.word	0x08000225
 80000a4:	08000225 	.word	0x08000225
 80000a8:	08000225 	.word	0x08000225
 80000ac:	08000225 	.word	0x08000225
 80000b0:	08000225 	.word	0x08000225
 80000b4:	08000225 	.word	0x08000225
 80000b8:	08000225 	.word	0x08000225
 80000bc:	08000225 	.word	0x08000225
 80000c0:	08000225 	.word	0x08000225
 80000c4:	08000225 	.word	0x08000225
 80000c8:	08000225 	.word	0x08000225
 80000cc:	08000225 	.word	0x08000225
 80000d0:	08000225 	.word	0x08000225
 80000d4:	08000225 	.word	0x08000225
 80000d8:	08000225 	.word	0x08000225
 80000dc:	00000000 	.word	0x00000000
 80000e0:	08000225 	.word	0x08000225
 80000e4:	08000225 	.word	0x08000225
 80000e8:	08000225 	.word	0x08000225
	...
 80000fc:	08000225 	.word	0x08000225
 8000100:	00000000 	.word	0x00000000
 8000104:	08000225 	.word	0x08000225
 8000108:	08000225 	.word	0x08000225
 800010c:	08000225 	.word	0x08000225
	...
 8000120:	08000225 	.word	0x08000225
 8000124:	08000225 	.word	0x08000225
 8000128:	08000225 	.word	0x08000225
 800012c:	08000225 	.word	0x08000225
 8000130:	08000225 	.word	0x08000225
	...
 800014c:	08000225 	.word	0x08000225
 8000150:	08000225 	.word	0x08000225
 8000154:	08000225 	.word	0x08000225
 8000158:	08000225 	.word	0x08000225
 800015c:	08000225 	.word	0x08000225
 8000160:	08000225 	.word	0x08000225
 8000164:	08000225 	.word	0x08000225
	...
 8000184:	08000225 	.word	0x08000225
	...
 8000190:	08000225 	.word	0x08000225

08000194 <__do_global_dtors_aux>:
 8000194:	b510      	push	{r4, lr}
 8000196:	4c05      	ldr	r4, [pc, #20]	; (80001ac <__do_global_dtors_aux+0x18>)
 8000198:	7823      	ldrb	r3, [r4, #0]
 800019a:	b933      	cbnz	r3, 80001aa <__do_global_dtors_aux+0x16>
 800019c:	4b04      	ldr	r3, [pc, #16]	; (80001b0 <__do_global_dtors_aux+0x1c>)
 800019e:	b113      	cbz	r3, 80001a6 <__do_global_dtors_aux+0x12>
 80001a0:	4804      	ldr	r0, [pc, #16]	; (80001b4 <__do_global_dtors_aux+0x20>)
 80001a2:	f3af 8000 	nop.w
 80001a6:	2301      	movs	r3, #1
 80001a8:	7023      	strb	r3, [r4, #0]
 80001aa:	bd10      	pop	{r4, pc}
 80001ac:	200009cc 	.word	0x200009cc
 80001b0:	00000000 	.word	0x00000000
 80001b4:	08007eb0 	.word	0x08007eb0

080001b8 <frame_dummy>:
 80001b8:	b508      	push	{r3, lr}
 80001ba:	4b03      	ldr	r3, [pc, #12]	; (80001c8 <frame_dummy+0x10>)
 80001bc:	b11b      	cbz	r3, 80001c6 <frame_dummy+0xe>
 80001be:	4903      	ldr	r1, [pc, #12]	; (80001cc <frame_dummy+0x14>)
 80001c0:	4803      	ldr	r0, [pc, #12]	; (80001d0 <frame_dummy+0x18>)
 80001c2:	f3af 8000 	nop.w
 80001c6:	bd08      	pop	{r3, pc}
 80001c8:	00000000 	.word	0x00000000
 80001cc:	200009d0 	.word	0x200009d0
 80001d0:	08007eb0 	.word	0x08007eb0

080001d4 <Reset_Handler>:

    .section  .text.Reset_Handler
  .weak  Reset_Handler
  .type  Reset_Handler, %function
Reset_Handler:  
  ldr   sp, =_estack    		 /* set stack pointer */
 80001d4:	f8df d034 	ldr.w	sp, [pc, #52]	; 800020c <LoopFillZerobss+0x14>

/* Copy the data segment initializers from flash to SRAM */  
  movs  r1, #0
 80001d8:	2100      	movs	r1, #0
  b  LoopCopyDataInit
 80001da:	e003      	b.n	80001e4 <LoopCopyDataInit>

080001dc <CopyDataInit>:

CopyDataInit:
  ldr  r3, =_sidata
 80001dc:	4b0c      	ldr	r3, [pc, #48]	; (8000210 <LoopFillZerobss+0x18>)
  ldr  r3, [r3, r1]
 80001de:	585b      	ldr	r3, [r3, r1]
  str  r3, [r0, r1]
 80001e0:	5043      	str	r3, [r0, r1]
  adds  r1, r1, #4
 80001e2:	3104      	adds	r1, #4

080001e4 <LoopCopyDataInit>:
    
LoopCopyDataInit:
  ldr  r0, =_sdata
 80001e4:	480b      	ldr	r0, [pc, #44]	; (8000214 <LoopFillZerobss+0x1c>)
  ldr  r3, =_edata
 80001e6:	4b0c      	ldr	r3, [pc, #48]	; (8000218 <LoopFillZerobss+0x20>)
  adds  r2, r0, r1
 80001e8:	1842      	adds	r2, r0, r1
  cmp  r2, r3
 80001ea:	429a      	cmp	r2, r3
  bcc  CopyDataInit
 80001ec:	d3f6      	bcc.n	80001dc <CopyDataInit>
  ldr  r2, =_sbss
 80001ee:	4a0b      	ldr	r2, [pc, #44]	; (800021c <LoopFillZerobss+0x24>)
  b  LoopFillZerobss
 80001f0:	e002      	b.n	80001f8 <LoopFillZerobss>

080001f2 <FillZerobss>:
/* Zero fill the bss segment. */  
FillZerobss:
  movs  r3, #0
 80001f2:	2300      	movs	r3, #0
  str  r3, [r2], #4
 80001f4:	f842 3b04 	str.w	r3, [r2], #4

080001f8 <LoopFillZerobss>:
    
LoopFillZerobss:
  ldr  r3, = _ebss
 80001f8:	4b09      	ldr	r3, [pc, #36]	; (8000220 <LoopFillZerobss+0x28>)
  cmp  r2, r3
 80001fa:	429a      	cmp	r2, r3
  bcc  FillZerobss
 80001fc:	d3f9      	bcc.n	80001f2 <FillZerobss>

/* Call the clock system intitialization function.*/
  bl  SystemInit   
 80001fe:	f000 fcff 	bl	8000c00 <SystemInit>
/* Call static constructors */
    bl __libc_init_array
 8000202:	f002 fb4b 	bl	800289c <__libc_init_array>
/* Call the application's entry point.*/
  bl  main
 8000206:	f000 f80f 	bl	8000228 <main>
  bx  lr    
 800020a:	4770      	bx	lr
  ldr   sp, =_estack    		 /* set stack pointer */
 800020c:	20017fff 	.word	0x20017fff
  ldr  r3, =_sidata
 8000210:	08007ebc 	.word	0x08007ebc
  ldr  r0, =_sdata
 8000214:	20000000 	.word	0x20000000
  ldr  r3, =_edata
 8000218:	200009cc 	.word	0x200009cc
  ldr  r2, =_sbss
 800021c:	200009cc 	.word	0x200009cc
  ldr  r3, = _ebss
 8000220:	20000b9c 	.word	0x20000b9c

08000224 <ADC_IRQHandler>:
 * @retval None       
*/
    .section  .text.Default_Handler,"ax",%progbits
Default_Handler:
Infinite_Loop:
  b  Infinite_Loop
 8000224:	e7fe      	b.n	8000224 <ADC_IRQHandler>
	...

08000228 <main>:
  * @brief  Main program
  * @param  None
  * @retval None
  */
int main(void)
{
 8000228:	b580      	push	{r7, lr}
 800022a:	af00      	add	r7, sp, #0
       - Configure the Flash prefetch, instruction and Data caches
       - Configure the Systick to generate an interrupt each 1 msec
       - Set NVIC Group Priority to 4
       - Global MSP (MCU Support Package) initialization
     */
  HAL_Init();
 800022c:	f000 fd1e 	bl	8000c6c <HAL_Init>
  __asm("svc 0");
 8000230:	df00      	svc	0
  /* Configure the system clock to 84 MHz */
  SystemClock_Config();
 8000232:	f000 f817 	bl	8000264 <SystemClock_Config>

  serial_init();
 8000236:	f000 f877 	bl	8000328 <serial_init>
  /* Output a message on Hyperterminal using printf function */
  printf("\n\r -- UART Printf Example: retarget the C library printf function to the UART\n\r");
 800023a:	4809      	ldr	r0, [pc, #36]	; (8000260 <main+0x38>)
 800023c:	f002 fc36 	bl	8002aac <printf>
  
    //   printf("&__shell_command_start=0x%x &__shell_command_end=0x%x\r\n",\
        &__shell_command_start, &__shell_command_end);
    // shell_command_t * scmd = &__shell_command_start;

  BSP_LED_Init(LED2);
 8000240:	2000      	movs	r0, #0
 8000242:	f002 f947 	bl	80024d4 <BSP_LED_Init>
  // fault_test_by_unalign();

  InitStepper();
 8000246:	f000 fb05 	bl	8000854 <InitStepper>
  while (1) {
    BSP_LED_Toggle(LED2);
 800024a:	2000      	movs	r0, #0
 800024c:	f002 f98c 	bl	8002568 <BSP_LED_Toggle>

    HAL_Delay(1);
 8000250:	2001      	movs	r0, #1
 8000252:	f000 fd7d 	bl	8000d50 <HAL_Delay>
    
    step(2);
 8000256:	2002      	movs	r0, #2
 8000258:	f000 fa06 	bl	8000668 <step>
    BSP_LED_Toggle(LED2);
 800025c:	e7f5      	b.n	800024a <main+0x22>
 800025e:	bf00      	nop
 8000260:	08007b78 	.word	0x08007b78

08000264 <SystemClock_Config>:
  *            Flash Latency(WS)              = 2
  * @param  None
  * @retval None
  */
static void SystemClock_Config(void)
{
 8000264:	b580      	push	{r7, lr}
 8000266:	b094      	sub	sp, #80	; 0x50
 8000268:	af00      	add	r7, sp, #0
  RCC_ClkInitTypeDef RCC_ClkInitStruct;
  RCC_OscInitTypeDef RCC_OscInitStruct;

  /* Enable Power Control clock */
  __HAL_RCC_PWR_CLK_ENABLE();
 800026a:	2300      	movs	r3, #0
 800026c:	60bb      	str	r3, [r7, #8]
 800026e:	4b29      	ldr	r3, [pc, #164]	; (8000314 <SystemClock_Config+0xb0>)
 8000270:	6c1b      	ldr	r3, [r3, #64]	; 0x40
 8000272:	4a28      	ldr	r2, [pc, #160]	; (8000314 <SystemClock_Config+0xb0>)
 8000274:	f043 5380 	orr.w	r3, r3, #268435456	; 0x10000000
 8000278:	6413      	str	r3, [r2, #64]	; 0x40
 800027a:	4b26      	ldr	r3, [pc, #152]	; (8000314 <SystemClock_Config+0xb0>)
 800027c:	6c1b      	ldr	r3, [r3, #64]	; 0x40
 800027e:	f003 5380 	and.w	r3, r3, #268435456	; 0x10000000
 8000282:	60bb      	str	r3, [r7, #8]
 8000284:	68bb      	ldr	r3, [r7, #8]
  
  /* The voltage scaling allows optimizing the power consumption when the device is 
     clocked below the maximum system frequency, to update the voltage scaling value 
     regarding system frequency refer to product datasheet.  */
  __HAL_PWR_VOLTAGESCALING_CONFIG(PWR_REGULATOR_VOLTAGE_SCALE2);
 8000286:	2300      	movs	r3, #0
 8000288:	607b      	str	r3, [r7, #4]
 800028a:	4b23      	ldr	r3, [pc, #140]	; (8000318 <SystemClock_Config+0xb4>)
 800028c:	681b      	ldr	r3, [r3, #0]
 800028e:	f423 4340 	bic.w	r3, r3, #49152	; 0xc000
 8000292:	4a21      	ldr	r2, [pc, #132]	; (8000318 <SystemClock_Config+0xb4>)
 8000294:	f443 4300 	orr.w	r3, r3, #32768	; 0x8000
 8000298:	6013      	str	r3, [r2, #0]
 800029a:	4b1f      	ldr	r3, [pc, #124]	; (8000318 <SystemClock_Config+0xb4>)
 800029c:	681b      	ldr	r3, [r3, #0]
 800029e:	f403 4340 	and.w	r3, r3, #49152	; 0xc000
 80002a2:	607b      	str	r3, [r7, #4]
 80002a4:	687b      	ldr	r3, [r7, #4]
  
  /* Enable HSI Oscillator and activate PLL with HSI as source */
  RCC_OscInitStruct.OscillatorType = RCC_OSCILLATORTYPE_HSI;
 80002a6:	2302      	movs	r3, #2
 80002a8:	60fb      	str	r3, [r7, #12]
  RCC_OscInitStruct.HSIState = RCC_HSI_ON;
 80002aa:	2301      	movs	r3, #1
 80002ac:	61bb      	str	r3, [r7, #24]
  RCC_OscInitStruct.HSICalibrationValue = 0x10;
 80002ae:	2310      	movs	r3, #16
 80002b0:	61fb      	str	r3, [r7, #28]
  RCC_OscInitStruct.PLL.PLLState = RCC_PLL_ON;
 80002b2:	2302      	movs	r3, #2
 80002b4:	627b      	str	r3, [r7, #36]	; 0x24
  RCC_OscInitStruct.PLL.PLLSource = RCC_PLLSOURCE_HSI;
 80002b6:	2300      	movs	r3, #0
 80002b8:	62bb      	str	r3, [r7, #40]	; 0x28
  RCC_OscInitStruct.PLL.PLLM = 16;
 80002ba:	2310      	movs	r3, #16
 80002bc:	62fb      	str	r3, [r7, #44]	; 0x2c
  RCC_OscInitStruct.PLL.PLLN = 336;
 80002be:	f44f 73a8 	mov.w	r3, #336	; 0x150
 80002c2:	633b      	str	r3, [r7, #48]	; 0x30
  RCC_OscInitStruct.PLL.PLLP = RCC_PLLP_DIV4;
 80002c4:	2304      	movs	r3, #4
 80002c6:	637b      	str	r3, [r7, #52]	; 0x34
  RCC_OscInitStruct.PLL.PLLQ = 7;
 80002c8:	2307      	movs	r3, #7
 80002ca:	63bb      	str	r3, [r7, #56]	; 0x38
  if(HAL_RCC_OscConfig(&RCC_OscInitStruct) != HAL_OK)
 80002cc:	f107 030c 	add.w	r3, r7, #12
 80002d0:	4618      	mov	r0, r3
 80002d2:	f000 fe7d 	bl	8000fd0 <HAL_RCC_OscConfig>
 80002d6:	4603      	mov	r3, r0
 80002d8:	2b00      	cmp	r3, #0
 80002da:	d001      	beq.n	80002e0 <SystemClock_Config+0x7c>
  {
    Error_Handler();
 80002dc:	f000 f81e 	bl	800031c <Error_Handler>
  }
 
  /* Select PLL as system clock source and configure the HCLK, PCLK1 and PCLK2 
     clocks dividers */
  RCC_ClkInitStruct.ClockType = (RCC_CLOCKTYPE_SYSCLK | RCC_CLOCKTYPE_HCLK | RCC_CLOCKTYPE_PCLK1 | RCC_CLOCKTYPE_PCLK2);
 80002e0:	230f      	movs	r3, #15
 80002e2:	63fb      	str	r3, [r7, #60]	; 0x3c
  RCC_ClkInitStruct.SYSCLKSource = RCC_SYSCLKSOURCE_PLLCLK;
 80002e4:	2302      	movs	r3, #2
 80002e6:	643b      	str	r3, [r7, #64]	; 0x40
  RCC_ClkInitStruct.AHBCLKDivider = RCC_SYSCLK_DIV1;
 80002e8:	2300      	movs	r3, #0
 80002ea:	647b      	str	r3, [r7, #68]	; 0x44
  RCC_ClkInitStruct.APB1CLKDivider = RCC_HCLK_DIV2;  
 80002ec:	f44f 5380 	mov.w	r3, #4096	; 0x1000
 80002f0:	64bb      	str	r3, [r7, #72]	; 0x48
  RCC_ClkInitStruct.APB2CLKDivider = RCC_HCLK_DIV1;  
 80002f2:	2300      	movs	r3, #0
 80002f4:	64fb      	str	r3, [r7, #76]	; 0x4c
  if(HAL_RCC_ClockConfig(&RCC_ClkInitStruct, FLASH_LATENCY_2) != HAL_OK)
 80002f6:	f107 033c 	add.w	r3, r7, #60	; 0x3c
 80002fa:	2102      	movs	r1, #2
 80002fc:	4618      	mov	r0, r3
 80002fe:	f001 f8df 	bl	80014c0 <HAL_RCC_ClockConfig>
 8000302:	4603      	mov	r3, r0
 8000304:	2b00      	cmp	r3, #0
 8000306:	d001      	beq.n	800030c <SystemClock_Config+0xa8>
  {
    Error_Handler();
 8000308:	f000 f808 	bl	800031c <Error_Handler>
  }
}
 800030c:	bf00      	nop
 800030e:	3750      	adds	r7, #80	; 0x50
 8000310:	46bd      	mov	sp, r7
 8000312:	bd80      	pop	{r7, pc}
 8000314:	40023800 	.word	0x40023800
 8000318:	40007000 	.word	0x40007000

0800031c <Error_Handler>:
  * @brief  This function is executed in case of error occurrence.
  * @param  None
  * @retval None
  */
void Error_Handler(void)
{
 800031c:	b580      	push	{r7, lr}
 800031e:	af00      	add	r7, sp, #0
  /* Turn LED2 on */
  BSP_LED_On(LED2);
 8000320:	2000      	movs	r0, #0
 8000322:	f002 f90d 	bl	8002540 <BSP_LED_On>
  while(1)
 8000326:	e7fe      	b.n	8000326 <Error_Handler+0xa>

08000328 <serial_init>:
#else
  #define PUTCHAR_PROTOTYPE int fputc(int ch, FILE *f)
#endif /* __GNUC__ */

void serial_init(void) 
{
 8000328:	b580      	push	{r7, lr}
 800032a:	af00      	add	r7, sp, #0
      - Word Length = 8 Bits
      - Stop Bit = One Stop bit
      - Parity = ODD parity
      - BaudRate = 9600 baud
      - Hardware flow control disabled (RTS and CTS signals) */
  UartHandle.Instance          = USARTx;
 800032c:	4b11      	ldr	r3, [pc, #68]	; (8000374 <serial_init+0x4c>)
 800032e:	4a12      	ldr	r2, [pc, #72]	; (8000378 <serial_init+0x50>)
 8000330:	601a      	str	r2, [r3, #0]
  
  UartHandle.Init.BaudRate     = 921600;
 8000332:	4b10      	ldr	r3, [pc, #64]	; (8000374 <serial_init+0x4c>)
 8000334:	f44f 2261 	mov.w	r2, #921600	; 0xe1000
 8000338:	605a      	str	r2, [r3, #4]
  UartHandle.Init.WordLength   = UART_WORDLENGTH_8B;
 800033a:	4b0e      	ldr	r3, [pc, #56]	; (8000374 <serial_init+0x4c>)
 800033c:	2200      	movs	r2, #0
 800033e:	609a      	str	r2, [r3, #8]
  UartHandle.Init.StopBits     = UART_STOPBITS_1;
 8000340:	4b0c      	ldr	r3, [pc, #48]	; (8000374 <serial_init+0x4c>)
 8000342:	2200      	movs	r2, #0
 8000344:	60da      	str	r2, [r3, #12]
  UartHandle.Init.Parity       = UART_PARITY_NONE;
 8000346:	4b0b      	ldr	r3, [pc, #44]	; (8000374 <serial_init+0x4c>)
 8000348:	2200      	movs	r2, #0
 800034a:	611a      	str	r2, [r3, #16]
  UartHandle.Init.HwFlowCtl    = UART_HWCONTROL_NONE;
 800034c:	4b09      	ldr	r3, [pc, #36]	; (8000374 <serial_init+0x4c>)
 800034e:	2200      	movs	r2, #0
 8000350:	619a      	str	r2, [r3, #24]
  UartHandle.Init.Mode         = UART_MODE_TX_RX;
 8000352:	4b08      	ldr	r3, [pc, #32]	; (8000374 <serial_init+0x4c>)
 8000354:	220c      	movs	r2, #12
 8000356:	615a      	str	r2, [r3, #20]
  UartHandle.Init.OverSampling = UART_OVERSAMPLING_16;
 8000358:	4b06      	ldr	r3, [pc, #24]	; (8000374 <serial_init+0x4c>)
 800035a:	2200      	movs	r2, #0
 800035c:	61da      	str	r2, [r3, #28]
    
  if(HAL_UART_Init(&UartHandle) != HAL_OK) {
 800035e:	4805      	ldr	r0, [pc, #20]	; (8000374 <serial_init+0x4c>)
 8000360:	f001 fdb3 	bl	8001eca <HAL_UART_Init>
 8000364:	4603      	mov	r3, r0
 8000366:	2b00      	cmp	r3, #0
 8000368:	d001      	beq.n	800036e <serial_init+0x46>
    /* Initialization Error */
    Error_Handler(); 
 800036a:	f7ff ffd7 	bl	800031c <Error_Handler>
  }
  
}
 800036e:	bf00      	nop
 8000370:	bd80      	pop	{r7, pc}
 8000372:	bf00      	nop
 8000374:	20000b2c 	.word	0x20000b2c
 8000378:	40004400 	.word	0x40004400

0800037c <__io_putchar>:
  * @brief  Retargets the C library printf function to the USART.
  * @param  None
  * @retval None
  */
PUTCHAR_PROTOTYPE
{
 800037c:	b580      	push	{r7, lr}
 800037e:	b082      	sub	sp, #8
 8000380:	af00      	add	r7, sp, #0
 8000382:	6078      	str	r0, [r7, #4]
  /* Place your implementation of fputc here */
  /* e.g. write a character to the EVAL_COM1 and Loop until the end of transmission */
  HAL_UART_Transmit(&UartHandle, (uint8_t *)&ch, 1, 0xFFFF); 
 8000384:	1d39      	adds	r1, r7, #4
 8000386:	f64f 73ff 	movw	r3, #65535	; 0xffff
 800038a:	2201      	movs	r2, #1
 800038c:	4803      	ldr	r0, [pc, #12]	; (800039c <__io_putchar+0x20>)
 800038e:	f001 fde9 	bl	8001f64 <HAL_UART_Transmit>

  return ch;
 8000392:	687b      	ldr	r3, [r7, #4]
 8000394:	4618      	mov	r0, r3
 8000396:	3708      	adds	r7, #8
 8000398:	46bd      	mov	sp, r7
 800039a:	bd80      	pop	{r7, pc}
 800039c:	20000b2c 	.word	0x20000b2c

080003a0 <setSpeed>:

/*
 * Sets the speed in revs per minute
 */
void setSpeed(long whatSpeed)
{
 80003a0:	b480      	push	{r7}
 80003a2:	b083      	sub	sp, #12
 80003a4:	af00      	add	r7, sp, #0
 80003a6:	6078      	str	r0, [r7, #4]
  this.step_delay = 60L * 1000L * 1000L / this.number_of_steps / whatSpeed;
 80003a8:	4b08      	ldr	r3, [pc, #32]	; (80003cc <setSpeed+0x2c>)
 80003aa:	69db      	ldr	r3, [r3, #28]
 80003ac:	4a08      	ldr	r2, [pc, #32]	; (80003d0 <setSpeed+0x30>)
 80003ae:	fb92 f2f3 	sdiv	r2, r2, r3
 80003b2:	687b      	ldr	r3, [r7, #4]
 80003b4:	fb92 f3f3 	sdiv	r3, r2, r3
 80003b8:	461a      	mov	r2, r3
 80003ba:	4b04      	ldr	r3, [pc, #16]	; (80003cc <setSpeed+0x2c>)
 80003bc:	619a      	str	r2, [r3, #24]
}
 80003be:	bf00      	nop
 80003c0:	370c      	adds	r7, #12
 80003c2:	46bd      	mov	sp, r7
 80003c4:	f85d 7b04 	ldr.w	r7, [sp], #4
 80003c8:	4770      	bx	lr
 80003ca:	bf00      	nop
 80003cc:	200009e8 	.word	0x200009e8
 80003d0:	03938700 	.word	0x03938700

080003d4 <stepMotor>:

void stepMotor(int thisStep)
{
 80003d4:	b580      	push	{r7, lr}
 80003d6:	b082      	sub	sp, #8
 80003d8:	af00      	add	r7, sp, #0
 80003da:	6078      	str	r0, [r7, #4]
    // printf("[%s] start thisStep=%d\r\n", __func__, thisStep);
    switch (thisStep) {
 80003dc:	687b      	ldr	r3, [r7, #4]
 80003de:	2b07      	cmp	r3, #7
 80003e0:	f200 813c 	bhi.w	800065c <stepMotor+0x288>
 80003e4:	a201      	add	r2, pc, #4	; (adr r2, 80003ec <stepMotor+0x18>)
 80003e6:	f852 f023 	ldr.w	pc, [r2, r3, lsl #2]
 80003ea:	bf00      	nop
 80003ec:	0800040d 	.word	0x0800040d
 80003f0:	08000457 	.word	0x08000457
 80003f4:	080004a1 	.word	0x080004a1
 80003f8:	080004eb 	.word	0x080004eb
 80003fc:	08000535 	.word	0x08000535
 8000400:	0800057f 	.word	0x0800057f
 8000404:	080005c9 	.word	0x080005c9
 8000408:	08000613 	.word	0x08000613
      case 0:  // 0001
        HAL_GPIO_WritePin(this.motor_pin_1.Port, this.motor_pin_1.number, GPIO_PIN_RESET);
 800040c:	4b95      	ldr	r3, [pc, #596]	; (8000664 <stepMotor+0x290>)
 800040e:	6a98      	ldr	r0, [r3, #40]	; 0x28
 8000410:	4b94      	ldr	r3, [pc, #592]	; (8000664 <stepMotor+0x290>)
 8000412:	6adb      	ldr	r3, [r3, #44]	; 0x2c
 8000414:	b29b      	uxth	r3, r3
 8000416:	2200      	movs	r2, #0
 8000418:	4619      	mov	r1, r3
 800041a:	f001 fd23 	bl	8001e64 <HAL_GPIO_WritePin>
        HAL_GPIO_WritePin(this.motor_pin_2.Port, this.motor_pin_2.number, GPIO_PIN_RESET);
 800041e:	4b91      	ldr	r3, [pc, #580]	; (8000664 <stepMotor+0x290>)
 8000420:	6b18      	ldr	r0, [r3, #48]	; 0x30
 8000422:	4b90      	ldr	r3, [pc, #576]	; (8000664 <stepMotor+0x290>)
 8000424:	6b5b      	ldr	r3, [r3, #52]	; 0x34
 8000426:	b29b      	uxth	r3, r3
 8000428:	2200      	movs	r2, #0
 800042a:	4619      	mov	r1, r3
 800042c:	f001 fd1a 	bl	8001e64 <HAL_GPIO_WritePin>
        HAL_GPIO_WritePin(this.motor_pin_3.Port, this.motor_pin_3.number, GPIO_PIN_RESET);
 8000430:	4b8c      	ldr	r3, [pc, #560]	; (8000664 <stepMotor+0x290>)
 8000432:	6b98      	ldr	r0, [r3, #56]	; 0x38
 8000434:	4b8b      	ldr	r3, [pc, #556]	; (8000664 <stepMotor+0x290>)
 8000436:	6bdb      	ldr	r3, [r3, #60]	; 0x3c
 8000438:	b29b      	uxth	r3, r3
 800043a:	2200      	movs	r2, #0
 800043c:	4619      	mov	r1, r3
 800043e:	f001 fd11 	bl	8001e64 <HAL_GPIO_WritePin>
        HAL_GPIO_WritePin(this.motor_pin_4.Port, this.motor_pin_4.number, GPIO_PIN_SET);
 8000442:	4b88      	ldr	r3, [pc, #544]	; (8000664 <stepMotor+0x290>)
 8000444:	6c18      	ldr	r0, [r3, #64]	; 0x40
 8000446:	4b87      	ldr	r3, [pc, #540]	; (8000664 <stepMotor+0x290>)
 8000448:	6c5b      	ldr	r3, [r3, #68]	; 0x44
 800044a:	b29b      	uxth	r3, r3
 800044c:	2201      	movs	r2, #1
 800044e:	4619      	mov	r1, r3
 8000450:	f001 fd08 	bl	8001e64 <HAL_GPIO_WritePin>
      break;
 8000454:	e102      	b.n	800065c <stepMotor+0x288>
      case 1:  // 0011
        HAL_GPIO_WritePin(this.motor_pin_1.Port, this.motor_pin_1.number, GPIO_PIN_RESET);
 8000456:	4b83      	ldr	r3, [pc, #524]	; (8000664 <stepMotor+0x290>)
 8000458:	6a98      	ldr	r0, [r3, #40]	; 0x28
 800045a:	4b82      	ldr	r3, [pc, #520]	; (8000664 <stepMotor+0x290>)
 800045c:	6adb      	ldr	r3, [r3, #44]	; 0x2c
 800045e:	b29b      	uxth	r3, r3
 8000460:	2200      	movs	r2, #0
 8000462:	4619      	mov	r1, r3
 8000464:	f001 fcfe 	bl	8001e64 <HAL_GPIO_WritePin>
        HAL_GPIO_WritePin(this.motor_pin_2.Port, this.motor_pin_2.number, GPIO_PIN_RESET);
 8000468:	4b7e      	ldr	r3, [pc, #504]	; (8000664 <stepMotor+0x290>)
 800046a:	6b18      	ldr	r0, [r3, #48]	; 0x30
 800046c:	4b7d      	ldr	r3, [pc, #500]	; (8000664 <stepMotor+0x290>)
 800046e:	6b5b      	ldr	r3, [r3, #52]	; 0x34
 8000470:	b29b      	uxth	r3, r3
 8000472:	2200      	movs	r2, #0
 8000474:	4619      	mov	r1, r3
 8000476:	f001 fcf5 	bl	8001e64 <HAL_GPIO_WritePin>
        HAL_GPIO_WritePin(this.motor_pin_3.Port, this.motor_pin_3.number, GPIO_PIN_SET);
 800047a:	4b7a      	ldr	r3, [pc, #488]	; (8000664 <stepMotor+0x290>)
 800047c:	6b98      	ldr	r0, [r3, #56]	; 0x38
 800047e:	4b79      	ldr	r3, [pc, #484]	; (8000664 <stepMotor+0x290>)
 8000480:	6bdb      	ldr	r3, [r3, #60]	; 0x3c
 8000482:	b29b      	uxth	r3, r3
 8000484:	2201      	movs	r2, #1
 8000486:	4619      	mov	r1, r3
 8000488:	f001 fcec 	bl	8001e64 <HAL_GPIO_WritePin>
        HAL_GPIO_WritePin(this.motor_pin_4.Port, this.motor_pin_4.number, GPIO_PIN_SET);
 800048c:	4b75      	ldr	r3, [pc, #468]	; (8000664 <stepMotor+0x290>)
 800048e:	6c18      	ldr	r0, [r3, #64]	; 0x40
 8000490:	4b74      	ldr	r3, [pc, #464]	; (8000664 <stepMotor+0x290>)
 8000492:	6c5b      	ldr	r3, [r3, #68]	; 0x44
 8000494:	b29b      	uxth	r3, r3
 8000496:	2201      	movs	r2, #1
 8000498:	4619      	mov	r1, r3
 800049a:	f001 fce3 	bl	8001e64 <HAL_GPIO_WritePin>
      break;
 800049e:	e0dd      	b.n	800065c <stepMotor+0x288>
      case 2:  //0010
        HAL_GPIO_WritePin(this.motor_pin_1.Port, this.motor_pin_1.number, GPIO_PIN_RESET);
 80004a0:	4b70      	ldr	r3, [pc, #448]	; (8000664 <stepMotor+0x290>)
 80004a2:	6a98      	ldr	r0, [r3, #40]	; 0x28
 80004a4:	4b6f      	ldr	r3, [pc, #444]	; (8000664 <stepMotor+0x290>)
 80004a6:	6adb      	ldr	r3, [r3, #44]	; 0x2c
 80004a8:	b29b      	uxth	r3, r3
 80004aa:	2200      	movs	r2, #0
 80004ac:	4619      	mov	r1, r3
 80004ae:	f001 fcd9 	bl	8001e64 <HAL_GPIO_WritePin>
        HAL_GPIO_WritePin(this.motor_pin_2.Port, this.motor_pin_2.number, GPIO_PIN_RESET);
 80004b2:	4b6c      	ldr	r3, [pc, #432]	; (8000664 <stepMotor+0x290>)
 80004b4:	6b18      	ldr	r0, [r3, #48]	; 0x30
 80004b6:	4b6b      	ldr	r3, [pc, #428]	; (8000664 <stepMotor+0x290>)
 80004b8:	6b5b      	ldr	r3, [r3, #52]	; 0x34
 80004ba:	b29b      	uxth	r3, r3
 80004bc:	2200      	movs	r2, #0
 80004be:	4619      	mov	r1, r3
 80004c0:	f001 fcd0 	bl	8001e64 <HAL_GPIO_WritePin>
        HAL_GPIO_WritePin(this.motor_pin_3.Port, this.motor_pin_3.number, GPIO_PIN_SET);
 80004c4:	4b67      	ldr	r3, [pc, #412]	; (8000664 <stepMotor+0x290>)
 80004c6:	6b98      	ldr	r0, [r3, #56]	; 0x38
 80004c8:	4b66      	ldr	r3, [pc, #408]	; (8000664 <stepMotor+0x290>)
 80004ca:	6bdb      	ldr	r3, [r3, #60]	; 0x3c
 80004cc:	b29b      	uxth	r3, r3
 80004ce:	2201      	movs	r2, #1
 80004d0:	4619      	mov	r1, r3
 80004d2:	f001 fcc7 	bl	8001e64 <HAL_GPIO_WritePin>
        HAL_GPIO_WritePin(this.motor_pin_4.Port, this.motor_pin_4.number, GPIO_PIN_RESET);
 80004d6:	4b63      	ldr	r3, [pc, #396]	; (8000664 <stepMotor+0x290>)
 80004d8:	6c18      	ldr	r0, [r3, #64]	; 0x40
 80004da:	4b62      	ldr	r3, [pc, #392]	; (8000664 <stepMotor+0x290>)
 80004dc:	6c5b      	ldr	r3, [r3, #68]	; 0x44
 80004de:	b29b      	uxth	r3, r3
 80004e0:	2200      	movs	r2, #0
 80004e2:	4619      	mov	r1, r3
 80004e4:	f001 fcbe 	bl	8001e64 <HAL_GPIO_WritePin>
      break;
 80004e8:	e0b8      	b.n	800065c <stepMotor+0x288>
      case 3:  //0110
        HAL_GPIO_WritePin(this.motor_pin_1.Port, this.motor_pin_1.number, GPIO_PIN_RESET);
 80004ea:	4b5e      	ldr	r3, [pc, #376]	; (8000664 <stepMotor+0x290>)
 80004ec:	6a98      	ldr	r0, [r3, #40]	; 0x28
 80004ee:	4b5d      	ldr	r3, [pc, #372]	; (8000664 <stepMotor+0x290>)
 80004f0:	6adb      	ldr	r3, [r3, #44]	; 0x2c
 80004f2:	b29b      	uxth	r3, r3
 80004f4:	2200      	movs	r2, #0
 80004f6:	4619      	mov	r1, r3
 80004f8:	f001 fcb4 	bl	8001e64 <HAL_GPIO_WritePin>
        HAL_GPIO_WritePin(this.motor_pin_2.Port, this.motor_pin_2.number, GPIO_PIN_SET);
 80004fc:	4b59      	ldr	r3, [pc, #356]	; (8000664 <stepMotor+0x290>)
 80004fe:	6b18      	ldr	r0, [r3, #48]	; 0x30
 8000500:	4b58      	ldr	r3, [pc, #352]	; (8000664 <stepMotor+0x290>)
 8000502:	6b5b      	ldr	r3, [r3, #52]	; 0x34
 8000504:	b29b      	uxth	r3, r3
 8000506:	2201      	movs	r2, #1
 8000508:	4619      	mov	r1, r3
 800050a:	f001 fcab 	bl	8001e64 <HAL_GPIO_WritePin>
        HAL_GPIO_WritePin(this.motor_pin_3.Port, this.motor_pin_3.number, GPIO_PIN_SET);
 800050e:	4b55      	ldr	r3, [pc, #340]	; (8000664 <stepMotor+0x290>)
 8000510:	6b98      	ldr	r0, [r3, #56]	; 0x38
 8000512:	4b54      	ldr	r3, [pc, #336]	; (8000664 <stepMotor+0x290>)
 8000514:	6bdb      	ldr	r3, [r3, #60]	; 0x3c
 8000516:	b29b      	uxth	r3, r3
 8000518:	2201      	movs	r2, #1
 800051a:	4619      	mov	r1, r3
 800051c:	f001 fca2 	bl	8001e64 <HAL_GPIO_WritePin>
        HAL_GPIO_WritePin(this.motor_pin_4.Port, this.motor_pin_4.number, GPIO_PIN_RESET);
 8000520:	4b50      	ldr	r3, [pc, #320]	; (8000664 <stepMotor+0x290>)
 8000522:	6c18      	ldr	r0, [r3, #64]	; 0x40
 8000524:	4b4f      	ldr	r3, [pc, #316]	; (8000664 <stepMotor+0x290>)
 8000526:	6c5b      	ldr	r3, [r3, #68]	; 0x44
 8000528:	b29b      	uxth	r3, r3
 800052a:	2200      	movs	r2, #0
 800052c:	4619      	mov	r1, r3
 800052e:	f001 fc99 	bl	8001e64 <HAL_GPIO_WritePin>
      break;
 8000532:	e093      	b.n	800065c <stepMotor+0x288>
    case 4:  //0100
        HAL_GPIO_WritePin(this.motor_pin_1.Port, this.motor_pin_1.number, GPIO_PIN_RESET);
 8000534:	4b4b      	ldr	r3, [pc, #300]	; (8000664 <stepMotor+0x290>)
 8000536:	6a98      	ldr	r0, [r3, #40]	; 0x28
 8000538:	4b4a      	ldr	r3, [pc, #296]	; (8000664 <stepMotor+0x290>)
 800053a:	6adb      	ldr	r3, [r3, #44]	; 0x2c
 800053c:	b29b      	uxth	r3, r3
 800053e:	2200      	movs	r2, #0
 8000540:	4619      	mov	r1, r3
 8000542:	f001 fc8f 	bl	8001e64 <HAL_GPIO_WritePin>
        HAL_GPIO_WritePin(this.motor_pin_2.Port, this.motor_pin_2.number, GPIO_PIN_SET);
 8000546:	4b47      	ldr	r3, [pc, #284]	; (8000664 <stepMotor+0x290>)
 8000548:	6b18      	ldr	r0, [r3, #48]	; 0x30
 800054a:	4b46      	ldr	r3, [pc, #280]	; (8000664 <stepMotor+0x290>)
 800054c:	6b5b      	ldr	r3, [r3, #52]	; 0x34
 800054e:	b29b      	uxth	r3, r3
 8000550:	2201      	movs	r2, #1
 8000552:	4619      	mov	r1, r3
 8000554:	f001 fc86 	bl	8001e64 <HAL_GPIO_WritePin>
        HAL_GPIO_WritePin(this.motor_pin_3.Port, this.motor_pin_3.number, GPIO_PIN_RESET);
 8000558:	4b42      	ldr	r3, [pc, #264]	; (8000664 <stepMotor+0x290>)
 800055a:	6b98      	ldr	r0, [r3, #56]	; 0x38
 800055c:	4b41      	ldr	r3, [pc, #260]	; (8000664 <stepMotor+0x290>)
 800055e:	6bdb      	ldr	r3, [r3, #60]	; 0x3c
 8000560:	b29b      	uxth	r3, r3
 8000562:	2200      	movs	r2, #0
 8000564:	4619      	mov	r1, r3
 8000566:	f001 fc7d 	bl	8001e64 <HAL_GPIO_WritePin>
        HAL_GPIO_WritePin(this.motor_pin_4.Port, this.motor_pin_4.number, GPIO_PIN_RESET);
 800056a:	4b3e      	ldr	r3, [pc, #248]	; (8000664 <stepMotor+0x290>)
 800056c:	6c18      	ldr	r0, [r3, #64]	; 0x40
 800056e:	4b3d      	ldr	r3, [pc, #244]	; (8000664 <stepMotor+0x290>)
 8000570:	6c5b      	ldr	r3, [r3, #68]	; 0x44
 8000572:	b29b      	uxth	r3, r3
 8000574:	2200      	movs	r2, #0
 8000576:	4619      	mov	r1, r3
 8000578:	f001 fc74 	bl	8001e64 <HAL_GPIO_WritePin>
      break;
 800057c:	e06e      	b.n	800065c <stepMotor+0x288>
    case 5:  //1100
        HAL_GPIO_WritePin(this.motor_pin_1.Port, this.motor_pin_1.number, GPIO_PIN_SET);
 800057e:	4b39      	ldr	r3, [pc, #228]	; (8000664 <stepMotor+0x290>)
 8000580:	6a98      	ldr	r0, [r3, #40]	; 0x28
 8000582:	4b38      	ldr	r3, [pc, #224]	; (8000664 <stepMotor+0x290>)
 8000584:	6adb      	ldr	r3, [r3, #44]	; 0x2c
 8000586:	b29b      	uxth	r3, r3
 8000588:	2201      	movs	r2, #1
 800058a:	4619      	mov	r1, r3
 800058c:	f001 fc6a 	bl	8001e64 <HAL_GPIO_WritePin>
        HAL_GPIO_WritePin(this.motor_pin_2.Port, this.motor_pin_2.number, GPIO_PIN_SET);
 8000590:	4b34      	ldr	r3, [pc, #208]	; (8000664 <stepMotor+0x290>)
 8000592:	6b18      	ldr	r0, [r3, #48]	; 0x30
 8000594:	4b33      	ldr	r3, [pc, #204]	; (8000664 <stepMotor+0x290>)
 8000596:	6b5b      	ldr	r3, [r3, #52]	; 0x34
 8000598:	b29b      	uxth	r3, r3
 800059a:	2201      	movs	r2, #1
 800059c:	4619      	mov	r1, r3
 800059e:	f001 fc61 	bl	8001e64 <HAL_GPIO_WritePin>
        HAL_GPIO_WritePin(this.motor_pin_3.Port, this.motor_pin_3.number, GPIO_PIN_RESET);
 80005a2:	4b30      	ldr	r3, [pc, #192]	; (8000664 <stepMotor+0x290>)
 80005a4:	6b98      	ldr	r0, [r3, #56]	; 0x38
 80005a6:	4b2f      	ldr	r3, [pc, #188]	; (8000664 <stepMotor+0x290>)
 80005a8:	6bdb      	ldr	r3, [r3, #60]	; 0x3c
 80005aa:	b29b      	uxth	r3, r3
 80005ac:	2200      	movs	r2, #0
 80005ae:	4619      	mov	r1, r3
 80005b0:	f001 fc58 	bl	8001e64 <HAL_GPIO_WritePin>
        HAL_GPIO_WritePin(this.motor_pin_4.Port, this.motor_pin_4.number, GPIO_PIN_RESET);
 80005b4:	4b2b      	ldr	r3, [pc, #172]	; (8000664 <stepMotor+0x290>)
 80005b6:	6c18      	ldr	r0, [r3, #64]	; 0x40
 80005b8:	4b2a      	ldr	r3, [pc, #168]	; (8000664 <stepMotor+0x290>)
 80005ba:	6c5b      	ldr	r3, [r3, #68]	; 0x44
 80005bc:	b29b      	uxth	r3, r3
 80005be:	2200      	movs	r2, #0
 80005c0:	4619      	mov	r1, r3
 80005c2:	f001 fc4f 	bl	8001e64 <HAL_GPIO_WritePin>
      break;
 80005c6:	e049      	b.n	800065c <stepMotor+0x288>
    case 6:  //1000
        HAL_GPIO_WritePin(this.motor_pin_1.Port, this.motor_pin_1.number, GPIO_PIN_SET);
 80005c8:	4b26      	ldr	r3, [pc, #152]	; (8000664 <stepMotor+0x290>)
 80005ca:	6a98      	ldr	r0, [r3, #40]	; 0x28
 80005cc:	4b25      	ldr	r3, [pc, #148]	; (8000664 <stepMotor+0x290>)
 80005ce:	6adb      	ldr	r3, [r3, #44]	; 0x2c
 80005d0:	b29b      	uxth	r3, r3
 80005d2:	2201      	movs	r2, #1
 80005d4:	4619      	mov	r1, r3
 80005d6:	f001 fc45 	bl	8001e64 <HAL_GPIO_WritePin>
        HAL_GPIO_WritePin(this.motor_pin_2.Port, this.motor_pin_2.number, GPIO_PIN_RESET);
 80005da:	4b22      	ldr	r3, [pc, #136]	; (8000664 <stepMotor+0x290>)
 80005dc:	6b18      	ldr	r0, [r3, #48]	; 0x30
 80005de:	4b21      	ldr	r3, [pc, #132]	; (8000664 <stepMotor+0x290>)
 80005e0:	6b5b      	ldr	r3, [r3, #52]	; 0x34
 80005e2:	b29b      	uxth	r3, r3
 80005e4:	2200      	movs	r2, #0
 80005e6:	4619      	mov	r1, r3
 80005e8:	f001 fc3c 	bl	8001e64 <HAL_GPIO_WritePin>
        HAL_GPIO_WritePin(this.motor_pin_3.Port, this.motor_pin_3.number, GPIO_PIN_RESET);
 80005ec:	4b1d      	ldr	r3, [pc, #116]	; (8000664 <stepMotor+0x290>)
 80005ee:	6b98      	ldr	r0, [r3, #56]	; 0x38
 80005f0:	4b1c      	ldr	r3, [pc, #112]	; (8000664 <stepMotor+0x290>)
 80005f2:	6bdb      	ldr	r3, [r3, #60]	; 0x3c
 80005f4:	b29b      	uxth	r3, r3
 80005f6:	2200      	movs	r2, #0
 80005f8:	4619      	mov	r1, r3
 80005fa:	f001 fc33 	bl	8001e64 <HAL_GPIO_WritePin>
        HAL_GPIO_WritePin(this.motor_pin_4.Port, this.motor_pin_4.number, GPIO_PIN_RESET);
 80005fe:	4b19      	ldr	r3, [pc, #100]	; (8000664 <stepMotor+0x290>)
 8000600:	6c18      	ldr	r0, [r3, #64]	; 0x40
 8000602:	4b18      	ldr	r3, [pc, #96]	; (8000664 <stepMotor+0x290>)
 8000604:	6c5b      	ldr	r3, [r3, #68]	; 0x44
 8000606:	b29b      	uxth	r3, r3
 8000608:	2200      	movs	r2, #0
 800060a:	4619      	mov	r1, r3
 800060c:	f001 fc2a 	bl	8001e64 <HAL_GPIO_WritePin>
      break;
 8000610:	e024      	b.n	800065c <stepMotor+0x288>
    case 7:  //1001
        HAL_GPIO_WritePin(this.motor_pin_1.Port, this.motor_pin_1.number, GPIO_PIN_SET);
 8000612:	4b14      	ldr	r3, [pc, #80]	; (8000664 <stepMotor+0x290>)
 8000614:	6a98      	ldr	r0, [r3, #40]	; 0x28
 8000616:	4b13      	ldr	r3, [pc, #76]	; (8000664 <stepMotor+0x290>)
 8000618:	6adb      	ldr	r3, [r3, #44]	; 0x2c
 800061a:	b29b      	uxth	r3, r3
 800061c:	2201      	movs	r2, #1
 800061e:	4619      	mov	r1, r3
 8000620:	f001 fc20 	bl	8001e64 <HAL_GPIO_WritePin>
        HAL_GPIO_WritePin(this.motor_pin_2.Port, this.motor_pin_2.number, GPIO_PIN_RESET);
 8000624:	4b0f      	ldr	r3, [pc, #60]	; (8000664 <stepMotor+0x290>)
 8000626:	6b18      	ldr	r0, [r3, #48]	; 0x30
 8000628:	4b0e      	ldr	r3, [pc, #56]	; (8000664 <stepMotor+0x290>)
 800062a:	6b5b      	ldr	r3, [r3, #52]	; 0x34
 800062c:	b29b      	uxth	r3, r3
 800062e:	2200      	movs	r2, #0
 8000630:	4619      	mov	r1, r3
 8000632:	f001 fc17 	bl	8001e64 <HAL_GPIO_WritePin>
        HAL_GPIO_WritePin(this.motor_pin_3.Port, this.motor_pin_3.number, GPIO_PIN_RESET);
 8000636:	4b0b      	ldr	r3, [pc, #44]	; (8000664 <stepMotor+0x290>)
 8000638:	6b98      	ldr	r0, [r3, #56]	; 0x38
 800063a:	4b0a      	ldr	r3, [pc, #40]	; (8000664 <stepMotor+0x290>)
 800063c:	6bdb      	ldr	r3, [r3, #60]	; 0x3c
 800063e:	b29b      	uxth	r3, r3
 8000640:	2200      	movs	r2, #0
 8000642:	4619      	mov	r1, r3
 8000644:	f001 fc0e 	bl	8001e64 <HAL_GPIO_WritePin>
        HAL_GPIO_WritePin(this.motor_pin_4.Port, this.motor_pin_4.number, GPIO_PIN_SET);
 8000648:	4b06      	ldr	r3, [pc, #24]	; (8000664 <stepMotor+0x290>)
 800064a:	6c18      	ldr	r0, [r3, #64]	; 0x40
 800064c:	4b05      	ldr	r3, [pc, #20]	; (8000664 <stepMotor+0x290>)
 800064e:	6c5b      	ldr	r3, [r3, #68]	; 0x44
 8000650:	b29b      	uxth	r3, r3
 8000652:	2201      	movs	r2, #1
 8000654:	4619      	mov	r1, r3
 8000656:	f001 fc05 	bl	8001e64 <HAL_GPIO_WritePin>
      break;
 800065a:	bf00      	nop
    }
    // printf("[%s] end thisStep=%d\r\n", __func__, thisStep);
}
 800065c:	bf00      	nop
 800065e:	3708      	adds	r7, #8
 8000660:	46bd      	mov	sp, r7
 8000662:	bd80      	pop	{r7, pc}
 8000664:	200009e8 	.word	0x200009e8

08000668 <step>:
/*
 * Moves the motor steps_to_move steps.  If the number is negative,
 * the motor moves in the reverse direction.
 */
void step(int steps_to_move)
{
 8000668:	b580      	push	{r7, lr}
 800066a:	b088      	sub	sp, #32
 800066c:	af00      	add	r7, sp, #0
 800066e:	6078      	str	r0, [r7, #4]
#if 1
  /* EPRROM 保存地址 */
  int address = 0;
 8000670:	2300      	movs	r3, #0
 8000672:	61bb      	str	r3, [r7, #24]
  int valueL = 0;
 8000674:	2300      	movs	r3, #0
 8000676:	617b      	str	r3, [r7, #20]
  int valueH = 0;
 8000678:	2300      	movs	r3, #0
 800067a:	613b      	str	r3, [r7, #16]
  int tempSteps = steps_to_move;
 800067c:	687b      	ldr	r3, [r7, #4]
 800067e:	60fb      	str	r3, [r7, #12]
  #define ABS(x) ((x)>0?x:-x)
  int steps_left = ABS(steps_to_move);  // how many steps to take
 8000680:	687b      	ldr	r3, [r7, #4]
 8000682:	2b00      	cmp	r3, #0
 8000684:	bfb8      	it	lt
 8000686:	425b      	neglt	r3, r3
 8000688:	61fb      	str	r3, [r7, #28]

  // determine direction based on whether steps_to_mode is + or -:
  if (steps_to_move > 0) { this.direction = 1; }
 800068a:	687b      	ldr	r3, [r7, #4]
 800068c:	2b00      	cmp	r3, #0
 800068e:	dd02      	ble.n	8000696 <step+0x2e>
 8000690:	4b29      	ldr	r3, [pc, #164]	; (8000738 <step+0xd0>)
 8000692:	2201      	movs	r2, #1
 8000694:	611a      	str	r2, [r3, #16]
  if (steps_to_move < 0) { this.direction = 0; }
 8000696:	687b      	ldr	r3, [r7, #4]
 8000698:	2b00      	cmp	r3, #0
 800069a:	da46      	bge.n	800072a <step+0xc2>
 800069c:	4b26      	ldr	r3, [pc, #152]	; (8000738 <step+0xd0>)
 800069e:	2200      	movs	r2, #0
 80006a0:	611a      	str	r2, [r3, #16]


  // decrement the number of steps, moving one step each time:
  while (steps_left > 0)
 80006a2:	e042      	b.n	800072a <step+0xc2>
  {
    
  	unsigned long now = HAL_GetTick();    
 80006a4:	f000 fb48 	bl	8000d38 <HAL_GetTick>
 80006a8:	60b8      	str	r0, [r7, #8]
    // move only if the appropriate delay has passed:
    if (now - this.last_step_time >= this.step_delay)
 80006aa:	4b23      	ldr	r3, [pc, #140]	; (8000738 <step+0xd0>)
 80006ac:	6c9b      	ldr	r3, [r3, #72]	; 0x48
 80006ae:	68ba      	ldr	r2, [r7, #8]
 80006b0:	1ad2      	subs	r2, r2, r3
 80006b2:	4b21      	ldr	r3, [pc, #132]	; (8000738 <step+0xd0>)
 80006b4:	699b      	ldr	r3, [r3, #24]
 80006b6:	429a      	cmp	r2, r3
 80006b8:	d337      	bcc.n	800072a <step+0xc2>
    {
    	valueL = steps_left & 0x00FF;
 80006ba:	69fb      	ldr	r3, [r7, #28]
 80006bc:	b2db      	uxtb	r3, r3
 80006be:	617b      	str	r3, [r7, #20]
    //   EEPROM.write(address + 1, valueL);
      valueH = steps_left >> 8;
 80006c0:	69fb      	ldr	r3, [r7, #28]
 80006c2:	121b      	asrs	r3, r3, #8
 80006c4:	613b      	str	r3, [r7, #16]
    //   EEPROM.write(address + 2, valueH);
      
      // get the timeStamp of when you stepped:
      this.last_step_time = now;
 80006c6:	4a1c      	ldr	r2, [pc, #112]	; (8000738 <step+0xd0>)
 80006c8:	68bb      	ldr	r3, [r7, #8]
 80006ca:	6493      	str	r3, [r2, #72]	; 0x48
      // increment or decrement the step number,
      // depending on direction:
      if (this.direction == 1)
 80006cc:	4b1a      	ldr	r3, [pc, #104]	; (8000738 <step+0xd0>)
 80006ce:	691b      	ldr	r3, [r3, #16]
 80006d0:	2b01      	cmp	r3, #1
 80006d2:	d10e      	bne.n	80006f2 <step+0x8a>
      {
        this.step_number++;
 80006d4:	4b18      	ldr	r3, [pc, #96]	; (8000738 <step+0xd0>)
 80006d6:	6a5b      	ldr	r3, [r3, #36]	; 0x24
 80006d8:	3301      	adds	r3, #1
 80006da:	4a17      	ldr	r2, [pc, #92]	; (8000738 <step+0xd0>)
 80006dc:	6253      	str	r3, [r2, #36]	; 0x24
        if (this.step_number == this.number_of_steps) {
 80006de:	4b16      	ldr	r3, [pc, #88]	; (8000738 <step+0xd0>)
 80006e0:	6a5a      	ldr	r2, [r3, #36]	; 0x24
 80006e2:	4b15      	ldr	r3, [pc, #84]	; (8000738 <step+0xd0>)
 80006e4:	69db      	ldr	r3, [r3, #28]
 80006e6:	429a      	cmp	r2, r3
 80006e8:	d110      	bne.n	800070c <step+0xa4>
          this.step_number = 0;
 80006ea:	4b13      	ldr	r3, [pc, #76]	; (8000738 <step+0xd0>)
 80006ec:	2200      	movs	r2, #0
 80006ee:	625a      	str	r2, [r3, #36]	; 0x24
 80006f0:	e00c      	b.n	800070c <step+0xa4>
        }
      }
      else
      {
        if (this.step_number == 0) {
 80006f2:	4b11      	ldr	r3, [pc, #68]	; (8000738 <step+0xd0>)
 80006f4:	6a5b      	ldr	r3, [r3, #36]	; 0x24
 80006f6:	2b00      	cmp	r3, #0
 80006f8:	d103      	bne.n	8000702 <step+0x9a>
          this.step_number = this.number_of_steps;
 80006fa:	4b0f      	ldr	r3, [pc, #60]	; (8000738 <step+0xd0>)
 80006fc:	69db      	ldr	r3, [r3, #28]
 80006fe:	4a0e      	ldr	r2, [pc, #56]	; (8000738 <step+0xd0>)
 8000700:	6253      	str	r3, [r2, #36]	; 0x24
        }
        this.step_number--;
 8000702:	4b0d      	ldr	r3, [pc, #52]	; (8000738 <step+0xd0>)
 8000704:	6a5b      	ldr	r3, [r3, #36]	; 0x24
 8000706:	3b01      	subs	r3, #1
 8000708:	4a0b      	ldr	r2, [pc, #44]	; (8000738 <step+0xd0>)
 800070a:	6253      	str	r3, [r2, #36]	; 0x24
      }
      // decrement the steps left:
      steps_left--;
 800070c:	69fb      	ldr	r3, [r7, #28]
 800070e:	3b01      	subs	r3, #1
 8000710:	61fb      	str	r3, [r7, #28]
      
      // step the motor to step number 0, 1, ..., {3 or 10}
      stepMotor(this.step_number % 8);
 8000712:	4b09      	ldr	r3, [pc, #36]	; (8000738 <step+0xd0>)
 8000714:	6a5b      	ldr	r3, [r3, #36]	; 0x24
 8000716:	425a      	negs	r2, r3
 8000718:	f003 0307 	and.w	r3, r3, #7
 800071c:	f002 0207 	and.w	r2, r2, #7
 8000720:	bf58      	it	pl
 8000722:	4253      	negpl	r3, r2
 8000724:	4618      	mov	r0, r3
 8000726:	f7ff fe55 	bl	80003d4 <stepMotor>
  while (steps_left > 0)
 800072a:	69fb      	ldr	r3, [r7, #28]
 800072c:	2b00      	cmp	r3, #0
 800072e:	dcb9      	bgt.n	80006a4 <step+0x3c>
  // printf("this=0x%08p %x \r\n", this, this.motor_pin_1.number);
  //     HAL_GPIO_WritePin(this.motor_pin_1.Port, this.motor_pin_1.number, GPIO_PIN_RESET);
  //     HAL_GPIO_WritePin(this.motor_pin_2.Port, this.motor_pin_2.number, GPIO_PIN_RESET);
  //     HAL_GPIO_WritePin(this.motor_pin_3.Port, this.motor_pin_3.number, GPIO_PIN_RESET);
  //     HAL_GPIO_WritePin(this.motor_pin_4.Port, this.motor_pin_4.number, GPIO_PIN_RESET);
}
 8000730:	bf00      	nop
 8000732:	3720      	adds	r7, #32
 8000734:	46bd      	mov	sp, r7
 8000736:	bd80      	pop	{r7, pc}
 8000738:	200009e8 	.word	0x200009e8

0800073c <Stepper>:
 *   constructor for four-pin version
 *   Sets which wires should control the motor.
 */
void Stepper(int number_of_steps, struct MotorPin * motor_pin_1, struct MotorPin * motor_pin_2,
                                      struct MotorPin * motor_pin_3, struct MotorPin * motor_pin_4)
{
 800073c:	b580      	push	{r7, lr}
 800073e:	b08c      	sub	sp, #48	; 0x30
 8000740:	af00      	add	r7, sp, #0
 8000742:	60f8      	str	r0, [r7, #12]
 8000744:	60b9      	str	r1, [r7, #8]
 8000746:	607a      	str	r2, [r7, #4]
 8000748:	603b      	str	r3, [r7, #0]
  GPIO_InitTypeDef  GPIO_InitStruct;
  
  this.step_number = 0;    // which step the motor is on
 800074a:	4b3c      	ldr	r3, [pc, #240]	; (800083c <Stepper+0x100>)
 800074c:	2200      	movs	r2, #0
 800074e:	625a      	str	r2, [r3, #36]	; 0x24
  this.speed = 0;          // the motor speed, in revolutions per minute
 8000750:	4b3a      	ldr	r3, [pc, #232]	; (800083c <Stepper+0x100>)
 8000752:	2200      	movs	r2, #0
 8000754:	615a      	str	r2, [r3, #20]
  this.direction = 0;      // motor direction
 8000756:	4b39      	ldr	r3, [pc, #228]	; (800083c <Stepper+0x100>)
 8000758:	2200      	movs	r2, #0
 800075a:	611a      	str	r2, [r3, #16]
  this.last_step_time = 0; // time stamp in us of the last step taken
 800075c:	4b37      	ldr	r3, [pc, #220]	; (800083c <Stepper+0x100>)
 800075e:	2200      	movs	r2, #0
 8000760:	649a      	str	r2, [r3, #72]	; 0x48
  this.number_of_steps = number_of_steps; // total number of steps for this motor
 8000762:	4a36      	ldr	r2, [pc, #216]	; (800083c <Stepper+0x100>)
 8000764:	68fb      	ldr	r3, [r7, #12]
 8000766:	61d3      	str	r3, [r2, #28]

  // Arduino pins for the motor control connection:
  memcpy(&this.motor_pin_1, motor_pin_1, sizeof(struct MotorPin));
 8000768:	2208      	movs	r2, #8
 800076a:	68b9      	ldr	r1, [r7, #8]
 800076c:	4834      	ldr	r0, [pc, #208]	; (8000840 <Stepper+0x104>)
 800076e:	f002 f8b9 	bl	80028e4 <memcpy>
  memcpy(&this.motor_pin_2, motor_pin_2, sizeof(struct MotorPin));
 8000772:	2208      	movs	r2, #8
 8000774:	6879      	ldr	r1, [r7, #4]
 8000776:	4833      	ldr	r0, [pc, #204]	; (8000844 <Stepper+0x108>)
 8000778:	f002 f8b4 	bl	80028e4 <memcpy>
  memcpy(&this.motor_pin_3, motor_pin_3, sizeof(struct MotorPin));
 800077c:	2208      	movs	r2, #8
 800077e:	6839      	ldr	r1, [r7, #0]
 8000780:	4831      	ldr	r0, [pc, #196]	; (8000848 <Stepper+0x10c>)
 8000782:	f002 f8af 	bl	80028e4 <memcpy>
  memcpy(&this.motor_pin_4, motor_pin_4, sizeof(struct MotorPin));
 8000786:	2208      	movs	r2, #8
 8000788:	6bb9      	ldr	r1, [r7, #56]	; 0x38
 800078a:	4830      	ldr	r0, [pc, #192]	; (800084c <Stepper+0x110>)
 800078c:	f002 f8aa 	bl	80028e4 <memcpy>

  
  /* -1- Enable GPIOA Clock (to be able to program the configuration registers) */
  __HAL_RCC_GPIOA_CLK_ENABLE();
 8000790:	2300      	movs	r3, #0
 8000792:	61bb      	str	r3, [r7, #24]
 8000794:	4b2e      	ldr	r3, [pc, #184]	; (8000850 <Stepper+0x114>)
 8000796:	6b1b      	ldr	r3, [r3, #48]	; 0x30
 8000798:	4a2d      	ldr	r2, [pc, #180]	; (8000850 <Stepper+0x114>)
 800079a:	f043 0301 	orr.w	r3, r3, #1
 800079e:	6313      	str	r3, [r2, #48]	; 0x30
 80007a0:	4b2b      	ldr	r3, [pc, #172]	; (8000850 <Stepper+0x114>)
 80007a2:	6b1b      	ldr	r3, [r3, #48]	; 0x30
 80007a4:	f003 0301 	and.w	r3, r3, #1
 80007a8:	61bb      	str	r3, [r7, #24]
 80007aa:	69bb      	ldr	r3, [r7, #24]
  __HAL_RCC_GPIOB_CLK_ENABLE();
 80007ac:	2300      	movs	r3, #0
 80007ae:	617b      	str	r3, [r7, #20]
 80007b0:	4b27      	ldr	r3, [pc, #156]	; (8000850 <Stepper+0x114>)
 80007b2:	6b1b      	ldr	r3, [r3, #48]	; 0x30
 80007b4:	4a26      	ldr	r2, [pc, #152]	; (8000850 <Stepper+0x114>)
 80007b6:	f043 0302 	orr.w	r3, r3, #2
 80007ba:	6313      	str	r3, [r2, #48]	; 0x30
 80007bc:	4b24      	ldr	r3, [pc, #144]	; (8000850 <Stepper+0x114>)
 80007be:	6b1b      	ldr	r3, [r3, #48]	; 0x30
 80007c0:	f003 0302 	and.w	r3, r3, #2
 80007c4:	617b      	str	r3, [r7, #20]
 80007c6:	697b      	ldr	r3, [r7, #20]
  
  /* -2- Configure PA05 IO in output push-pull mode to
         drive external LED */
  GPIO_InitStruct.Mode = GPIO_MODE_OUTPUT_PP;
 80007c8:	2301      	movs	r3, #1
 80007ca:	623b      	str	r3, [r7, #32]
  GPIO_InitStruct.Pull = GPIO_PULLUP;
 80007cc:	2301      	movs	r3, #1
 80007ce:	627b      	str	r3, [r7, #36]	; 0x24
  GPIO_InitStruct.Speed = GPIO_SPEED_FAST;
 80007d0:	2302      	movs	r3, #2
 80007d2:	62bb      	str	r3, [r7, #40]	; 0x28

  GPIO_InitStruct.Pin = this.motor_pin_1.number;
 80007d4:	4b19      	ldr	r3, [pc, #100]	; (800083c <Stepper+0x100>)
 80007d6:	6adb      	ldr	r3, [r3, #44]	; 0x2c
 80007d8:	61fb      	str	r3, [r7, #28]
  HAL_GPIO_Init(this.motor_pin_1.Port, &GPIO_InitStruct); 
 80007da:	4b18      	ldr	r3, [pc, #96]	; (800083c <Stepper+0x100>)
 80007dc:	6a9b      	ldr	r3, [r3, #40]	; 0x28
 80007de:	f107 021c 	add.w	r2, r7, #28
 80007e2:	4611      	mov	r1, r2
 80007e4:	4618      	mov	r0, r3
 80007e6:	f001 f9bb 	bl	8001b60 <HAL_GPIO_Init>
  GPIO_InitStruct.Pin = this.motor_pin_2.number;
 80007ea:	4b14      	ldr	r3, [pc, #80]	; (800083c <Stepper+0x100>)
 80007ec:	6b5b      	ldr	r3, [r3, #52]	; 0x34
 80007ee:	61fb      	str	r3, [r7, #28]
  HAL_GPIO_Init(this.motor_pin_2.Port, &GPIO_InitStruct); 
 80007f0:	4b12      	ldr	r3, [pc, #72]	; (800083c <Stepper+0x100>)
 80007f2:	6b1b      	ldr	r3, [r3, #48]	; 0x30
 80007f4:	f107 021c 	add.w	r2, r7, #28
 80007f8:	4611      	mov	r1, r2
 80007fa:	4618      	mov	r0, r3
 80007fc:	f001 f9b0 	bl	8001b60 <HAL_GPIO_Init>
  GPIO_InitStruct.Pin = this.motor_pin_3.number;
 8000800:	4b0e      	ldr	r3, [pc, #56]	; (800083c <Stepper+0x100>)
 8000802:	6bdb      	ldr	r3, [r3, #60]	; 0x3c
 8000804:	61fb      	str	r3, [r7, #28]
  HAL_GPIO_Init(this.motor_pin_3.Port, &GPIO_InitStruct); 
 8000806:	4b0d      	ldr	r3, [pc, #52]	; (800083c <Stepper+0x100>)
 8000808:	6b9b      	ldr	r3, [r3, #56]	; 0x38
 800080a:	f107 021c 	add.w	r2, r7, #28
 800080e:	4611      	mov	r1, r2
 8000810:	4618      	mov	r0, r3
 8000812:	f001 f9a5 	bl	8001b60 <HAL_GPIO_Init>
  GPIO_InitStruct.Pin = this.motor_pin_4.number;
 8000816:	4b09      	ldr	r3, [pc, #36]	; (800083c <Stepper+0x100>)
 8000818:	6c5b      	ldr	r3, [r3, #68]	; 0x44
 800081a:	61fb      	str	r3, [r7, #28]
  HAL_GPIO_Init(this.motor_pin_4.Port, &GPIO_InitStruct); 
 800081c:	4b07      	ldr	r3, [pc, #28]	; (800083c <Stepper+0x100>)
 800081e:	6c1b      	ldr	r3, [r3, #64]	; 0x40
 8000820:	f107 021c 	add.w	r2, r7, #28
 8000824:	4611      	mov	r1, r2
 8000826:	4618      	mov	r0, r3
 8000828:	f001 f99a 	bl	8001b60 <HAL_GPIO_Init>
  // pin_count is used by the stepMotor() method:
  this.pin_count = 4;
 800082c:	4b03      	ldr	r3, [pc, #12]	; (800083c <Stepper+0x100>)
 800082e:	2204      	movs	r2, #4
 8000830:	621a      	str	r2, [r3, #32]
}
 8000832:	bf00      	nop
 8000834:	3730      	adds	r7, #48	; 0x30
 8000836:	46bd      	mov	sp, r7
 8000838:	bd80      	pop	{r7, pc}
 800083a:	bf00      	nop
 800083c:	200009e8 	.word	0x200009e8
 8000840:	20000a10 	.word	0x20000a10
 8000844:	20000a18 	.word	0x20000a18
 8000848:	20000a20 	.word	0x20000a20
 800084c:	20000a28 	.word	0x20000a28
 8000850:	40023800 	.word	0x40023800

08000854 <InitStepper>:

void InitStepper(void)
{
 8000854:	b5b0      	push	{r4, r5, r7, lr}
 8000856:	b08a      	sub	sp, #40	; 0x28
 8000858:	af02      	add	r7, sp, #8
  struct MotorPin motorPin[] = {
 800085a:	4b0f      	ldr	r3, [pc, #60]	; (8000898 <InitStepper+0x44>)
 800085c:	463c      	mov	r4, r7
 800085e:	461d      	mov	r5, r3
 8000860:	cd0f      	ldmia	r5!, {r0, r1, r2, r3}
 8000862:	c40f      	stmia	r4!, {r0, r1, r2, r3}
 8000864:	e895 000f 	ldmia.w	r5, {r0, r1, r2, r3}
 8000868:	e884 000f 	stmia.w	r4, {r0, r1, r2, r3}
    {GPIOA, STEPER_IN1},
    {GPIOA, STEPER_IN2},
    {GPIOA, STEPER_IN3},
    {GPIOB, STEPER_IN4},
  };
  Stepper(8, &motorPin[0], &motorPin[1], &motorPin[2], &motorPin[3]);
 800086c:	463b      	mov	r3, r7
 800086e:	f103 0010 	add.w	r0, r3, #16
 8000872:	463b      	mov	r3, r7
 8000874:	f103 0208 	add.w	r2, r3, #8
 8000878:	4639      	mov	r1, r7
 800087a:	463b      	mov	r3, r7
 800087c:	3318      	adds	r3, #24
 800087e:	9300      	str	r3, [sp, #0]
 8000880:	4603      	mov	r3, r0
 8000882:	2008      	movs	r0, #8
 8000884:	f7ff ff5a 	bl	800073c <Stepper>
  setSpeed(64);
 8000888:	2040      	movs	r0, #64	; 0x40
 800088a:	f7ff fd89 	bl	80003a0 <setSpeed>
 800088e:	bf00      	nop
 8000890:	3720      	adds	r7, #32
 8000892:	46bd      	mov	sp, r7
 8000894:	bdb0      	pop	{r4, r5, r7, pc}
 8000896:	bf00      	nop
 8000898:	08007bc8 	.word	0x08007bc8

0800089c <HAL_UART_MspInit>:
  *           - NVIC configuration for DMA interrupt request enable
  * @param huart: UART handle pointer
  * @retval None
  */
void HAL_UART_MspInit(UART_HandleTypeDef *huart)
{
 800089c:	b580      	push	{r7, lr}
 800089e:	b08c      	sub	sp, #48	; 0x30
 80008a0:	af00      	add	r7, sp, #0
 80008a2:	6078      	str	r0, [r7, #4]
  
  GPIO_InitTypeDef  GPIO_InitStruct;
  
  /*##-1- Enable peripherals and GPIO Clocks #################################*/
  /* Enable GPIO TX/RX clock */
  USARTx_TX_GPIO_CLK_ENABLE();
 80008a4:	2300      	movs	r3, #0
 80008a6:	61bb      	str	r3, [r7, #24]
 80008a8:	4b6a      	ldr	r3, [pc, #424]	; (8000a54 <HAL_UART_MspInit+0x1b8>)
 80008aa:	6b1b      	ldr	r3, [r3, #48]	; 0x30
 80008ac:	4a69      	ldr	r2, [pc, #420]	; (8000a54 <HAL_UART_MspInit+0x1b8>)
 80008ae:	f043 0301 	orr.w	r3, r3, #1
 80008b2:	6313      	str	r3, [r2, #48]	; 0x30
 80008b4:	4b67      	ldr	r3, [pc, #412]	; (8000a54 <HAL_UART_MspInit+0x1b8>)
 80008b6:	6b1b      	ldr	r3, [r3, #48]	; 0x30
 80008b8:	f003 0301 	and.w	r3, r3, #1
 80008bc:	61bb      	str	r3, [r7, #24]
 80008be:	69bb      	ldr	r3, [r7, #24]
  USARTx_RX_GPIO_CLK_ENABLE();
 80008c0:	2300      	movs	r3, #0
 80008c2:	617b      	str	r3, [r7, #20]
 80008c4:	4b63      	ldr	r3, [pc, #396]	; (8000a54 <HAL_UART_MspInit+0x1b8>)
 80008c6:	6b1b      	ldr	r3, [r3, #48]	; 0x30
 80008c8:	4a62      	ldr	r2, [pc, #392]	; (8000a54 <HAL_UART_MspInit+0x1b8>)
 80008ca:	f043 0301 	orr.w	r3, r3, #1
 80008ce:	6313      	str	r3, [r2, #48]	; 0x30
 80008d0:	4b60      	ldr	r3, [pc, #384]	; (8000a54 <HAL_UART_MspInit+0x1b8>)
 80008d2:	6b1b      	ldr	r3, [r3, #48]	; 0x30
 80008d4:	f003 0301 	and.w	r3, r3, #1
 80008d8:	617b      	str	r3, [r7, #20]
 80008da:	697b      	ldr	r3, [r7, #20]
  /* Enable USART2 clock */
  USARTx_CLK_ENABLE(); 
 80008dc:	2300      	movs	r3, #0
 80008de:	613b      	str	r3, [r7, #16]
 80008e0:	4b5c      	ldr	r3, [pc, #368]	; (8000a54 <HAL_UART_MspInit+0x1b8>)
 80008e2:	6c1b      	ldr	r3, [r3, #64]	; 0x40
 80008e4:	4a5b      	ldr	r2, [pc, #364]	; (8000a54 <HAL_UART_MspInit+0x1b8>)
 80008e6:	f443 3300 	orr.w	r3, r3, #131072	; 0x20000
 80008ea:	6413      	str	r3, [r2, #64]	; 0x40
 80008ec:	4b59      	ldr	r3, [pc, #356]	; (8000a54 <HAL_UART_MspInit+0x1b8>)
 80008ee:	6c1b      	ldr	r3, [r3, #64]	; 0x40
 80008f0:	f403 3300 	and.w	r3, r3, #131072	; 0x20000
 80008f4:	613b      	str	r3, [r7, #16]
 80008f6:	693b      	ldr	r3, [r7, #16]
  /* Enable DMA1 clock */
  DMAx_CLK_ENABLE();   
 80008f8:	2300      	movs	r3, #0
 80008fa:	60fb      	str	r3, [r7, #12]
 80008fc:	4b55      	ldr	r3, [pc, #340]	; (8000a54 <HAL_UART_MspInit+0x1b8>)
 80008fe:	6b1b      	ldr	r3, [r3, #48]	; 0x30
 8000900:	4a54      	ldr	r2, [pc, #336]	; (8000a54 <HAL_UART_MspInit+0x1b8>)
 8000902:	f443 1300 	orr.w	r3, r3, #2097152	; 0x200000
 8000906:	6313      	str	r3, [r2, #48]	; 0x30
 8000908:	4b52      	ldr	r3, [pc, #328]	; (8000a54 <HAL_UART_MspInit+0x1b8>)
 800090a:	6b1b      	ldr	r3, [r3, #48]	; 0x30
 800090c:	f403 1300 	and.w	r3, r3, #2097152	; 0x200000
 8000910:	60fb      	str	r3, [r7, #12]
 8000912:	68fb      	ldr	r3, [r7, #12]
  
  /*##-2- Configure peripheral GPIO ##########################################*/  
  /* UART TX GPIO pin configuration  */
  GPIO_InitStruct.Pin       = USARTx_TX_PIN;
 8000914:	2304      	movs	r3, #4
 8000916:	61fb      	str	r3, [r7, #28]
  GPIO_InitStruct.Mode      = GPIO_MODE_AF_PP;
 8000918:	2302      	movs	r3, #2
 800091a:	623b      	str	r3, [r7, #32]
  GPIO_InitStruct.Pull      = GPIO_NOPULL;
 800091c:	2300      	movs	r3, #0
 800091e:	627b      	str	r3, [r7, #36]	; 0x24
  GPIO_InitStruct.Speed     = GPIO_SPEED_FAST;
 8000920:	2302      	movs	r3, #2
 8000922:	62bb      	str	r3, [r7, #40]	; 0x28
  GPIO_InitStruct.Alternate = USARTx_TX_AF;
 8000924:	2307      	movs	r3, #7
 8000926:	62fb      	str	r3, [r7, #44]	; 0x2c
  
  HAL_GPIO_Init(USARTx_TX_GPIO_PORT, &GPIO_InitStruct);
 8000928:	f107 031c 	add.w	r3, r7, #28
 800092c:	4619      	mov	r1, r3
 800092e:	484a      	ldr	r0, [pc, #296]	; (8000a58 <HAL_UART_MspInit+0x1bc>)
 8000930:	f001 f916 	bl	8001b60 <HAL_GPIO_Init>
    
  /* UART RX GPIO pin configuration  */
  GPIO_InitStruct.Pin = USARTx_RX_PIN;
 8000934:	2308      	movs	r3, #8
 8000936:	61fb      	str	r3, [r7, #28]
  GPIO_InitStruct.Alternate = USARTx_RX_AF;
 8000938:	2307      	movs	r3, #7
 800093a:	62fb      	str	r3, [r7, #44]	; 0x2c
    
  HAL_GPIO_Init(USARTx_RX_GPIO_PORT, &GPIO_InitStruct);
 800093c:	f107 031c 	add.w	r3, r7, #28
 8000940:	4619      	mov	r1, r3
 8000942:	4845      	ldr	r0, [pc, #276]	; (8000a58 <HAL_UART_MspInit+0x1bc>)
 8000944:	f001 f90c 	bl	8001b60 <HAL_GPIO_Init>
    
  /*##-3- Configure the DMA streams ##########################################*/
  /* Configure the DMA handler for Transmission process */
  hdma_tx.Instance                 = USARTx_TX_DMA_STREAM;
 8000948:	4b44      	ldr	r3, [pc, #272]	; (8000a5c <HAL_UART_MspInit+0x1c0>)
 800094a:	4a45      	ldr	r2, [pc, #276]	; (8000a60 <HAL_UART_MspInit+0x1c4>)
 800094c:	601a      	str	r2, [r3, #0]
  
  hdma_tx.Init.Channel             = USARTx_TX_DMA_CHANNEL;
 800094e:	4b43      	ldr	r3, [pc, #268]	; (8000a5c <HAL_UART_MspInit+0x1c0>)
 8000950:	f04f 6200 	mov.w	r2, #134217728	; 0x8000000
 8000954:	605a      	str	r2, [r3, #4]
  hdma_tx.Init.Direction           = DMA_MEMORY_TO_PERIPH;
 8000956:	4b41      	ldr	r3, [pc, #260]	; (8000a5c <HAL_UART_MspInit+0x1c0>)
 8000958:	2240      	movs	r2, #64	; 0x40
 800095a:	609a      	str	r2, [r3, #8]
  hdma_tx.Init.PeriphInc           = DMA_PINC_DISABLE;
 800095c:	4b3f      	ldr	r3, [pc, #252]	; (8000a5c <HAL_UART_MspInit+0x1c0>)
 800095e:	2200      	movs	r2, #0
 8000960:	60da      	str	r2, [r3, #12]
  hdma_tx.Init.MemInc              = DMA_MINC_ENABLE;
 8000962:	4b3e      	ldr	r3, [pc, #248]	; (8000a5c <HAL_UART_MspInit+0x1c0>)
 8000964:	f44f 6280 	mov.w	r2, #1024	; 0x400
 8000968:	611a      	str	r2, [r3, #16]
  hdma_tx.Init.PeriphDataAlignment = DMA_PDATAALIGN_BYTE;
 800096a:	4b3c      	ldr	r3, [pc, #240]	; (8000a5c <HAL_UART_MspInit+0x1c0>)
 800096c:	2200      	movs	r2, #0
 800096e:	615a      	str	r2, [r3, #20]
  hdma_tx.Init.MemDataAlignment    = DMA_MDATAALIGN_BYTE;
 8000970:	4b3a      	ldr	r3, [pc, #232]	; (8000a5c <HAL_UART_MspInit+0x1c0>)
 8000972:	2200      	movs	r2, #0
 8000974:	619a      	str	r2, [r3, #24]
  hdma_tx.Init.Mode                = DMA_NORMAL;
 8000976:	4b39      	ldr	r3, [pc, #228]	; (8000a5c <HAL_UART_MspInit+0x1c0>)
 8000978:	2200      	movs	r2, #0
 800097a:	61da      	str	r2, [r3, #28]
  hdma_tx.Init.Priority            = DMA_PRIORITY_LOW;
 800097c:	4b37      	ldr	r3, [pc, #220]	; (8000a5c <HAL_UART_MspInit+0x1c0>)
 800097e:	2200      	movs	r2, #0
 8000980:	621a      	str	r2, [r3, #32]
  hdma_tx.Init.FIFOMode            = DMA_FIFOMODE_DISABLE;
 8000982:	4b36      	ldr	r3, [pc, #216]	; (8000a5c <HAL_UART_MspInit+0x1c0>)
 8000984:	2200      	movs	r2, #0
 8000986:	625a      	str	r2, [r3, #36]	; 0x24
  hdma_tx.Init.FIFOThreshold       = DMA_FIFO_THRESHOLD_FULL;
 8000988:	4b34      	ldr	r3, [pc, #208]	; (8000a5c <HAL_UART_MspInit+0x1c0>)
 800098a:	2203      	movs	r2, #3
 800098c:	629a      	str	r2, [r3, #40]	; 0x28
  hdma_tx.Init.MemBurst            = DMA_MBURST_INC4;
 800098e:	4b33      	ldr	r3, [pc, #204]	; (8000a5c <HAL_UART_MspInit+0x1c0>)
 8000990:	f44f 0200 	mov.w	r2, #8388608	; 0x800000
 8000994:	62da      	str	r2, [r3, #44]	; 0x2c
  hdma_tx.Init.PeriphBurst         = DMA_PBURST_INC4;
 8000996:	4b31      	ldr	r3, [pc, #196]	; (8000a5c <HAL_UART_MspInit+0x1c0>)
 8000998:	f44f 1200 	mov.w	r2, #2097152	; 0x200000
 800099c:	631a      	str	r2, [r3, #48]	; 0x30
  
  HAL_DMA_Init(&hdma_tx);   
 800099e:	482f      	ldr	r0, [pc, #188]	; (8000a5c <HAL_UART_MspInit+0x1c0>)
 80009a0:	f000 ff80 	bl	80018a4 <HAL_DMA_Init>
  
  /* Associate the initialized DMA handle to the the UART handle */
  __HAL_LINKDMA(huart, hdmatx, hdma_tx);
 80009a4:	687b      	ldr	r3, [r7, #4]
 80009a6:	4a2d      	ldr	r2, [pc, #180]	; (8000a5c <HAL_UART_MspInit+0x1c0>)
 80009a8:	635a      	str	r2, [r3, #52]	; 0x34
 80009aa:	4a2c      	ldr	r2, [pc, #176]	; (8000a5c <HAL_UART_MspInit+0x1c0>)
 80009ac:	687b      	ldr	r3, [r7, #4]
 80009ae:	6393      	str	r3, [r2, #56]	; 0x38
    
  /* Configure the DMA handler for Transmission process */
  hdma_rx.Instance                 = USARTx_RX_DMA_STREAM;
 80009b0:	4b2c      	ldr	r3, [pc, #176]	; (8000a64 <HAL_UART_MspInit+0x1c8>)
 80009b2:	4a2d      	ldr	r2, [pc, #180]	; (8000a68 <HAL_UART_MspInit+0x1cc>)
 80009b4:	601a      	str	r2, [r3, #0]
  
  hdma_rx.Init.Channel             = USARTx_RX_DMA_CHANNEL;
 80009b6:	4b2b      	ldr	r3, [pc, #172]	; (8000a64 <HAL_UART_MspInit+0x1c8>)
 80009b8:	f04f 6200 	mov.w	r2, #134217728	; 0x8000000
 80009bc:	605a      	str	r2, [r3, #4]
  hdma_rx.Init.Direction           = DMA_PERIPH_TO_MEMORY;
 80009be:	4b29      	ldr	r3, [pc, #164]	; (8000a64 <HAL_UART_MspInit+0x1c8>)
 80009c0:	2200      	movs	r2, #0
 80009c2:	609a      	str	r2, [r3, #8]
  hdma_rx.Init.PeriphInc           = DMA_PINC_DISABLE;
 80009c4:	4b27      	ldr	r3, [pc, #156]	; (8000a64 <HAL_UART_MspInit+0x1c8>)
 80009c6:	2200      	movs	r2, #0
 80009c8:	60da      	str	r2, [r3, #12]
  hdma_rx.Init.MemInc              = DMA_MINC_ENABLE;
 80009ca:	4b26      	ldr	r3, [pc, #152]	; (8000a64 <HAL_UART_MspInit+0x1c8>)
 80009cc:	f44f 6280 	mov.w	r2, #1024	; 0x400
 80009d0:	611a      	str	r2, [r3, #16]
  hdma_rx.Init.PeriphDataAlignment = DMA_PDATAALIGN_BYTE;
 80009d2:	4b24      	ldr	r3, [pc, #144]	; (8000a64 <HAL_UART_MspInit+0x1c8>)
 80009d4:	2200      	movs	r2, #0
 80009d6:	615a      	str	r2, [r3, #20]
  hdma_rx.Init.MemDataAlignment    = DMA_MDATAALIGN_BYTE;
 80009d8:	4b22      	ldr	r3, [pc, #136]	; (8000a64 <HAL_UART_MspInit+0x1c8>)
 80009da:	2200      	movs	r2, #0
 80009dc:	619a      	str	r2, [r3, #24]
  hdma_rx.Init.Mode                = DMA_NORMAL;
 80009de:	4b21      	ldr	r3, [pc, #132]	; (8000a64 <HAL_UART_MspInit+0x1c8>)
 80009e0:	2200      	movs	r2, #0
 80009e2:	61da      	str	r2, [r3, #28]
  hdma_rx.Init.Priority            = DMA_PRIORITY_HIGH;
 80009e4:	4b1f      	ldr	r3, [pc, #124]	; (8000a64 <HAL_UART_MspInit+0x1c8>)
 80009e6:	f44f 3200 	mov.w	r2, #131072	; 0x20000
 80009ea:	621a      	str	r2, [r3, #32]
  hdma_rx.Init.FIFOMode            = DMA_FIFOMODE_DISABLE;         
 80009ec:	4b1d      	ldr	r3, [pc, #116]	; (8000a64 <HAL_UART_MspInit+0x1c8>)
 80009ee:	2200      	movs	r2, #0
 80009f0:	625a      	str	r2, [r3, #36]	; 0x24
  hdma_rx.Init.FIFOThreshold       = DMA_FIFO_THRESHOLD_FULL;
 80009f2:	4b1c      	ldr	r3, [pc, #112]	; (8000a64 <HAL_UART_MspInit+0x1c8>)
 80009f4:	2203      	movs	r2, #3
 80009f6:	629a      	str	r2, [r3, #40]	; 0x28
  hdma_rx.Init.MemBurst            = DMA_MBURST_INC4;
 80009f8:	4b1a      	ldr	r3, [pc, #104]	; (8000a64 <HAL_UART_MspInit+0x1c8>)
 80009fa:	f44f 0200 	mov.w	r2, #8388608	; 0x800000
 80009fe:	62da      	str	r2, [r3, #44]	; 0x2c
  hdma_rx.Init.PeriphBurst         = DMA_PBURST_INC4; 
 8000a00:	4b18      	ldr	r3, [pc, #96]	; (8000a64 <HAL_UART_MspInit+0x1c8>)
 8000a02:	f44f 1200 	mov.w	r2, #2097152	; 0x200000
 8000a06:	631a      	str	r2, [r3, #48]	; 0x30

  HAL_DMA_Init(&hdma_rx);
 8000a08:	4816      	ldr	r0, [pc, #88]	; (8000a64 <HAL_UART_MspInit+0x1c8>)
 8000a0a:	f000 ff4b 	bl	80018a4 <HAL_DMA_Init>
    
  /* Associate the initialized DMA handle to the the UART handle */
  __HAL_LINKDMA(huart, hdmarx, hdma_rx);
 8000a0e:	687b      	ldr	r3, [r7, #4]
 8000a10:	4a14      	ldr	r2, [pc, #80]	; (8000a64 <HAL_UART_MspInit+0x1c8>)
 8000a12:	639a      	str	r2, [r3, #56]	; 0x38
 8000a14:	4a13      	ldr	r2, [pc, #76]	; (8000a64 <HAL_UART_MspInit+0x1c8>)
 8000a16:	687b      	ldr	r3, [r7, #4]
 8000a18:	6393      	str	r3, [r2, #56]	; 0x38
    
  /*##-4- Configure the NVIC for DMA #########################################*/
  /* NVIC configuration for DMA transfer complete interrupt (USARTx_TX) */
  HAL_NVIC_SetPriority(USARTx_DMA_TX_IRQn, 0, 1);
 8000a1a:	2201      	movs	r2, #1
 8000a1c:	2100      	movs	r1, #0
 8000a1e:	2011      	movs	r0, #17
 8000a20:	f000 fa9f 	bl	8000f62 <HAL_NVIC_SetPriority>
  HAL_NVIC_EnableIRQ(USARTx_DMA_TX_IRQn);
 8000a24:	2011      	movs	r0, #17
 8000a26:	f000 fab8 	bl	8000f9a <HAL_NVIC_EnableIRQ>
    
  /* NVIC configuration for DMA transfer complete interrupt (USARTx_RX) */
  HAL_NVIC_SetPriority(USARTx_DMA_RX_IRQn, 0, 0);   
 8000a2a:	2200      	movs	r2, #0
 8000a2c:	2100      	movs	r1, #0
 8000a2e:	2010      	movs	r0, #16
 8000a30:	f000 fa97 	bl	8000f62 <HAL_NVIC_SetPriority>
  HAL_NVIC_EnableIRQ(USARTx_DMA_RX_IRQn);
 8000a34:	2010      	movs	r0, #16
 8000a36:	f000 fab0 	bl	8000f9a <HAL_NVIC_EnableIRQ>
  
  /* NVIC configuration for USART TC interrupt */
  HAL_NVIC_SetPriority(USARTx_IRQn, 0, 0);
 8000a3a:	2200      	movs	r2, #0
 8000a3c:	2100      	movs	r1, #0
 8000a3e:	2026      	movs	r0, #38	; 0x26
 8000a40:	f000 fa8f 	bl	8000f62 <HAL_NVIC_SetPriority>
  HAL_NVIC_EnableIRQ(USARTx_IRQn);
 8000a44:	2026      	movs	r0, #38	; 0x26
 8000a46:	f000 faa8 	bl	8000f9a <HAL_NVIC_EnableIRQ>
}
 8000a4a:	bf00      	nop
 8000a4c:	3730      	adds	r7, #48	; 0x30
 8000a4e:	46bd      	mov	sp, r7
 8000a50:	bd80      	pop	{r7, pc}
 8000a52:	bf00      	nop
 8000a54:	40023800 	.word	0x40023800
 8000a58:	40020000 	.word	0x40020000
 8000a5c:	20000a34 	.word	0x20000a34
 8000a60:	400260a0 	.word	0x400260a0
 8000a64:	20000a94 	.word	0x20000a94
 8000a68:	40026088 	.word	0x40026088

08000a6c <NMI_Handler>:
  * @brief  This function handles NMI exception.
  * @param  None
  * @retval None
  */
void NMI_Handler(void)
{
 8000a6c:	b480      	push	{r7}
 8000a6e:	af00      	add	r7, sp, #0
}
 8000a70:	bf00      	nop
 8000a72:	46bd      	mov	sp, r7
 8000a74:	f85d 7b04 	ldr.w	r7, [sp], #4
 8000a78:	4770      	bx	lr
	...

08000a7c <HardFault_Handler>:
  * @brief  This function handles Hard Fault exception.
  * @param  None
  * @retval None
  */
void HardFault_Handler(void)
{
 8000a7c:	b580      	push	{r7, lr}
 8000a7e:	af00      	add	r7, sp, #0
  printf("[%s]\n", __func__);
 8000a80:	4902      	ldr	r1, [pc, #8]	; (8000a8c <HardFault_Handler+0x10>)
 8000a82:	4803      	ldr	r0, [pc, #12]	; (8000a90 <HardFault_Handler+0x14>)
 8000a84:	f002 f812 	bl	8002aac <printf>
  // __asm volatile (
  //   "MOV     r0, lr\n"                 /* get lr */
  //   "MOV     r1, sp\n"                  /* get stack pointer (current is MSP) */
  //   "BL      cm_backtrace_fault\n"
  // );
  for(;;);
 8000a88:	e7fe      	b.n	8000a88 <HardFault_Handler+0xc>
 8000a8a:	bf00      	nop
 8000a8c:	08007bf0 	.word	0x08007bf0
 8000a90:	08007be8 	.word	0x08007be8

08000a94 <MemManage_Handler>:
  * @brief  This function handles Memory Manage exception.
  * @param  None
  * @retval None
  */
void MemManage_Handler(void)
{
 8000a94:	b480      	push	{r7}
 8000a96:	af00      	add	r7, sp, #0
  /* Go to infinite loop when Memory Manage exception occurs */
  while (1)
 8000a98:	e7fe      	b.n	8000a98 <MemManage_Handler+0x4>

08000a9a <BusFault_Handler>:
  * @brief  This function handles Bus Fault exception.
  * @param  None
  * @retval None
  */
void BusFault_Handler(void)
{
 8000a9a:	b480      	push	{r7}
 8000a9c:	af00      	add	r7, sp, #0
  /* Go to infinite loop when Bus Fault exception occurs */
  while (1)
 8000a9e:	e7fe      	b.n	8000a9e <BusFault_Handler+0x4>

08000aa0 <UsageFault_Handler>:
  * @brief  This function handles Usage Fault exception.
  * @param  None
  * @retval None
  */
void UsageFault_Handler(void)
{
 8000aa0:	b480      	push	{r7}
 8000aa2:	af00      	add	r7, sp, #0
  /* Go to infinite loop when Usage Fault exception occurs */
  while (1)
 8000aa4:	e7fe      	b.n	8000aa4 <UsageFault_Handler+0x4>

08000aa6 <SVC_Handler>:
  * @brief  This function handles SVCall exception.
  * @param  None
  * @retval None
  */
void SVC_Handler(void)
{
 8000aa6:	b480      	push	{r7}
 8000aa8:	af00      	add	r7, sp, #0
}
 8000aaa:	bf00      	nop
 8000aac:	46bd      	mov	sp, r7
 8000aae:	f85d 7b04 	ldr.w	r7, [sp], #4
 8000ab2:	4770      	bx	lr

08000ab4 <DebugMon_Handler>:
  * @brief  This function handles Debug Monitor exception.
  * @param  None
  * @retval None
  */
void DebugMon_Handler(void)
{
 8000ab4:	b480      	push	{r7}
 8000ab6:	af00      	add	r7, sp, #0
}
 8000ab8:	bf00      	nop
 8000aba:	46bd      	mov	sp, r7
 8000abc:	f85d 7b04 	ldr.w	r7, [sp], #4
 8000ac0:	4770      	bx	lr

08000ac2 <SysTick_Handler>:
  * @brief  This function handles SysTick Handler.
  * @param  None
  * @retval None
  */
void SysTick_Handler(void)
{
 8000ac2:	b580      	push	{r7, lr}
 8000ac4:	af00      	add	r7, sp, #0
  HAL_IncTick();
 8000ac6:	f000 f923 	bl	8000d10 <HAL_IncTick>
}
 8000aca:	bf00      	nop
 8000acc:	bd80      	pop	{r7, pc}

08000ace <_read>:
	_kill(status, -1);
	while (1) {}		/* Make sure we hang here */
}

int _read (int file, char *ptr, int len)
{
 8000ace:	b580      	push	{r7, lr}
 8000ad0:	b086      	sub	sp, #24
 8000ad2:	af00      	add	r7, sp, #0
 8000ad4:	60f8      	str	r0, [r7, #12]
 8000ad6:	60b9      	str	r1, [r7, #8]
 8000ad8:	607a      	str	r2, [r7, #4]
	int DataIdx;

	for (DataIdx = 0; DataIdx < len; DataIdx++)
 8000ada:	2300      	movs	r3, #0
 8000adc:	617b      	str	r3, [r7, #20]
 8000ade:	e00a      	b.n	8000af6 <_read+0x28>
	{
		*ptr++ = __io_getchar();
 8000ae0:	f3af 8000 	nop.w
 8000ae4:	4601      	mov	r1, r0
 8000ae6:	68bb      	ldr	r3, [r7, #8]
 8000ae8:	1c5a      	adds	r2, r3, #1
 8000aea:	60ba      	str	r2, [r7, #8]
 8000aec:	b2ca      	uxtb	r2, r1
 8000aee:	701a      	strb	r2, [r3, #0]
	for (DataIdx = 0; DataIdx < len; DataIdx++)
 8000af0:	697b      	ldr	r3, [r7, #20]
 8000af2:	3301      	adds	r3, #1
 8000af4:	617b      	str	r3, [r7, #20]
 8000af6:	697a      	ldr	r2, [r7, #20]
 8000af8:	687b      	ldr	r3, [r7, #4]
 8000afa:	429a      	cmp	r2, r3
 8000afc:	dbf0      	blt.n	8000ae0 <_read+0x12>
	}

return len;
 8000afe:	687b      	ldr	r3, [r7, #4]
}
 8000b00:	4618      	mov	r0, r3
 8000b02:	3718      	adds	r7, #24
 8000b04:	46bd      	mov	sp, r7
 8000b06:	bd80      	pop	{r7, pc}

08000b08 <_write>:

int _write(int file, char *ptr, int len)
{
 8000b08:	b580      	push	{r7, lr}
 8000b0a:	b086      	sub	sp, #24
 8000b0c:	af00      	add	r7, sp, #0
 8000b0e:	60f8      	str	r0, [r7, #12]
 8000b10:	60b9      	str	r1, [r7, #8]
 8000b12:	607a      	str	r2, [r7, #4]
	int DataIdx;

	for (DataIdx = 0; DataIdx < len; DataIdx++)
 8000b14:	2300      	movs	r3, #0
 8000b16:	617b      	str	r3, [r7, #20]
 8000b18:	e009      	b.n	8000b2e <_write+0x26>
	{
		__io_putchar(*ptr++);
 8000b1a:	68bb      	ldr	r3, [r7, #8]
 8000b1c:	1c5a      	adds	r2, r3, #1
 8000b1e:	60ba      	str	r2, [r7, #8]
 8000b20:	781b      	ldrb	r3, [r3, #0]
 8000b22:	4618      	mov	r0, r3
 8000b24:	f7ff fc2a 	bl	800037c <__io_putchar>
	for (DataIdx = 0; DataIdx < len; DataIdx++)
 8000b28:	697b      	ldr	r3, [r7, #20]
 8000b2a:	3301      	adds	r3, #1
 8000b2c:	617b      	str	r3, [r7, #20]
 8000b2e:	697a      	ldr	r2, [r7, #20]
 8000b30:	687b      	ldr	r3, [r7, #4]
 8000b32:	429a      	cmp	r2, r3
 8000b34:	dbf1      	blt.n	8000b1a <_write+0x12>
	}
	return len;
 8000b36:	687b      	ldr	r3, [r7, #4]
}
 8000b38:	4618      	mov	r0, r3
 8000b3a:	3718      	adds	r7, #24
 8000b3c:	46bd      	mov	sp, r7
 8000b3e:	bd80      	pop	{r7, pc}

08000b40 <_sbrk>:

caddr_t _sbrk(int incr)
{
 8000b40:	b580      	push	{r7, lr}
 8000b42:	b084      	sub	sp, #16
 8000b44:	af00      	add	r7, sp, #0
 8000b46:	6078      	str	r0, [r7, #4]
	extern char end asm("end");
	static char *heap_end;
	char *prev_heap_end;

	if (heap_end == 0)
 8000b48:	4b11      	ldr	r3, [pc, #68]	; (8000b90 <_sbrk+0x50>)
 8000b4a:	681b      	ldr	r3, [r3, #0]
 8000b4c:	2b00      	cmp	r3, #0
 8000b4e:	d102      	bne.n	8000b56 <_sbrk+0x16>
		heap_end = &end;
 8000b50:	4b0f      	ldr	r3, [pc, #60]	; (8000b90 <_sbrk+0x50>)
 8000b52:	4a10      	ldr	r2, [pc, #64]	; (8000b94 <_sbrk+0x54>)
 8000b54:	601a      	str	r2, [r3, #0]

	prev_heap_end = heap_end;
 8000b56:	4b0e      	ldr	r3, [pc, #56]	; (8000b90 <_sbrk+0x50>)
 8000b58:	681b      	ldr	r3, [r3, #0]
 8000b5a:	60fb      	str	r3, [r7, #12]
	if (heap_end + incr > stack_ptr)
 8000b5c:	4b0c      	ldr	r3, [pc, #48]	; (8000b90 <_sbrk+0x50>)
 8000b5e:	681a      	ldr	r2, [r3, #0]
 8000b60:	687b      	ldr	r3, [r7, #4]
 8000b62:	4413      	add	r3, r2
 8000b64:	466a      	mov	r2, sp
 8000b66:	4293      	cmp	r3, r2
 8000b68:	d907      	bls.n	8000b7a <_sbrk+0x3a>
	{
//		write(1, "Heap and stack collision\n", 25);
//		abort();
		errno = ENOMEM;
 8000b6a:	f001 fe91 	bl	8002890 <__errno>
 8000b6e:	4602      	mov	r2, r0
 8000b70:	230c      	movs	r3, #12
 8000b72:	6013      	str	r3, [r2, #0]
		return (caddr_t) -1;
 8000b74:	f04f 33ff 	mov.w	r3, #4294967295
 8000b78:	e006      	b.n	8000b88 <_sbrk+0x48>
	}

	heap_end += incr;
 8000b7a:	4b05      	ldr	r3, [pc, #20]	; (8000b90 <_sbrk+0x50>)
 8000b7c:	681a      	ldr	r2, [r3, #0]
 8000b7e:	687b      	ldr	r3, [r7, #4]
 8000b80:	4413      	add	r3, r2
 8000b82:	4a03      	ldr	r2, [pc, #12]	; (8000b90 <_sbrk+0x50>)
 8000b84:	6013      	str	r3, [r2, #0]

	return (caddr_t) prev_heap_end;
 8000b86:	68fb      	ldr	r3, [r7, #12]
}
 8000b88:	4618      	mov	r0, r3
 8000b8a:	3710      	adds	r7, #16
 8000b8c:	46bd      	mov	sp, r7
 8000b8e:	bd80      	pop	{r7, pc}
 8000b90:	20000af4 	.word	0x20000af4
 8000b94:	20000b9c 	.word	0x20000b9c

08000b98 <_close>:

int _close(int file)
{
 8000b98:	b480      	push	{r7}
 8000b9a:	b083      	sub	sp, #12
 8000b9c:	af00      	add	r7, sp, #0
 8000b9e:	6078      	str	r0, [r7, #4]
	return -1;
 8000ba0:	f04f 33ff 	mov.w	r3, #4294967295
}
 8000ba4:	4618      	mov	r0, r3
 8000ba6:	370c      	adds	r7, #12
 8000ba8:	46bd      	mov	sp, r7
 8000baa:	f85d 7b04 	ldr.w	r7, [sp], #4
 8000bae:	4770      	bx	lr

08000bb0 <_fstat>:


int _fstat(int file, struct stat *st)
{
 8000bb0:	b480      	push	{r7}
 8000bb2:	b083      	sub	sp, #12
 8000bb4:	af00      	add	r7, sp, #0
 8000bb6:	6078      	str	r0, [r7, #4]
 8000bb8:	6039      	str	r1, [r7, #0]
	st->st_mode = S_IFCHR;
 8000bba:	683b      	ldr	r3, [r7, #0]
 8000bbc:	f44f 5200 	mov.w	r2, #8192	; 0x2000
 8000bc0:	605a      	str	r2, [r3, #4]
	return 0;
 8000bc2:	2300      	movs	r3, #0
}
 8000bc4:	4618      	mov	r0, r3
 8000bc6:	370c      	adds	r7, #12
 8000bc8:	46bd      	mov	sp, r7
 8000bca:	f85d 7b04 	ldr.w	r7, [sp], #4
 8000bce:	4770      	bx	lr

08000bd0 <_isatty>:

int _isatty(int file)
{
 8000bd0:	b480      	push	{r7}
 8000bd2:	b083      	sub	sp, #12
 8000bd4:	af00      	add	r7, sp, #0
 8000bd6:	6078      	str	r0, [r7, #4]
	return 1;
 8000bd8:	2301      	movs	r3, #1
}
 8000bda:	4618      	mov	r0, r3
 8000bdc:	370c      	adds	r7, #12
 8000bde:	46bd      	mov	sp, r7
 8000be0:	f85d 7b04 	ldr.w	r7, [sp], #4
 8000be4:	4770      	bx	lr

08000be6 <_lseek>:

int _lseek(int file, int ptr, int dir)
{
 8000be6:	b480      	push	{r7}
 8000be8:	b085      	sub	sp, #20
 8000bea:	af00      	add	r7, sp, #0
 8000bec:	60f8      	str	r0, [r7, #12]
 8000bee:	60b9      	str	r1, [r7, #8]
 8000bf0:	607a      	str	r2, [r7, #4]
	return 0;
 8000bf2:	2300      	movs	r3, #0
}
 8000bf4:	4618      	mov	r0, r3
 8000bf6:	3714      	adds	r7, #20
 8000bf8:	46bd      	mov	sp, r7
 8000bfa:	f85d 7b04 	ldr.w	r7, [sp], #4
 8000bfe:	4770      	bx	lr

08000c00 <SystemInit>:
  *         configuration.
  * @param  None
  * @retval None
  */
void SystemInit(void)
{
 8000c00:	b480      	push	{r7}
 8000c02:	af00      	add	r7, sp, #0
  /* FPU settings ------------------------------------------------------------*/
  #if (__FPU_PRESENT == 1) && (__FPU_USED == 1)
    SCB->CPACR |= ((3UL << 10*2)|(3UL << 11*2));  /* set CP10 and CP11 Full Access */
 8000c04:	4b16      	ldr	r3, [pc, #88]	; (8000c60 <SystemInit+0x60>)
 8000c06:	f8d3 3088 	ldr.w	r3, [r3, #136]	; 0x88
 8000c0a:	4a15      	ldr	r2, [pc, #84]	; (8000c60 <SystemInit+0x60>)
 8000c0c:	f443 0370 	orr.w	r3, r3, #15728640	; 0xf00000
 8000c10:	f8c2 3088 	str.w	r3, [r2, #136]	; 0x88
  #endif
  /* Reset the RCC clock configuration to the default reset state ------------*/
  /* Set HSION bit */
  RCC->CR |= (uint32_t)0x00000001;
 8000c14:	4b13      	ldr	r3, [pc, #76]	; (8000c64 <SystemInit+0x64>)
 8000c16:	681b      	ldr	r3, [r3, #0]
 8000c18:	4a12      	ldr	r2, [pc, #72]	; (8000c64 <SystemInit+0x64>)
 8000c1a:	f043 0301 	orr.w	r3, r3, #1
 8000c1e:	6013      	str	r3, [r2, #0]

  /* Reset CFGR register */
  RCC->CFGR = 0x00000000;
 8000c20:	4b10      	ldr	r3, [pc, #64]	; (8000c64 <SystemInit+0x64>)
 8000c22:	2200      	movs	r2, #0
 8000c24:	609a      	str	r2, [r3, #8]

  /* Reset HSEON, CSSON and PLLON bits */
  RCC->CR &= (uint32_t)0xFEF6FFFF;
 8000c26:	4b0f      	ldr	r3, [pc, #60]	; (8000c64 <SystemInit+0x64>)
 8000c28:	681b      	ldr	r3, [r3, #0]
 8000c2a:	4a0e      	ldr	r2, [pc, #56]	; (8000c64 <SystemInit+0x64>)
 8000c2c:	f023 7384 	bic.w	r3, r3, #17301504	; 0x1080000
 8000c30:	f423 3380 	bic.w	r3, r3, #65536	; 0x10000
 8000c34:	6013      	str	r3, [r2, #0]

  /* Reset PLLCFGR register */
  RCC->PLLCFGR = 0x24003010;
 8000c36:	4b0b      	ldr	r3, [pc, #44]	; (8000c64 <SystemInit+0x64>)
 8000c38:	4a0b      	ldr	r2, [pc, #44]	; (8000c68 <SystemInit+0x68>)
 8000c3a:	605a      	str	r2, [r3, #4]

  /* Reset HSEBYP bit */
  RCC->CR &= (uint32_t)0xFFFBFFFF;
 8000c3c:	4b09      	ldr	r3, [pc, #36]	; (8000c64 <SystemInit+0x64>)
 8000c3e:	681b      	ldr	r3, [r3, #0]
 8000c40:	4a08      	ldr	r2, [pc, #32]	; (8000c64 <SystemInit+0x64>)
 8000c42:	f423 2380 	bic.w	r3, r3, #262144	; 0x40000
 8000c46:	6013      	str	r3, [r2, #0]

  /* Disable all interrupts */
  RCC->CIR = 0x00000000;
 8000c48:	4b06      	ldr	r3, [pc, #24]	; (8000c64 <SystemInit+0x64>)
 8000c4a:	2200      	movs	r2, #0
 8000c4c:	60da      	str	r2, [r3, #12]

  /* Configure the Vector Table location add offset address ------------------*/
#ifdef VECT_TAB_SRAM
  SCB->VTOR = SRAM_BASE | VECT_TAB_OFFSET; /* Vector Table Relocation in Internal SRAM */
#else
  SCB->VTOR = FLASH_BASE | VECT_TAB_OFFSET; /* Vector Table Relocation in Internal FLASH */
 8000c4e:	4b04      	ldr	r3, [pc, #16]	; (8000c60 <SystemInit+0x60>)
 8000c50:	f04f 6200 	mov.w	r2, #134217728	; 0x8000000
 8000c54:	609a      	str	r2, [r3, #8]
#endif
}
 8000c56:	bf00      	nop
 8000c58:	46bd      	mov	sp, r7
 8000c5a:	f85d 7b04 	ldr.w	r7, [sp], #4
 8000c5e:	4770      	bx	lr
 8000c60:	e000ed00 	.word	0xe000ed00
 8000c64:	40023800 	.word	0x40023800
 8000c68:	24003010 	.word	0x24003010

08000c6c <HAL_Init>:
  *         need to ensure that the SysTick time base is always set to 1 millisecond
  *         to have correct HAL operation.
  * @retval HAL status
  */
HAL_StatusTypeDef HAL_Init(void)
{
 8000c6c:	b580      	push	{r7, lr}
 8000c6e:	af00      	add	r7, sp, #0
  /* Configure Flash prefetch, Instruction cache, Data cache */ 
#if (INSTRUCTION_CACHE_ENABLE != 0U)
  __HAL_FLASH_INSTRUCTION_CACHE_ENABLE();
 8000c70:	4b0e      	ldr	r3, [pc, #56]	; (8000cac <HAL_Init+0x40>)
 8000c72:	681b      	ldr	r3, [r3, #0]
 8000c74:	4a0d      	ldr	r2, [pc, #52]	; (8000cac <HAL_Init+0x40>)
 8000c76:	f443 7300 	orr.w	r3, r3, #512	; 0x200
 8000c7a:	6013      	str	r3, [r2, #0]
#endif /* INSTRUCTION_CACHE_ENABLE */

#if (DATA_CACHE_ENABLE != 0U)
  __HAL_FLASH_DATA_CACHE_ENABLE();
 8000c7c:	4b0b      	ldr	r3, [pc, #44]	; (8000cac <HAL_Init+0x40>)
 8000c7e:	681b      	ldr	r3, [r3, #0]
 8000c80:	4a0a      	ldr	r2, [pc, #40]	; (8000cac <HAL_Init+0x40>)
 8000c82:	f443 6380 	orr.w	r3, r3, #1024	; 0x400
 8000c86:	6013      	str	r3, [r2, #0]
#endif /* DATA_CACHE_ENABLE */

#if (PREFETCH_ENABLE != 0U)
  __HAL_FLASH_PREFETCH_BUFFER_ENABLE();
 8000c88:	4b08      	ldr	r3, [pc, #32]	; (8000cac <HAL_Init+0x40>)
 8000c8a:	681b      	ldr	r3, [r3, #0]
 8000c8c:	4a07      	ldr	r2, [pc, #28]	; (8000cac <HAL_Init+0x40>)
 8000c8e:	f443 7380 	orr.w	r3, r3, #256	; 0x100
 8000c92:	6013      	str	r3, [r2, #0]
#endif /* PREFETCH_ENABLE */

  /* Set Interrupt Group Priority */
  HAL_NVIC_SetPriorityGrouping(NVIC_PRIORITYGROUP_4);
 8000c94:	2003      	movs	r0, #3
 8000c96:	f000 f959 	bl	8000f4c <HAL_NVIC_SetPriorityGrouping>

  /* Use systick as time base source and configure 1ms tick (default clock after Reset is HSI) */
  HAL_InitTick(TICK_INT_PRIORITY);
 8000c9a:	200f      	movs	r0, #15
 8000c9c:	f000 f808 	bl	8000cb0 <HAL_InitTick>

  /* Init the low level hardware */
  HAL_MspInit();
 8000ca0:	f000 f87c 	bl	8000d9c <HAL_MspInit>

  /* Return function status */
  return HAL_OK;
 8000ca4:	2300      	movs	r3, #0
}
 8000ca6:	4618      	mov	r0, r3
 8000ca8:	bd80      	pop	{r7, pc}
 8000caa:	bf00      	nop
 8000cac:	40023c00 	.word	0x40023c00

08000cb0 <HAL_InitTick>:
  *       implementation  in user file.
  * @param TickPriority Tick interrupt priority.
  * @retval HAL status
  */
__weak HAL_StatusTypeDef HAL_InitTick(uint32_t TickPriority)
{
 8000cb0:	b580      	push	{r7, lr}
 8000cb2:	b082      	sub	sp, #8
 8000cb4:	af00      	add	r7, sp, #0
 8000cb6:	6078      	str	r0, [r7, #4]
  /* Configure the SysTick to have interrupt in 1ms time basis*/
  if (HAL_SYSTICK_Config(SystemCoreClock / (1000U / uwTickFreq)) > 0U)
 8000cb8:	4b12      	ldr	r3, [pc, #72]	; (8000d04 <HAL_InitTick+0x54>)
 8000cba:	681a      	ldr	r2, [r3, #0]
 8000cbc:	4b12      	ldr	r3, [pc, #72]	; (8000d08 <HAL_InitTick+0x58>)
 8000cbe:	781b      	ldrb	r3, [r3, #0]
 8000cc0:	4619      	mov	r1, r3
 8000cc2:	f44f 737a 	mov.w	r3, #1000	; 0x3e8
 8000cc6:	fbb3 f3f1 	udiv	r3, r3, r1
 8000cca:	fbb2 f3f3 	udiv	r3, r2, r3
 8000cce:	4618      	mov	r0, r3
 8000cd0:	f000 f971 	bl	8000fb6 <HAL_SYSTICK_Config>
 8000cd4:	4603      	mov	r3, r0
 8000cd6:	2b00      	cmp	r3, #0
 8000cd8:	d001      	beq.n	8000cde <HAL_InitTick+0x2e>
  {
    return HAL_ERROR;
 8000cda:	2301      	movs	r3, #1
 8000cdc:	e00e      	b.n	8000cfc <HAL_InitTick+0x4c>
  }

  /* Configure the SysTick IRQ priority */
  if (TickPriority < (1UL << __NVIC_PRIO_BITS))
 8000cde:	687b      	ldr	r3, [r7, #4]
 8000ce0:	2b0f      	cmp	r3, #15
 8000ce2:	d80a      	bhi.n	8000cfa <HAL_InitTick+0x4a>
  {
    HAL_NVIC_SetPriority(SysTick_IRQn, TickPriority, 0U);
 8000ce4:	2200      	movs	r2, #0
 8000ce6:	6879      	ldr	r1, [r7, #4]
 8000ce8:	f04f 30ff 	mov.w	r0, #4294967295
 8000cec:	f000 f939 	bl	8000f62 <HAL_NVIC_SetPriority>
    uwTickPrio = TickPriority;
 8000cf0:	4a06      	ldr	r2, [pc, #24]	; (8000d0c <HAL_InitTick+0x5c>)
 8000cf2:	687b      	ldr	r3, [r7, #4]
 8000cf4:	6013      	str	r3, [r2, #0]
  {
    return HAL_ERROR;
  }

  /* Return function status */
  return HAL_OK;
 8000cf6:	2300      	movs	r3, #0
 8000cf8:	e000      	b.n	8000cfc <HAL_InitTick+0x4c>
    return HAL_ERROR;
 8000cfa:	2301      	movs	r3, #1
}
 8000cfc:	4618      	mov	r0, r3
 8000cfe:	3708      	adds	r7, #8
 8000d00:	46bd      	mov	sp, r7
 8000d02:	bd80      	pop	{r7, pc}
 8000d04:	20000000 	.word	0x20000000
 8000d08:	20000008 	.word	0x20000008
 8000d0c:	20000004 	.word	0x20000004

08000d10 <HAL_IncTick>:
 * @note This function is declared as __weak to be overwritten in case of other 
  *      implementations in user file.
  * @retval None
  */
__weak void HAL_IncTick(void)
{
 8000d10:	b480      	push	{r7}
 8000d12:	af00      	add	r7, sp, #0
  uwTick += uwTickFreq;
 8000d14:	4b06      	ldr	r3, [pc, #24]	; (8000d30 <HAL_IncTick+0x20>)
 8000d16:	781b      	ldrb	r3, [r3, #0]
 8000d18:	461a      	mov	r2, r3
 8000d1a:	4b06      	ldr	r3, [pc, #24]	; (8000d34 <HAL_IncTick+0x24>)
 8000d1c:	681b      	ldr	r3, [r3, #0]
 8000d1e:	4413      	add	r3, r2
 8000d20:	4a04      	ldr	r2, [pc, #16]	; (8000d34 <HAL_IncTick+0x24>)
 8000d22:	6013      	str	r3, [r2, #0]
}
 8000d24:	bf00      	nop
 8000d26:	46bd      	mov	sp, r7
 8000d28:	f85d 7b04 	ldr.w	r7, [sp], #4
 8000d2c:	4770      	bx	lr
 8000d2e:	bf00      	nop
 8000d30:	20000008 	.word	0x20000008
 8000d34:	20000b70 	.word	0x20000b70

08000d38 <HAL_GetTick>:
  * @note This function is declared as __weak to be overwritten in case of other 
  *       implementations in user file.
  * @retval tick value
  */
__weak uint32_t HAL_GetTick(void)
{
 8000d38:	b480      	push	{r7}
 8000d3a:	af00      	add	r7, sp, #0
  return uwTick;
 8000d3c:	4b03      	ldr	r3, [pc, #12]	; (8000d4c <HAL_GetTick+0x14>)
 8000d3e:	681b      	ldr	r3, [r3, #0]
}
 8000d40:	4618      	mov	r0, r3
 8000d42:	46bd      	mov	sp, r7
 8000d44:	f85d 7b04 	ldr.w	r7, [sp], #4
 8000d48:	4770      	bx	lr
 8000d4a:	bf00      	nop
 8000d4c:	20000b70 	.word	0x20000b70

08000d50 <HAL_Delay>:
  *       implementations in user file.
  * @param Delay specifies the delay time length, in milliseconds.
  * @retval None
  */
__weak void HAL_Delay(uint32_t Delay)
{
 8000d50:	b580      	push	{r7, lr}
 8000d52:	b086      	sub	sp, #24
 8000d54:	af00      	add	r7, sp, #0
 8000d56:	6078      	str	r0, [r7, #4]
  uint32_t tickstart = HAL_GetTick();
 8000d58:	f7ff ffee 	bl	8000d38 <HAL_GetTick>
 8000d5c:	60f8      	str	r0, [r7, #12]
  uint32_t wait = Delay;
 8000d5e:	687b      	ldr	r3, [r7, #4]
 8000d60:	617b      	str	r3, [r7, #20]
  uint32_t tickend;
  /* Add a freq to guarantee minimum wait */
  if (wait < HAL_MAX_DELAY)
 8000d62:	697b      	ldr	r3, [r7, #20]
 8000d64:	f1b3 3fff 	cmp.w	r3, #4294967295
 8000d68:	d005      	beq.n	8000d76 <HAL_Delay+0x26>
  {
    wait += (uint32_t)(uwTickFreq);
 8000d6a:	4b0b      	ldr	r3, [pc, #44]	; (8000d98 <HAL_Delay+0x48>)
 8000d6c:	781b      	ldrb	r3, [r3, #0]
 8000d6e:	461a      	mov	r2, r3
 8000d70:	697b      	ldr	r3, [r7, #20]
 8000d72:	4413      	add	r3, r2
 8000d74:	617b      	str	r3, [r7, #20]
  }
  tickend = HAL_GetTick();
 8000d76:	f7ff ffdf 	bl	8000d38 <HAL_GetTick>
 8000d7a:	6138      	str	r0, [r7, #16]
  while((tickend - tickstart) < wait)
 8000d7c:	e002      	b.n	8000d84 <HAL_Delay+0x34>
  {
    tickend = HAL_GetTick();
 8000d7e:	f7ff ffdb 	bl	8000d38 <HAL_GetTick>
 8000d82:	6138      	str	r0, [r7, #16]
  while((tickend - tickstart) < wait)
 8000d84:	693a      	ldr	r2, [r7, #16]
 8000d86:	68fb      	ldr	r3, [r7, #12]
 8000d88:	1ad3      	subs	r3, r2, r3
 8000d8a:	697a      	ldr	r2, [r7, #20]
 8000d8c:	429a      	cmp	r2, r3
 8000d8e:	d8f6      	bhi.n	8000d7e <HAL_Delay+0x2e>
  }
}
 8000d90:	bf00      	nop
 8000d92:	3718      	adds	r7, #24
 8000d94:	46bd      	mov	sp, r7
 8000d96:	bd80      	pop	{r7, pc}
 8000d98:	20000008 	.word	0x20000008

08000d9c <HAL_MspInit>:
  * @note   This function is called from HAL_Init() function to perform system
  *         level initialization (GPIOs, clock, DMA, interrupt).
  * @retval None
  */
void HAL_MspInit(void)
{
 8000d9c:	b480      	push	{r7}
 8000d9e:	af00      	add	r7, sp, #0

}
 8000da0:	bf00      	nop
 8000da2:	46bd      	mov	sp, r7
 8000da4:	f85d 7b04 	ldr.w	r7, [sp], #4
 8000da8:	4770      	bx	lr
	...

08000dac <__NVIC_SetPriorityGrouping>:
           In case of a conflict between priority grouping and available
           priority bits (__NVIC_PRIO_BITS), the smallest possible priority group is set.
  \param [in]      PriorityGroup  Priority grouping field.
 */
__STATIC_INLINE void __NVIC_SetPriorityGrouping(uint32_t PriorityGroup)
{
 8000dac:	b480      	push	{r7}
 8000dae:	b085      	sub	sp, #20
 8000db0:	af00      	add	r7, sp, #0
 8000db2:	6078      	str	r0, [r7, #4]
  uint32_t reg_value;
  uint32_t PriorityGroupTmp = (PriorityGroup & (uint32_t)0x07UL);             /* only values 0..7 are used          */
 8000db4:	687b      	ldr	r3, [r7, #4]
 8000db6:	f003 0307 	and.w	r3, r3, #7
 8000dba:	60fb      	str	r3, [r7, #12]

  reg_value  =  SCB->AIRCR;                                                   /* read old register configuration    */
 8000dbc:	4b0c      	ldr	r3, [pc, #48]	; (8000df0 <__NVIC_SetPriorityGrouping+0x44>)
 8000dbe:	68db      	ldr	r3, [r3, #12]
 8000dc0:	60bb      	str	r3, [r7, #8]
  reg_value &= ~((uint32_t)(SCB_AIRCR_VECTKEY_Msk | SCB_AIRCR_PRIGROUP_Msk)); /* clear bits to change               */
 8000dc2:	68ba      	ldr	r2, [r7, #8]
 8000dc4:	f64f 03ff 	movw	r3, #63743	; 0xf8ff
 8000dc8:	4013      	ands	r3, r2
 8000dca:	60bb      	str	r3, [r7, #8]
  reg_value  =  (reg_value                                   |
                ((uint32_t)0x5FAUL << SCB_AIRCR_VECTKEY_Pos) |
                (PriorityGroupTmp << SCB_AIRCR_PRIGROUP_Pos)  );              /* Insert write key and priority group */
 8000dcc:	68fb      	ldr	r3, [r7, #12]
 8000dce:	021a      	lsls	r2, r3, #8
                ((uint32_t)0x5FAUL << SCB_AIRCR_VECTKEY_Pos) |
 8000dd0:	68bb      	ldr	r3, [r7, #8]
 8000dd2:	4313      	orrs	r3, r2
  reg_value  =  (reg_value                                   |
 8000dd4:	f043 63bf 	orr.w	r3, r3, #100139008	; 0x5f80000
 8000dd8:	f443 3300 	orr.w	r3, r3, #131072	; 0x20000
 8000ddc:	60bb      	str	r3, [r7, #8]
  SCB->AIRCR =  reg_value;
 8000dde:	4a04      	ldr	r2, [pc, #16]	; (8000df0 <__NVIC_SetPriorityGrouping+0x44>)
 8000de0:	68bb      	ldr	r3, [r7, #8]
 8000de2:	60d3      	str	r3, [r2, #12]
}
 8000de4:	bf00      	nop
 8000de6:	3714      	adds	r7, #20
 8000de8:	46bd      	mov	sp, r7
 8000dea:	f85d 7b04 	ldr.w	r7, [sp], #4
 8000dee:	4770      	bx	lr
 8000df0:	e000ed00 	.word	0xe000ed00

08000df4 <__NVIC_GetPriorityGrouping>:
  \brief   Get Priority Grouping
  \details Reads the priority grouping field from the NVIC Interrupt Controller.
  \return                Priority grouping field (SCB->AIRCR [10:8] PRIGROUP field).
 */
__STATIC_INLINE uint32_t __NVIC_GetPriorityGrouping(void)
{
 8000df4:	b480      	push	{r7}
 8000df6:	af00      	add	r7, sp, #0
  return ((uint32_t)((SCB->AIRCR & SCB_AIRCR_PRIGROUP_Msk) >> SCB_AIRCR_PRIGROUP_Pos));
 8000df8:	4b04      	ldr	r3, [pc, #16]	; (8000e0c <__NVIC_GetPriorityGrouping+0x18>)
 8000dfa:	68db      	ldr	r3, [r3, #12]
 8000dfc:	0a1b      	lsrs	r3, r3, #8
 8000dfe:	f003 0307 	and.w	r3, r3, #7
}
 8000e02:	4618      	mov	r0, r3
 8000e04:	46bd      	mov	sp, r7
 8000e06:	f85d 7b04 	ldr.w	r7, [sp], #4
 8000e0a:	4770      	bx	lr
 8000e0c:	e000ed00 	.word	0xe000ed00

08000e10 <__NVIC_EnableIRQ>:
  \details Enables a device specific interrupt in the NVIC interrupt controller.
  \param [in]      IRQn  Device specific interrupt number.
  \note    IRQn must not be negative.
 */
__STATIC_INLINE void __NVIC_EnableIRQ(IRQn_Type IRQn)
{
 8000e10:	b480      	push	{r7}
 8000e12:	b083      	sub	sp, #12
 8000e14:	af00      	add	r7, sp, #0
 8000e16:	4603      	mov	r3, r0
 8000e18:	71fb      	strb	r3, [r7, #7]
  if ((int32_t)(IRQn) >= 0)
 8000e1a:	f997 3007 	ldrsb.w	r3, [r7, #7]
 8000e1e:	2b00      	cmp	r3, #0
 8000e20:	db0b      	blt.n	8000e3a <__NVIC_EnableIRQ+0x2a>
  {
    NVIC->ISER[(((uint32_t)IRQn) >> 5UL)] = (uint32_t)(1UL << (((uint32_t)IRQn) & 0x1FUL));
 8000e22:	79fb      	ldrb	r3, [r7, #7]
 8000e24:	f003 021f 	and.w	r2, r3, #31
 8000e28:	4907      	ldr	r1, [pc, #28]	; (8000e48 <__NVIC_EnableIRQ+0x38>)
 8000e2a:	f997 3007 	ldrsb.w	r3, [r7, #7]
 8000e2e:	095b      	lsrs	r3, r3, #5
 8000e30:	2001      	movs	r0, #1
 8000e32:	fa00 f202 	lsl.w	r2, r0, r2
 8000e36:	f841 2023 	str.w	r2, [r1, r3, lsl #2]
  }
}
 8000e3a:	bf00      	nop
 8000e3c:	370c      	adds	r7, #12
 8000e3e:	46bd      	mov	sp, r7
 8000e40:	f85d 7b04 	ldr.w	r7, [sp], #4
 8000e44:	4770      	bx	lr
 8000e46:	bf00      	nop
 8000e48:	e000e100 	.word	0xe000e100

08000e4c <__NVIC_SetPriority>:
  \param [in]      IRQn  Interrupt number.
  \param [in]  priority  Priority to set.
  \note    The priority cannot be set for every processor exception.
 */
__STATIC_INLINE void __NVIC_SetPriority(IRQn_Type IRQn, uint32_t priority)
{
 8000e4c:	b480      	push	{r7}
 8000e4e:	b083      	sub	sp, #12
 8000e50:	af00      	add	r7, sp, #0
 8000e52:	4603      	mov	r3, r0
 8000e54:	6039      	str	r1, [r7, #0]
 8000e56:	71fb      	strb	r3, [r7, #7]
  if ((int32_t)(IRQn) >= 0)
 8000e58:	f997 3007 	ldrsb.w	r3, [r7, #7]
 8000e5c:	2b00      	cmp	r3, #0
 8000e5e:	db0a      	blt.n	8000e76 <__NVIC_SetPriority+0x2a>
  {
    NVIC->IP[((uint32_t)IRQn)]               = (uint8_t)((priority << (8U - __NVIC_PRIO_BITS)) & (uint32_t)0xFFUL);
 8000e60:	683b      	ldr	r3, [r7, #0]
 8000e62:	b2da      	uxtb	r2, r3
 8000e64:	490c      	ldr	r1, [pc, #48]	; (8000e98 <__NVIC_SetPriority+0x4c>)
 8000e66:	f997 3007 	ldrsb.w	r3, [r7, #7]
 8000e6a:	0112      	lsls	r2, r2, #4
 8000e6c:	b2d2      	uxtb	r2, r2
 8000e6e:	440b      	add	r3, r1
 8000e70:	f883 2300 	strb.w	r2, [r3, #768]	; 0x300
  }
  else
  {
    SCB->SHP[(((uint32_t)IRQn) & 0xFUL)-4UL] = (uint8_t)((priority << (8U - __NVIC_PRIO_BITS)) & (uint32_t)0xFFUL);
  }
}
 8000e74:	e00a      	b.n	8000e8c <__NVIC_SetPriority+0x40>
    SCB->SHP[(((uint32_t)IRQn) & 0xFUL)-4UL] = (uint8_t)((priority << (8U - __NVIC_PRIO_BITS)) & (uint32_t)0xFFUL);
 8000e76:	683b      	ldr	r3, [r7, #0]
 8000e78:	b2da      	uxtb	r2, r3
 8000e7a:	4908      	ldr	r1, [pc, #32]	; (8000e9c <__NVIC_SetPriority+0x50>)
 8000e7c:	79fb      	ldrb	r3, [r7, #7]
 8000e7e:	f003 030f 	and.w	r3, r3, #15
 8000e82:	3b04      	subs	r3, #4
 8000e84:	0112      	lsls	r2, r2, #4
 8000e86:	b2d2      	uxtb	r2, r2
 8000e88:	440b      	add	r3, r1
 8000e8a:	761a      	strb	r2, [r3, #24]
}
 8000e8c:	bf00      	nop
 8000e8e:	370c      	adds	r7, #12
 8000e90:	46bd      	mov	sp, r7
 8000e92:	f85d 7b04 	ldr.w	r7, [sp], #4
 8000e96:	4770      	bx	lr
 8000e98:	e000e100 	.word	0xe000e100
 8000e9c:	e000ed00 	.word	0xe000ed00

08000ea0 <NVIC_EncodePriority>:
  \param [in]   PreemptPriority  Preemptive priority value (starting from 0).
  \param [in]       SubPriority  Subpriority value (starting from 0).
  \return                        Encoded priority. Value can be used in the function \ref NVIC_SetPriority().
 */
__STATIC_INLINE uint32_t NVIC_EncodePriority (uint32_t PriorityGroup, uint32_t PreemptPriority, uint32_t SubPriority)
{
 8000ea0:	b480      	push	{r7}
 8000ea2:	b089      	sub	sp, #36	; 0x24
 8000ea4:	af00      	add	r7, sp, #0
 8000ea6:	60f8      	str	r0, [r7, #12]
 8000ea8:	60b9      	str	r1, [r7, #8]
 8000eaa:	607a      	str	r2, [r7, #4]
  uint32_t PriorityGroupTmp = (PriorityGroup & (uint32_t)0x07UL);   /* only values 0..7 are used          */
 8000eac:	68fb      	ldr	r3, [r7, #12]
 8000eae:	f003 0307 	and.w	r3, r3, #7
 8000eb2:	61fb      	str	r3, [r7, #28]
  uint32_t PreemptPriorityBits;
  uint32_t SubPriorityBits;

  PreemptPriorityBits = ((7UL - PriorityGroupTmp) > (uint32_t)(__NVIC_PRIO_BITS)) ? (uint32_t)(__NVIC_PRIO_BITS) : (uint32_t)(7UL - PriorityGroupTmp);
 8000eb4:	69fb      	ldr	r3, [r7, #28]
 8000eb6:	f1c3 0307 	rsb	r3, r3, #7
 8000eba:	2b04      	cmp	r3, #4
 8000ebc:	bf28      	it	cs
 8000ebe:	2304      	movcs	r3, #4
 8000ec0:	61bb      	str	r3, [r7, #24]
  SubPriorityBits     = ((PriorityGroupTmp + (uint32_t)(__NVIC_PRIO_BITS)) < (uint32_t)7UL) ? (uint32_t)0UL : (uint32_t)((PriorityGroupTmp - 7UL) + (uint32_t)(__NVIC_PRIO_BITS));
 8000ec2:	69fb      	ldr	r3, [r7, #28]
 8000ec4:	3304      	adds	r3, #4
 8000ec6:	2b06      	cmp	r3, #6
 8000ec8:	d902      	bls.n	8000ed0 <NVIC_EncodePriority+0x30>
 8000eca:	69fb      	ldr	r3, [r7, #28]
 8000ecc:	3b03      	subs	r3, #3
 8000ece:	e000      	b.n	8000ed2 <NVIC_EncodePriority+0x32>
 8000ed0:	2300      	movs	r3, #0
 8000ed2:	617b      	str	r3, [r7, #20]

  return (
           ((PreemptPriority & (uint32_t)((1UL << (PreemptPriorityBits)) - 1UL)) << SubPriorityBits) |
 8000ed4:	f04f 32ff 	mov.w	r2, #4294967295
 8000ed8:	69bb      	ldr	r3, [r7, #24]
 8000eda:	fa02 f303 	lsl.w	r3, r2, r3
 8000ede:	43da      	mvns	r2, r3
 8000ee0:	68bb      	ldr	r3, [r7, #8]
 8000ee2:	401a      	ands	r2, r3
 8000ee4:	697b      	ldr	r3, [r7, #20]
 8000ee6:	409a      	lsls	r2, r3
           ((SubPriority     & (uint32_t)((1UL << (SubPriorityBits    )) - 1UL)))
 8000ee8:	f04f 31ff 	mov.w	r1, #4294967295
 8000eec:	697b      	ldr	r3, [r7, #20]
 8000eee:	fa01 f303 	lsl.w	r3, r1, r3
 8000ef2:	43d9      	mvns	r1, r3
 8000ef4:	687b      	ldr	r3, [r7, #4]
 8000ef6:	400b      	ands	r3, r1
           ((PreemptPriority & (uint32_t)((1UL << (PreemptPriorityBits)) - 1UL)) << SubPriorityBits) |
 8000ef8:	4313      	orrs	r3, r2
         );
}
 8000efa:	4618      	mov	r0, r3
 8000efc:	3724      	adds	r7, #36	; 0x24
 8000efe:	46bd      	mov	sp, r7
 8000f00:	f85d 7b04 	ldr.w	r7, [sp], #4
 8000f04:	4770      	bx	lr
	...

08000f08 <SysTick_Config>:
  \note    When the variable <b>__Vendor_SysTickConfig</b> is set to 1, then the
           function <b>SysTick_Config</b> is not included. In this case, the file <b><i>device</i>.h</b>
           must contain a vendor-specific implementation of this function.
 */
__STATIC_INLINE uint32_t SysTick_Config(uint32_t ticks)
{
 8000f08:	b580      	push	{r7, lr}
 8000f0a:	b082      	sub	sp, #8
 8000f0c:	af00      	add	r7, sp, #0
 8000f0e:	6078      	str	r0, [r7, #4]
  if ((ticks - 1UL) > SysTick_LOAD_RELOAD_Msk)
 8000f10:	687b      	ldr	r3, [r7, #4]
 8000f12:	3b01      	subs	r3, #1
 8000f14:	f1b3 7f80 	cmp.w	r3, #16777216	; 0x1000000
 8000f18:	d301      	bcc.n	8000f1e <SysTick_Config+0x16>
  {
    return (1UL);                                                   /* Reload value impossible */
 8000f1a:	2301      	movs	r3, #1
 8000f1c:	e00f      	b.n	8000f3e <SysTick_Config+0x36>
  }

  SysTick->LOAD  = (uint32_t)(ticks - 1UL);                         /* set reload register */
 8000f1e:	4a0a      	ldr	r2, [pc, #40]	; (8000f48 <SysTick_Config+0x40>)
 8000f20:	687b      	ldr	r3, [r7, #4]
 8000f22:	3b01      	subs	r3, #1
 8000f24:	6053      	str	r3, [r2, #4]
  NVIC_SetPriority (SysTick_IRQn, (1UL << __NVIC_PRIO_BITS) - 1UL); /* set Priority for Systick Interrupt */
 8000f26:	210f      	movs	r1, #15
 8000f28:	f04f 30ff 	mov.w	r0, #4294967295
 8000f2c:	f7ff ff8e 	bl	8000e4c <__NVIC_SetPriority>
  SysTick->VAL   = 0UL;                                             /* Load the SysTick Counter Value */
 8000f30:	4b05      	ldr	r3, [pc, #20]	; (8000f48 <SysTick_Config+0x40>)
 8000f32:	2200      	movs	r2, #0
 8000f34:	609a      	str	r2, [r3, #8]
  SysTick->CTRL  = SysTick_CTRL_CLKSOURCE_Msk |
 8000f36:	4b04      	ldr	r3, [pc, #16]	; (8000f48 <SysTick_Config+0x40>)
 8000f38:	2207      	movs	r2, #7
 8000f3a:	601a      	str	r2, [r3, #0]
                   SysTick_CTRL_TICKINT_Msk   |
                   SysTick_CTRL_ENABLE_Msk;                         /* Enable SysTick IRQ and SysTick Timer */
  return (0UL);                                                     /* Function successful */
 8000f3c:	2300      	movs	r3, #0
}
 8000f3e:	4618      	mov	r0, r3
 8000f40:	3708      	adds	r7, #8
 8000f42:	46bd      	mov	sp, r7
 8000f44:	bd80      	pop	{r7, pc}
 8000f46:	bf00      	nop
 8000f48:	e000e010 	.word	0xe000e010

08000f4c <HAL_NVIC_SetPriorityGrouping>:
  * @note   When the NVIC_PriorityGroup_0 is selected, IRQ preemption is no more possible. 
  *         The pending IRQ priority will be managed only by the subpriority. 
  * @retval None
  */
void HAL_NVIC_SetPriorityGrouping(uint32_t PriorityGroup)
{
 8000f4c:	b580      	push	{r7, lr}
 8000f4e:	b082      	sub	sp, #8
 8000f50:	af00      	add	r7, sp, #0
 8000f52:	6078      	str	r0, [r7, #4]
  /* Check the parameters */
  assert_param(IS_NVIC_PRIORITY_GROUP(PriorityGroup));
  
  /* Set the PRIGROUP[10:8] bits according to the PriorityGroup parameter value */
  NVIC_SetPriorityGrouping(PriorityGroup);
 8000f54:	6878      	ldr	r0, [r7, #4]
 8000f56:	f7ff ff29 	bl	8000dac <__NVIC_SetPriorityGrouping>
}
 8000f5a:	bf00      	nop
 8000f5c:	3708      	adds	r7, #8
 8000f5e:	46bd      	mov	sp, r7
 8000f60:	bd80      	pop	{r7, pc}

08000f62 <HAL_NVIC_SetPriority>:
  *         This parameter can be a value between 0 and 15
  *         A lower priority value indicates a higher priority.          
  * @retval None
  */
void HAL_NVIC_SetPriority(IRQn_Type IRQn, uint32_t PreemptPriority, uint32_t SubPriority)
{ 
 8000f62:	b580      	push	{r7, lr}
 8000f64:	b086      	sub	sp, #24
 8000f66:	af00      	add	r7, sp, #0
 8000f68:	4603      	mov	r3, r0
 8000f6a:	60b9      	str	r1, [r7, #8]
 8000f6c:	607a      	str	r2, [r7, #4]
 8000f6e:	73fb      	strb	r3, [r7, #15]
  uint32_t prioritygroup = 0x00U;
 8000f70:	2300      	movs	r3, #0
 8000f72:	617b      	str	r3, [r7, #20]
  
  /* Check the parameters */
  assert_param(IS_NVIC_SUB_PRIORITY(SubPriority));
  assert_param(IS_NVIC_PREEMPTION_PRIORITY(PreemptPriority));
  
  prioritygroup = NVIC_GetPriorityGrouping();
 8000f74:	f7ff ff3e 	bl	8000df4 <__NVIC_GetPriorityGrouping>
 8000f78:	6178      	str	r0, [r7, #20]
  
  NVIC_SetPriority(IRQn, NVIC_EncodePriority(prioritygroup, PreemptPriority, SubPriority));
 8000f7a:	687a      	ldr	r2, [r7, #4]
 8000f7c:	68b9      	ldr	r1, [r7, #8]
 8000f7e:	6978      	ldr	r0, [r7, #20]
 8000f80:	f7ff ff8e 	bl	8000ea0 <NVIC_EncodePriority>
 8000f84:	4602      	mov	r2, r0
 8000f86:	f997 300f 	ldrsb.w	r3, [r7, #15]
 8000f8a:	4611      	mov	r1, r2
 8000f8c:	4618      	mov	r0, r3
 8000f8e:	f7ff ff5d 	bl	8000e4c <__NVIC_SetPriority>
}
 8000f92:	bf00      	nop
 8000f94:	3718      	adds	r7, #24
 8000f96:	46bd      	mov	sp, r7
 8000f98:	bd80      	pop	{r7, pc}

08000f9a <HAL_NVIC_EnableIRQ>:
  *         This parameter can be an enumerator of IRQn_Type enumeration
  *         (For the complete STM32 Devices IRQ Channels list, please refer to the appropriate CMSIS device file (stm32f4xxxx.h))
  * @retval None
  */
void HAL_NVIC_EnableIRQ(IRQn_Type IRQn)
{
 8000f9a:	b580      	push	{r7, lr}
 8000f9c:	b082      	sub	sp, #8
 8000f9e:	af00      	add	r7, sp, #0
 8000fa0:	4603      	mov	r3, r0
 8000fa2:	71fb      	strb	r3, [r7, #7]
  /* Check the parameters */
  assert_param(IS_NVIC_DEVICE_IRQ(IRQn));
  
  /* Enable interrupt */
  NVIC_EnableIRQ(IRQn);
 8000fa4:	f997 3007 	ldrsb.w	r3, [r7, #7]
 8000fa8:	4618      	mov	r0, r3
 8000faa:	f7ff ff31 	bl	8000e10 <__NVIC_EnableIRQ>
}
 8000fae:	bf00      	nop
 8000fb0:	3708      	adds	r7, #8
 8000fb2:	46bd      	mov	sp, r7
 8000fb4:	bd80      	pop	{r7, pc}

08000fb6 <HAL_SYSTICK_Config>:
  * @param  TicksNumb Specifies the ticks Number of ticks between two interrupts.
  * @retval status:  - 0  Function succeeded.
  *                  - 1  Function failed.
  */
uint32_t HAL_SYSTICK_Config(uint32_t TicksNumb)
{
 8000fb6:	b580      	push	{r7, lr}
 8000fb8:	b082      	sub	sp, #8
 8000fba:	af00      	add	r7, sp, #0
 8000fbc:	6078      	str	r0, [r7, #4]
   return SysTick_Config(TicksNumb);
 8000fbe:	6878      	ldr	r0, [r7, #4]
 8000fc0:	f7ff ffa2 	bl	8000f08 <SysTick_Config>
 8000fc4:	4603      	mov	r3, r0
}
 8000fc6:	4618      	mov	r0, r3
 8000fc8:	3708      	adds	r7, #8
 8000fca:	46bd      	mov	sp, r7
 8000fcc:	bd80      	pop	{r7, pc}
	...

08000fd0 <HAL_RCC_OscConfig>:
  *         supported by this API. User should request a transition to HSE Off
  *         first and then HSE On or HSE Bypass.
  * @retval HAL status
  */
__weak HAL_StatusTypeDef HAL_RCC_OscConfig(RCC_OscInitTypeDef  *RCC_OscInitStruct)
{
 8000fd0:	b580      	push	{r7, lr}
 8000fd2:	b086      	sub	sp, #24
 8000fd4:	af00      	add	r7, sp, #0
 8000fd6:	6078      	str	r0, [r7, #4]
  uint32_t tickstart, pll_config;

  /* Check Null pointer */
  if(RCC_OscInitStruct == NULL)
 8000fd8:	687b      	ldr	r3, [r7, #4]
 8000fda:	2b00      	cmp	r3, #0
 8000fdc:	d101      	bne.n	8000fe2 <HAL_RCC_OscConfig+0x12>
  {
    return HAL_ERROR;
 8000fde:	2301      	movs	r3, #1
 8000fe0:	e264      	b.n	80014ac <HAL_RCC_OscConfig+0x4dc>
  }

  /* Check the parameters */
  assert_param(IS_RCC_OSCILLATORTYPE(RCC_OscInitStruct->OscillatorType));
  /*------------------------------- HSE Configuration ------------------------*/
  if(((RCC_OscInitStruct->OscillatorType) & RCC_OSCILLATORTYPE_HSE) == RCC_OSCILLATORTYPE_HSE)
 8000fe2:	687b      	ldr	r3, [r7, #4]
 8000fe4:	681b      	ldr	r3, [r3, #0]
 8000fe6:	f003 0301 	and.w	r3, r3, #1
 8000fea:	2b00      	cmp	r3, #0
 8000fec:	d075      	beq.n	80010da <HAL_RCC_OscConfig+0x10a>
  {
    /* Check the parameters */
    assert_param(IS_RCC_HSE(RCC_OscInitStruct->HSEState));
    /* When the HSE is used as system clock or clock source for PLL in these cases HSE will not disabled */
    if((__HAL_RCC_GET_SYSCLK_SOURCE() == RCC_CFGR_SWS_HSE) ||\
 8000fee:	4ba3      	ldr	r3, [pc, #652]	; (800127c <HAL_RCC_OscConfig+0x2ac>)
 8000ff0:	689b      	ldr	r3, [r3, #8]
 8000ff2:	f003 030c 	and.w	r3, r3, #12
 8000ff6:	2b04      	cmp	r3, #4
 8000ff8:	d00c      	beq.n	8001014 <HAL_RCC_OscConfig+0x44>
      ((__HAL_RCC_GET_SYSCLK_SOURCE() == RCC_CFGR_SWS_PLL) && ((RCC->PLLCFGR & RCC_PLLCFGR_PLLSRC) == RCC_PLLCFGR_PLLSRC_HSE)))
 8000ffa:	4ba0      	ldr	r3, [pc, #640]	; (800127c <HAL_RCC_OscConfig+0x2ac>)
 8000ffc:	689b      	ldr	r3, [r3, #8]
 8000ffe:	f003 030c 	and.w	r3, r3, #12
    if((__HAL_RCC_GET_SYSCLK_SOURCE() == RCC_CFGR_SWS_HSE) ||\
 8001002:	2b08      	cmp	r3, #8
 8001004:	d112      	bne.n	800102c <HAL_RCC_OscConfig+0x5c>
      ((__HAL_RCC_GET_SYSCLK_SOURCE() == RCC_CFGR_SWS_PLL) && ((RCC->PLLCFGR & RCC_PLLCFGR_PLLSRC) == RCC_PLLCFGR_PLLSRC_HSE)))
 8001006:	4b9d      	ldr	r3, [pc, #628]	; (800127c <HAL_RCC_OscConfig+0x2ac>)
 8001008:	685b      	ldr	r3, [r3, #4]
 800100a:	f403 0380 	and.w	r3, r3, #4194304	; 0x400000
 800100e:	f5b3 0f80 	cmp.w	r3, #4194304	; 0x400000
 8001012:	d10b      	bne.n	800102c <HAL_RCC_OscConfig+0x5c>
    {
      if((__HAL_RCC_GET_FLAG(RCC_FLAG_HSERDY) != RESET) && (RCC_OscInitStruct->HSEState == RCC_HSE_OFF))
 8001014:	4b99      	ldr	r3, [pc, #612]	; (800127c <HAL_RCC_OscConfig+0x2ac>)
 8001016:	681b      	ldr	r3, [r3, #0]
 8001018:	f403 3300 	and.w	r3, r3, #131072	; 0x20000
 800101c:	2b00      	cmp	r3, #0
 800101e:	d05b      	beq.n	80010d8 <HAL_RCC_OscConfig+0x108>
 8001020:	687b      	ldr	r3, [r7, #4]
 8001022:	685b      	ldr	r3, [r3, #4]
 8001024:	2b00      	cmp	r3, #0
 8001026:	d157      	bne.n	80010d8 <HAL_RCC_OscConfig+0x108>
      {
        return HAL_ERROR;
 8001028:	2301      	movs	r3, #1
 800102a:	e23f      	b.n	80014ac <HAL_RCC_OscConfig+0x4dc>
      }
    }
    else
    {
      /* Set the new HSE configuration ---------------------------------------*/
      __HAL_RCC_HSE_CONFIG(RCC_OscInitStruct->HSEState);
 800102c:	687b      	ldr	r3, [r7, #4]
 800102e:	685b      	ldr	r3, [r3, #4]
 8001030:	f5b3 3f80 	cmp.w	r3, #65536	; 0x10000
 8001034:	d106      	bne.n	8001044 <HAL_RCC_OscConfig+0x74>
 8001036:	4b91      	ldr	r3, [pc, #580]	; (800127c <HAL_RCC_OscConfig+0x2ac>)
 8001038:	681b      	ldr	r3, [r3, #0]
 800103a:	4a90      	ldr	r2, [pc, #576]	; (800127c <HAL_RCC_OscConfig+0x2ac>)
 800103c:	f443 3380 	orr.w	r3, r3, #65536	; 0x10000
 8001040:	6013      	str	r3, [r2, #0]
 8001042:	e01d      	b.n	8001080 <HAL_RCC_OscConfig+0xb0>
 8001044:	687b      	ldr	r3, [r7, #4]
 8001046:	685b      	ldr	r3, [r3, #4]
 8001048:	f5b3 2fa0 	cmp.w	r3, #327680	; 0x50000
 800104c:	d10c      	bne.n	8001068 <HAL_RCC_OscConfig+0x98>
 800104e:	4b8b      	ldr	r3, [pc, #556]	; (800127c <HAL_RCC_OscConfig+0x2ac>)
 8001050:	681b      	ldr	r3, [r3, #0]
 8001052:	4a8a      	ldr	r2, [pc, #552]	; (800127c <HAL_RCC_OscConfig+0x2ac>)
 8001054:	f443 2380 	orr.w	r3, r3, #262144	; 0x40000
 8001058:	6013      	str	r3, [r2, #0]
 800105a:	4b88      	ldr	r3, [pc, #544]	; (800127c <HAL_RCC_OscConfig+0x2ac>)
 800105c:	681b      	ldr	r3, [r3, #0]
 800105e:	4a87      	ldr	r2, [pc, #540]	; (800127c <HAL_RCC_OscConfig+0x2ac>)
 8001060:	f443 3380 	orr.w	r3, r3, #65536	; 0x10000
 8001064:	6013      	str	r3, [r2, #0]
 8001066:	e00b      	b.n	8001080 <HAL_RCC_OscConfig+0xb0>
 8001068:	4b84      	ldr	r3, [pc, #528]	; (800127c <HAL_RCC_OscConfig+0x2ac>)
 800106a:	681b      	ldr	r3, [r3, #0]
 800106c:	4a83      	ldr	r2, [pc, #524]	; (800127c <HAL_RCC_OscConfig+0x2ac>)
 800106e:	f423 3380 	bic.w	r3, r3, #65536	; 0x10000
 8001072:	6013      	str	r3, [r2, #0]
 8001074:	4b81      	ldr	r3, [pc, #516]	; (800127c <HAL_RCC_OscConfig+0x2ac>)
 8001076:	681b      	ldr	r3, [r3, #0]
 8001078:	4a80      	ldr	r2, [pc, #512]	; (800127c <HAL_RCC_OscConfig+0x2ac>)
 800107a:	f423 2380 	bic.w	r3, r3, #262144	; 0x40000
 800107e:	6013      	str	r3, [r2, #0]

      /* Check the HSE State */
      if((RCC_OscInitStruct->HSEState) != RCC_HSE_OFF)
 8001080:	687b      	ldr	r3, [r7, #4]
 8001082:	685b      	ldr	r3, [r3, #4]
 8001084:	2b00      	cmp	r3, #0
 8001086:	d013      	beq.n	80010b0 <HAL_RCC_OscConfig+0xe0>
      {
        /* Get Start Tick */
        tickstart = HAL_GetTick();
 8001088:	f7ff fe56 	bl	8000d38 <HAL_GetTick>
 800108c:	6138      	str	r0, [r7, #16]

        /* Wait till HSE is ready */
        while(__HAL_RCC_GET_FLAG(RCC_FLAG_HSERDY) == RESET)
 800108e:	e008      	b.n	80010a2 <HAL_RCC_OscConfig+0xd2>
        {
          if((HAL_GetTick() - tickstart ) > HSE_TIMEOUT_VALUE)
 8001090:	f7ff fe52 	bl	8000d38 <HAL_GetTick>
 8001094:	4602      	mov	r2, r0
 8001096:	693b      	ldr	r3, [r7, #16]
 8001098:	1ad3      	subs	r3, r2, r3
 800109a:	2b64      	cmp	r3, #100	; 0x64
 800109c:	d901      	bls.n	80010a2 <HAL_RCC_OscConfig+0xd2>
          {
            return HAL_TIMEOUT;
 800109e:	2303      	movs	r3, #3
 80010a0:	e204      	b.n	80014ac <HAL_RCC_OscConfig+0x4dc>
        while(__HAL_RCC_GET_FLAG(RCC_FLAG_HSERDY) == RESET)
 80010a2:	4b76      	ldr	r3, [pc, #472]	; (800127c <HAL_RCC_OscConfig+0x2ac>)
 80010a4:	681b      	ldr	r3, [r3, #0]
 80010a6:	f403 3300 	and.w	r3, r3, #131072	; 0x20000
 80010aa:	2b00      	cmp	r3, #0
 80010ac:	d0f0      	beq.n	8001090 <HAL_RCC_OscConfig+0xc0>
 80010ae:	e014      	b.n	80010da <HAL_RCC_OscConfig+0x10a>
        }
      }
      else
      {
        /* Get Start Tick */
        tickstart = HAL_GetTick();
 80010b0:	f7ff fe42 	bl	8000d38 <HAL_GetTick>
 80010b4:	6138      	str	r0, [r7, #16]

        /* Wait till HSE is bypassed or disabled */
        while(__HAL_RCC_GET_FLAG(RCC_FLAG_HSERDY) != RESET)
 80010b6:	e008      	b.n	80010ca <HAL_RCC_OscConfig+0xfa>
        {
          if((HAL_GetTick() - tickstart ) > HSE_TIMEOUT_VALUE)
 80010b8:	f7ff fe3e 	bl	8000d38 <HAL_GetTick>
 80010bc:	4602      	mov	r2, r0
 80010be:	693b      	ldr	r3, [r7, #16]
 80010c0:	1ad3      	subs	r3, r2, r3
 80010c2:	2b64      	cmp	r3, #100	; 0x64
 80010c4:	d901      	bls.n	80010ca <HAL_RCC_OscConfig+0xfa>
          {
            return HAL_TIMEOUT;
 80010c6:	2303      	movs	r3, #3
 80010c8:	e1f0      	b.n	80014ac <HAL_RCC_OscConfig+0x4dc>
        while(__HAL_RCC_GET_FLAG(RCC_FLAG_HSERDY) != RESET)
 80010ca:	4b6c      	ldr	r3, [pc, #432]	; (800127c <HAL_RCC_OscConfig+0x2ac>)
 80010cc:	681b      	ldr	r3, [r3, #0]
 80010ce:	f403 3300 	and.w	r3, r3, #131072	; 0x20000
 80010d2:	2b00      	cmp	r3, #0
 80010d4:	d1f0      	bne.n	80010b8 <HAL_RCC_OscConfig+0xe8>
 80010d6:	e000      	b.n	80010da <HAL_RCC_OscConfig+0x10a>
      if((__HAL_RCC_GET_FLAG(RCC_FLAG_HSERDY) != RESET) && (RCC_OscInitStruct->HSEState == RCC_HSE_OFF))
 80010d8:	bf00      	nop
        }
      }
    }
  }
  /*----------------------------- HSI Configuration --------------------------*/
  if(((RCC_OscInitStruct->OscillatorType) & RCC_OSCILLATORTYPE_HSI) == RCC_OSCILLATORTYPE_HSI)
 80010da:	687b      	ldr	r3, [r7, #4]
 80010dc:	681b      	ldr	r3, [r3, #0]
 80010de:	f003 0302 	and.w	r3, r3, #2
 80010e2:	2b00      	cmp	r3, #0
 80010e4:	d063      	beq.n	80011ae <HAL_RCC_OscConfig+0x1de>
    /* Check the parameters */
    assert_param(IS_RCC_HSI(RCC_OscInitStruct->HSIState));
    assert_param(IS_RCC_CALIBRATION_VALUE(RCC_OscInitStruct->HSICalibrationValue));

    /* Check if HSI is used as system clock or as PLL source when PLL is selected as system clock */
    if((__HAL_RCC_GET_SYSCLK_SOURCE() == RCC_CFGR_SWS_HSI) ||\
 80010e6:	4b65      	ldr	r3, [pc, #404]	; (800127c <HAL_RCC_OscConfig+0x2ac>)
 80010e8:	689b      	ldr	r3, [r3, #8]
 80010ea:	f003 030c 	and.w	r3, r3, #12
 80010ee:	2b00      	cmp	r3, #0
 80010f0:	d00b      	beq.n	800110a <HAL_RCC_OscConfig+0x13a>
      ((__HAL_RCC_GET_SYSCLK_SOURCE() == RCC_CFGR_SWS_PLL) && ((RCC->PLLCFGR & RCC_PLLCFGR_PLLSRC) == RCC_PLLCFGR_PLLSRC_HSI)))
 80010f2:	4b62      	ldr	r3, [pc, #392]	; (800127c <HAL_RCC_OscConfig+0x2ac>)
 80010f4:	689b      	ldr	r3, [r3, #8]
 80010f6:	f003 030c 	and.w	r3, r3, #12
    if((__HAL_RCC_GET_SYSCLK_SOURCE() == RCC_CFGR_SWS_HSI) ||\
 80010fa:	2b08      	cmp	r3, #8
 80010fc:	d11c      	bne.n	8001138 <HAL_RCC_OscConfig+0x168>
      ((__HAL_RCC_GET_SYSCLK_SOURCE() == RCC_CFGR_SWS_PLL) && ((RCC->PLLCFGR & RCC_PLLCFGR_PLLSRC) == RCC_PLLCFGR_PLLSRC_HSI)))
 80010fe:	4b5f      	ldr	r3, [pc, #380]	; (800127c <HAL_RCC_OscConfig+0x2ac>)
 8001100:	685b      	ldr	r3, [r3, #4]
 8001102:	f403 0380 	and.w	r3, r3, #4194304	; 0x400000
 8001106:	2b00      	cmp	r3, #0
 8001108:	d116      	bne.n	8001138 <HAL_RCC_OscConfig+0x168>
    {
      /* When HSI is used as system clock it will not disabled */
      if((__HAL_RCC_GET_FLAG(RCC_FLAG_HSIRDY) != RESET) && (RCC_OscInitStruct->HSIState != RCC_HSI_ON))
 800110a:	4b5c      	ldr	r3, [pc, #368]	; (800127c <HAL_RCC_OscConfig+0x2ac>)
 800110c:	681b      	ldr	r3, [r3, #0]
 800110e:	f003 0302 	and.w	r3, r3, #2
 8001112:	2b00      	cmp	r3, #0
 8001114:	d005      	beq.n	8001122 <HAL_RCC_OscConfig+0x152>
 8001116:	687b      	ldr	r3, [r7, #4]
 8001118:	68db      	ldr	r3, [r3, #12]
 800111a:	2b01      	cmp	r3, #1
 800111c:	d001      	beq.n	8001122 <HAL_RCC_OscConfig+0x152>
      {
        return HAL_ERROR;
 800111e:	2301      	movs	r3, #1
 8001120:	e1c4      	b.n	80014ac <HAL_RCC_OscConfig+0x4dc>
      }
      /* Otherwise, just the calibration is allowed */
      else
      {
        /* Adjusts the Internal High Speed oscillator (HSI) calibration value.*/
        __HAL_RCC_HSI_CALIBRATIONVALUE_ADJUST(RCC_OscInitStruct->HSICalibrationValue);
 8001122:	4b56      	ldr	r3, [pc, #344]	; (800127c <HAL_RCC_OscConfig+0x2ac>)
 8001124:	681b      	ldr	r3, [r3, #0]
 8001126:	f023 02f8 	bic.w	r2, r3, #248	; 0xf8
 800112a:	687b      	ldr	r3, [r7, #4]
 800112c:	691b      	ldr	r3, [r3, #16]
 800112e:	00db      	lsls	r3, r3, #3
 8001130:	4952      	ldr	r1, [pc, #328]	; (800127c <HAL_RCC_OscConfig+0x2ac>)
 8001132:	4313      	orrs	r3, r2
 8001134:	600b      	str	r3, [r1, #0]
      if((__HAL_RCC_GET_FLAG(RCC_FLAG_HSIRDY) != RESET) && (RCC_OscInitStruct->HSIState != RCC_HSI_ON))
 8001136:	e03a      	b.n	80011ae <HAL_RCC_OscConfig+0x1de>
      }
    }
    else
    {
      /* Check the HSI State */
      if((RCC_OscInitStruct->HSIState)!= RCC_HSI_OFF)
 8001138:	687b      	ldr	r3, [r7, #4]
 800113a:	68db      	ldr	r3, [r3, #12]
 800113c:	2b00      	cmp	r3, #0
 800113e:	d020      	beq.n	8001182 <HAL_RCC_OscConfig+0x1b2>
      {
        /* Enable the Internal High Speed oscillator (HSI). */
        __HAL_RCC_HSI_ENABLE();
 8001140:	4b4f      	ldr	r3, [pc, #316]	; (8001280 <HAL_RCC_OscConfig+0x2b0>)
 8001142:	2201      	movs	r2, #1
 8001144:	601a      	str	r2, [r3, #0]

        /* Get Start Tick*/
        tickstart = HAL_GetTick();
 8001146:	f7ff fdf7 	bl	8000d38 <HAL_GetTick>
 800114a:	6138      	str	r0, [r7, #16]

        /* Wait till HSI is ready */
        while(__HAL_RCC_GET_FLAG(RCC_FLAG_HSIRDY) == RESET)
 800114c:	e008      	b.n	8001160 <HAL_RCC_OscConfig+0x190>
        {
          if((HAL_GetTick() - tickstart ) > HSI_TIMEOUT_VALUE)
 800114e:	f7ff fdf3 	bl	8000d38 <HAL_GetTick>
 8001152:	4602      	mov	r2, r0
 8001154:	693b      	ldr	r3, [r7, #16]
 8001156:	1ad3      	subs	r3, r2, r3
 8001158:	2b02      	cmp	r3, #2
 800115a:	d901      	bls.n	8001160 <HAL_RCC_OscConfig+0x190>
          {
            return HAL_TIMEOUT;
 800115c:	2303      	movs	r3, #3
 800115e:	e1a5      	b.n	80014ac <HAL_RCC_OscConfig+0x4dc>
        while(__HAL_RCC_GET_FLAG(RCC_FLAG_HSIRDY) == RESET)
 8001160:	4b46      	ldr	r3, [pc, #280]	; (800127c <HAL_RCC_OscConfig+0x2ac>)
 8001162:	681b      	ldr	r3, [r3, #0]
 8001164:	f003 0302 	and.w	r3, r3, #2
 8001168:	2b00      	cmp	r3, #0
 800116a:	d0f0      	beq.n	800114e <HAL_RCC_OscConfig+0x17e>
          }
        }

        /* Adjusts the Internal High Speed oscillator (HSI) calibration value. */
        __HAL_RCC_HSI_CALIBRATIONVALUE_ADJUST(RCC_OscInitStruct->HSICalibrationValue);
 800116c:	4b43      	ldr	r3, [pc, #268]	; (800127c <HAL_RCC_OscConfig+0x2ac>)
 800116e:	681b      	ldr	r3, [r3, #0]
 8001170:	f023 02f8 	bic.w	r2, r3, #248	; 0xf8
 8001174:	687b      	ldr	r3, [r7, #4]
 8001176:	691b      	ldr	r3, [r3, #16]
 8001178:	00db      	lsls	r3, r3, #3
 800117a:	4940      	ldr	r1, [pc, #256]	; (800127c <HAL_RCC_OscConfig+0x2ac>)
 800117c:	4313      	orrs	r3, r2
 800117e:	600b      	str	r3, [r1, #0]
 8001180:	e015      	b.n	80011ae <HAL_RCC_OscConfig+0x1de>
      }
      else
      {
        /* Disable the Internal High Speed oscillator (HSI). */
        __HAL_RCC_HSI_DISABLE();
 8001182:	4b3f      	ldr	r3, [pc, #252]	; (8001280 <HAL_RCC_OscConfig+0x2b0>)
 8001184:	2200      	movs	r2, #0
 8001186:	601a      	str	r2, [r3, #0]

        /* Get Start Tick*/
        tickstart = HAL_GetTick();
 8001188:	f7ff fdd6 	bl	8000d38 <HAL_GetTick>
 800118c:	6138      	str	r0, [r7, #16]

        /* Wait till HSI is ready */
        while(__HAL_RCC_GET_FLAG(RCC_FLAG_HSIRDY) != RESET)
 800118e:	e008      	b.n	80011a2 <HAL_RCC_OscConfig+0x1d2>
        {
          if((HAL_GetTick() - tickstart ) > HSI_TIMEOUT_VALUE)
 8001190:	f7ff fdd2 	bl	8000d38 <HAL_GetTick>
 8001194:	4602      	mov	r2, r0
 8001196:	693b      	ldr	r3, [r7, #16]
 8001198:	1ad3      	subs	r3, r2, r3
 800119a:	2b02      	cmp	r3, #2
 800119c:	d901      	bls.n	80011a2 <HAL_RCC_OscConfig+0x1d2>
          {
            return HAL_TIMEOUT;
 800119e:	2303      	movs	r3, #3
 80011a0:	e184      	b.n	80014ac <HAL_RCC_OscConfig+0x4dc>
        while(__HAL_RCC_GET_FLAG(RCC_FLAG_HSIRDY) != RESET)
 80011a2:	4b36      	ldr	r3, [pc, #216]	; (800127c <HAL_RCC_OscConfig+0x2ac>)
 80011a4:	681b      	ldr	r3, [r3, #0]
 80011a6:	f003 0302 	and.w	r3, r3, #2
 80011aa:	2b00      	cmp	r3, #0
 80011ac:	d1f0      	bne.n	8001190 <HAL_RCC_OscConfig+0x1c0>
        }
      }
    }
  }
  /*------------------------------ LSI Configuration -------------------------*/
  if(((RCC_OscInitStruct->OscillatorType) & RCC_OSCILLATORTYPE_LSI) == RCC_OSCILLATORTYPE_LSI)
 80011ae:	687b      	ldr	r3, [r7, #4]
 80011b0:	681b      	ldr	r3, [r3, #0]
 80011b2:	f003 0308 	and.w	r3, r3, #8
 80011b6:	2b00      	cmp	r3, #0
 80011b8:	d030      	beq.n	800121c <HAL_RCC_OscConfig+0x24c>
  {
    /* Check the parameters */
    assert_param(IS_RCC_LSI(RCC_OscInitStruct->LSIState));

    /* Check the LSI State */
    if((RCC_OscInitStruct->LSIState)!= RCC_LSI_OFF)
 80011ba:	687b      	ldr	r3, [r7, #4]
 80011bc:	695b      	ldr	r3, [r3, #20]
 80011be:	2b00      	cmp	r3, #0
 80011c0:	d016      	beq.n	80011f0 <HAL_RCC_OscConfig+0x220>
    {
      /* Enable the Internal Low Speed oscillator (LSI). */
      __HAL_RCC_LSI_ENABLE();
 80011c2:	4b30      	ldr	r3, [pc, #192]	; (8001284 <HAL_RCC_OscConfig+0x2b4>)
 80011c4:	2201      	movs	r2, #1
 80011c6:	601a      	str	r2, [r3, #0]

      /* Get Start Tick*/
      tickstart = HAL_GetTick();
 80011c8:	f7ff fdb6 	bl	8000d38 <HAL_GetTick>
 80011cc:	6138      	str	r0, [r7, #16]

      /* Wait till LSI is ready */
      while(__HAL_RCC_GET_FLAG(RCC_FLAG_LSIRDY) == RESET)
 80011ce:	e008      	b.n	80011e2 <HAL_RCC_OscConfig+0x212>
      {
        if((HAL_GetTick() - tickstart ) > LSI_TIMEOUT_VALUE)
 80011d0:	f7ff fdb2 	bl	8000d38 <HAL_GetTick>
 80011d4:	4602      	mov	r2, r0
 80011d6:	693b      	ldr	r3, [r7, #16]
 80011d8:	1ad3      	subs	r3, r2, r3
 80011da:	2b02      	cmp	r3, #2
 80011dc:	d901      	bls.n	80011e2 <HAL_RCC_OscConfig+0x212>
        {
          return HAL_TIMEOUT;
 80011de:	2303      	movs	r3, #3
 80011e0:	e164      	b.n	80014ac <HAL_RCC_OscConfig+0x4dc>
      while(__HAL_RCC_GET_FLAG(RCC_FLAG_LSIRDY) == RESET)
 80011e2:	4b26      	ldr	r3, [pc, #152]	; (800127c <HAL_RCC_OscConfig+0x2ac>)
 80011e4:	6f5b      	ldr	r3, [r3, #116]	; 0x74
 80011e6:	f003 0302 	and.w	r3, r3, #2
 80011ea:	2b00      	cmp	r3, #0
 80011ec:	d0f0      	beq.n	80011d0 <HAL_RCC_OscConfig+0x200>
 80011ee:	e015      	b.n	800121c <HAL_RCC_OscConfig+0x24c>
      }
    }
    else
    {
      /* Disable the Internal Low Speed oscillator (LSI). */
      __HAL_RCC_LSI_DISABLE();
 80011f0:	4b24      	ldr	r3, [pc, #144]	; (8001284 <HAL_RCC_OscConfig+0x2b4>)
 80011f2:	2200      	movs	r2, #0
 80011f4:	601a      	str	r2, [r3, #0]

      /* Get Start Tick */
      tickstart = HAL_GetTick();
 80011f6:	f7ff fd9f 	bl	8000d38 <HAL_GetTick>
 80011fa:	6138      	str	r0, [r7, #16]

      /* Wait till LSI is ready */
      while(__HAL_RCC_GET_FLAG(RCC_FLAG_LSIRDY) != RESET)
 80011fc:	e008      	b.n	8001210 <HAL_RCC_OscConfig+0x240>
      {
        if((HAL_GetTick() - tickstart ) > LSI_TIMEOUT_VALUE)
 80011fe:	f7ff fd9b 	bl	8000d38 <HAL_GetTick>
 8001202:	4602      	mov	r2, r0
 8001204:	693b      	ldr	r3, [r7, #16]
 8001206:	1ad3      	subs	r3, r2, r3
 8001208:	2b02      	cmp	r3, #2
 800120a:	d901      	bls.n	8001210 <HAL_RCC_OscConfig+0x240>
        {
          return HAL_TIMEOUT;
 800120c:	2303      	movs	r3, #3
 800120e:	e14d      	b.n	80014ac <HAL_RCC_OscConfig+0x4dc>
      while(__HAL_RCC_GET_FLAG(RCC_FLAG_LSIRDY) != RESET)
 8001210:	4b1a      	ldr	r3, [pc, #104]	; (800127c <HAL_RCC_OscConfig+0x2ac>)
 8001212:	6f5b      	ldr	r3, [r3, #116]	; 0x74
 8001214:	f003 0302 	and.w	r3, r3, #2
 8001218:	2b00      	cmp	r3, #0
 800121a:	d1f0      	bne.n	80011fe <HAL_RCC_OscConfig+0x22e>
        }
      }
    }
  }
  /*------------------------------ LSE Configuration -------------------------*/
  if(((RCC_OscInitStruct->OscillatorType) & RCC_OSCILLATORTYPE_LSE) == RCC_OSCILLATORTYPE_LSE)
 800121c:	687b      	ldr	r3, [r7, #4]
 800121e:	681b      	ldr	r3, [r3, #0]
 8001220:	f003 0304 	and.w	r3, r3, #4
 8001224:	2b00      	cmp	r3, #0
 8001226:	f000 80a0 	beq.w	800136a <HAL_RCC_OscConfig+0x39a>
  {
    FlagStatus       pwrclkchanged = RESET;
 800122a:	2300      	movs	r3, #0
 800122c:	75fb      	strb	r3, [r7, #23]
    /* Check the parameters */
    assert_param(IS_RCC_LSE(RCC_OscInitStruct->LSEState));

    /* Update LSE configuration in Backup Domain control register    */
    /* Requires to enable write access to Backup Domain of necessary */
    if(__HAL_RCC_PWR_IS_CLK_DISABLED())
 800122e:	4b13      	ldr	r3, [pc, #76]	; (800127c <HAL_RCC_OscConfig+0x2ac>)
 8001230:	6c1b      	ldr	r3, [r3, #64]	; 0x40
 8001232:	f003 5380 	and.w	r3, r3, #268435456	; 0x10000000
 8001236:	2b00      	cmp	r3, #0
 8001238:	d10f      	bne.n	800125a <HAL_RCC_OscConfig+0x28a>
    {
      __HAL_RCC_PWR_CLK_ENABLE();
 800123a:	2300      	movs	r3, #0
 800123c:	60bb      	str	r3, [r7, #8]
 800123e:	4b0f      	ldr	r3, [pc, #60]	; (800127c <HAL_RCC_OscConfig+0x2ac>)
 8001240:	6c1b      	ldr	r3, [r3, #64]	; 0x40
 8001242:	4a0e      	ldr	r2, [pc, #56]	; (800127c <HAL_RCC_OscConfig+0x2ac>)
 8001244:	f043 5380 	orr.w	r3, r3, #268435456	; 0x10000000
 8001248:	6413      	str	r3, [r2, #64]	; 0x40
 800124a:	4b0c      	ldr	r3, [pc, #48]	; (800127c <HAL_RCC_OscConfig+0x2ac>)
 800124c:	6c1b      	ldr	r3, [r3, #64]	; 0x40
 800124e:	f003 5380 	and.w	r3, r3, #268435456	; 0x10000000
 8001252:	60bb      	str	r3, [r7, #8]
 8001254:	68bb      	ldr	r3, [r7, #8]
      pwrclkchanged = SET;
 8001256:	2301      	movs	r3, #1
 8001258:	75fb      	strb	r3, [r7, #23]
    }

    if(HAL_IS_BIT_CLR(PWR->CR, PWR_CR_DBP))
 800125a:	4b0b      	ldr	r3, [pc, #44]	; (8001288 <HAL_RCC_OscConfig+0x2b8>)
 800125c:	681b      	ldr	r3, [r3, #0]
 800125e:	f403 7380 	and.w	r3, r3, #256	; 0x100
 8001262:	2b00      	cmp	r3, #0
 8001264:	d121      	bne.n	80012aa <HAL_RCC_OscConfig+0x2da>
    {
      /* Enable write access to Backup domain */
      SET_BIT(PWR->CR, PWR_CR_DBP);
 8001266:	4b08      	ldr	r3, [pc, #32]	; (8001288 <HAL_RCC_OscConfig+0x2b8>)
 8001268:	681b      	ldr	r3, [r3, #0]
 800126a:	4a07      	ldr	r2, [pc, #28]	; (8001288 <HAL_RCC_OscConfig+0x2b8>)
 800126c:	f443 7380 	orr.w	r3, r3, #256	; 0x100
 8001270:	6013      	str	r3, [r2, #0]

      /* Wait for Backup domain Write protection disable */
      tickstart = HAL_GetTick();
 8001272:	f7ff fd61 	bl	8000d38 <HAL_GetTick>
 8001276:	6138      	str	r0, [r7, #16]

      while(HAL_IS_BIT_CLR(PWR->CR, PWR_CR_DBP))
 8001278:	e011      	b.n	800129e <HAL_RCC_OscConfig+0x2ce>
 800127a:	bf00      	nop
 800127c:	40023800 	.word	0x40023800
 8001280:	42470000 	.word	0x42470000
 8001284:	42470e80 	.word	0x42470e80
 8001288:	40007000 	.word	0x40007000
      {
        if((HAL_GetTick() - tickstart) > RCC_DBP_TIMEOUT_VALUE)
 800128c:	f7ff fd54 	bl	8000d38 <HAL_GetTick>
 8001290:	4602      	mov	r2, r0
 8001292:	693b      	ldr	r3, [r7, #16]
 8001294:	1ad3      	subs	r3, r2, r3
 8001296:	2b02      	cmp	r3, #2
 8001298:	d901      	bls.n	800129e <HAL_RCC_OscConfig+0x2ce>
        {
          return HAL_TIMEOUT;
 800129a:	2303      	movs	r3, #3
 800129c:	e106      	b.n	80014ac <HAL_RCC_OscConfig+0x4dc>
      while(HAL_IS_BIT_CLR(PWR->CR, PWR_CR_DBP))
 800129e:	4b85      	ldr	r3, [pc, #532]	; (80014b4 <HAL_RCC_OscConfig+0x4e4>)
 80012a0:	681b      	ldr	r3, [r3, #0]
 80012a2:	f403 7380 	and.w	r3, r3, #256	; 0x100
 80012a6:	2b00      	cmp	r3, #0
 80012a8:	d0f0      	beq.n	800128c <HAL_RCC_OscConfig+0x2bc>
        }
      }
    }

    /* Set the new LSE configuration -----------------------------------------*/
    __HAL_RCC_LSE_CONFIG(RCC_OscInitStruct->LSEState);
 80012aa:	687b      	ldr	r3, [r7, #4]
 80012ac:	689b      	ldr	r3, [r3, #8]
 80012ae:	2b01      	cmp	r3, #1
 80012b0:	d106      	bne.n	80012c0 <HAL_RCC_OscConfig+0x2f0>
 80012b2:	4b81      	ldr	r3, [pc, #516]	; (80014b8 <HAL_RCC_OscConfig+0x4e8>)
 80012b4:	6f1b      	ldr	r3, [r3, #112]	; 0x70
 80012b6:	4a80      	ldr	r2, [pc, #512]	; (80014b8 <HAL_RCC_OscConfig+0x4e8>)
 80012b8:	f043 0301 	orr.w	r3, r3, #1
 80012bc:	6713      	str	r3, [r2, #112]	; 0x70
 80012be:	e01c      	b.n	80012fa <HAL_RCC_OscConfig+0x32a>
 80012c0:	687b      	ldr	r3, [r7, #4]
 80012c2:	689b      	ldr	r3, [r3, #8]
 80012c4:	2b05      	cmp	r3, #5
 80012c6:	d10c      	bne.n	80012e2 <HAL_RCC_OscConfig+0x312>
 80012c8:	4b7b      	ldr	r3, [pc, #492]	; (80014b8 <HAL_RCC_OscConfig+0x4e8>)
 80012ca:	6f1b      	ldr	r3, [r3, #112]	; 0x70
 80012cc:	4a7a      	ldr	r2, [pc, #488]	; (80014b8 <HAL_RCC_OscConfig+0x4e8>)
 80012ce:	f043 0304 	orr.w	r3, r3, #4
 80012d2:	6713      	str	r3, [r2, #112]	; 0x70
 80012d4:	4b78      	ldr	r3, [pc, #480]	; (80014b8 <HAL_RCC_OscConfig+0x4e8>)
 80012d6:	6f1b      	ldr	r3, [r3, #112]	; 0x70
 80012d8:	4a77      	ldr	r2, [pc, #476]	; (80014b8 <HAL_RCC_OscConfig+0x4e8>)
 80012da:	f043 0301 	orr.w	r3, r3, #1
 80012de:	6713      	str	r3, [r2, #112]	; 0x70
 80012e0:	e00b      	b.n	80012fa <HAL_RCC_OscConfig+0x32a>
 80012e2:	4b75      	ldr	r3, [pc, #468]	; (80014b8 <HAL_RCC_OscConfig+0x4e8>)
 80012e4:	6f1b      	ldr	r3, [r3, #112]	; 0x70
 80012e6:	4a74      	ldr	r2, [pc, #464]	; (80014b8 <HAL_RCC_OscConfig+0x4e8>)
 80012e8:	f023 0301 	bic.w	r3, r3, #1
 80012ec:	6713      	str	r3, [r2, #112]	; 0x70
 80012ee:	4b72      	ldr	r3, [pc, #456]	; (80014b8 <HAL_RCC_OscConfig+0x4e8>)
 80012f0:	6f1b      	ldr	r3, [r3, #112]	; 0x70
 80012f2:	4a71      	ldr	r2, [pc, #452]	; (80014b8 <HAL_RCC_OscConfig+0x4e8>)
 80012f4:	f023 0304 	bic.w	r3, r3, #4
 80012f8:	6713      	str	r3, [r2, #112]	; 0x70
    /* Check the LSE State */
    if((RCC_OscInitStruct->LSEState) != RCC_LSE_OFF)
 80012fa:	687b      	ldr	r3, [r7, #4]
 80012fc:	689b      	ldr	r3, [r3, #8]
 80012fe:	2b00      	cmp	r3, #0
 8001300:	d015      	beq.n	800132e <HAL_RCC_OscConfig+0x35e>
    {
      /* Get Start Tick*/
      tickstart = HAL_GetTick();
 8001302:	f7ff fd19 	bl	8000d38 <HAL_GetTick>
 8001306:	6138      	str	r0, [r7, #16]

      /* Wait till LSE is ready */
      while(__HAL_RCC_GET_FLAG(RCC_FLAG_LSERDY) == RESET)
 8001308:	e00a      	b.n	8001320 <HAL_RCC_OscConfig+0x350>
      {
        if((HAL_GetTick() - tickstart ) > RCC_LSE_TIMEOUT_VALUE)
 800130a:	f7ff fd15 	bl	8000d38 <HAL_GetTick>
 800130e:	4602      	mov	r2, r0
 8001310:	693b      	ldr	r3, [r7, #16]
 8001312:	1ad3      	subs	r3, r2, r3
 8001314:	f241 3288 	movw	r2, #5000	; 0x1388
 8001318:	4293      	cmp	r3, r2
 800131a:	d901      	bls.n	8001320 <HAL_RCC_OscConfig+0x350>
        {
          return HAL_TIMEOUT;
 800131c:	2303      	movs	r3, #3
 800131e:	e0c5      	b.n	80014ac <HAL_RCC_OscConfig+0x4dc>
      while(__HAL_RCC_GET_FLAG(RCC_FLAG_LSERDY) == RESET)
 8001320:	4b65      	ldr	r3, [pc, #404]	; (80014b8 <HAL_RCC_OscConfig+0x4e8>)
 8001322:	6f1b      	ldr	r3, [r3, #112]	; 0x70
 8001324:	f003 0302 	and.w	r3, r3, #2
 8001328:	2b00      	cmp	r3, #0
 800132a:	d0ee      	beq.n	800130a <HAL_RCC_OscConfig+0x33a>
 800132c:	e014      	b.n	8001358 <HAL_RCC_OscConfig+0x388>
      }
    }
    else
    {
      /* Get Start Tick */
      tickstart = HAL_GetTick();
 800132e:	f7ff fd03 	bl	8000d38 <HAL_GetTick>
 8001332:	6138      	str	r0, [r7, #16]

      /* Wait till LSE is ready */
      while(__HAL_RCC_GET_FLAG(RCC_FLAG_LSERDY) != RESET)
 8001334:	e00a      	b.n	800134c <HAL_RCC_OscConfig+0x37c>
      {
        if((HAL_GetTick() - tickstart ) > RCC_LSE_TIMEOUT_VALUE)
 8001336:	f7ff fcff 	bl	8000d38 <HAL_GetTick>
 800133a:	4602      	mov	r2, r0
 800133c:	693b      	ldr	r3, [r7, #16]
 800133e:	1ad3      	subs	r3, r2, r3
 8001340:	f241 3288 	movw	r2, #5000	; 0x1388
 8001344:	4293      	cmp	r3, r2
 8001346:	d901      	bls.n	800134c <HAL_RCC_OscConfig+0x37c>
        {
          return HAL_TIMEOUT;
 8001348:	2303      	movs	r3, #3
 800134a:	e0af      	b.n	80014ac <HAL_RCC_OscConfig+0x4dc>
      while(__HAL_RCC_GET_FLAG(RCC_FLAG_LSERDY) != RESET)
 800134c:	4b5a      	ldr	r3, [pc, #360]	; (80014b8 <HAL_RCC_OscConfig+0x4e8>)
 800134e:	6f1b      	ldr	r3, [r3, #112]	; 0x70
 8001350:	f003 0302 	and.w	r3, r3, #2
 8001354:	2b00      	cmp	r3, #0
 8001356:	d1ee      	bne.n	8001336 <HAL_RCC_OscConfig+0x366>
        }
      }
    }

    /* Restore clock configuration if changed */
    if(pwrclkchanged == SET)
 8001358:	7dfb      	ldrb	r3, [r7, #23]
 800135a:	2b01      	cmp	r3, #1
 800135c:	d105      	bne.n	800136a <HAL_RCC_OscConfig+0x39a>
    {
      __HAL_RCC_PWR_CLK_DISABLE();
 800135e:	4b56      	ldr	r3, [pc, #344]	; (80014b8 <HAL_RCC_OscConfig+0x4e8>)
 8001360:	6c1b      	ldr	r3, [r3, #64]	; 0x40
 8001362:	4a55      	ldr	r2, [pc, #340]	; (80014b8 <HAL_RCC_OscConfig+0x4e8>)
 8001364:	f023 5380 	bic.w	r3, r3, #268435456	; 0x10000000
 8001368:	6413      	str	r3, [r2, #64]	; 0x40
    }
  }
  /*-------------------------------- PLL Configuration -----------------------*/
  /* Check the parameters */
  assert_param(IS_RCC_PLL(RCC_OscInitStruct->PLL.PLLState));
  if ((RCC_OscInitStruct->PLL.PLLState) != RCC_PLL_NONE)
 800136a:	687b      	ldr	r3, [r7, #4]
 800136c:	699b      	ldr	r3, [r3, #24]
 800136e:	2b00      	cmp	r3, #0
 8001370:	f000 809b 	beq.w	80014aa <HAL_RCC_OscConfig+0x4da>
  {
    /* Check if the PLL is used as system clock or not */
    if(__HAL_RCC_GET_SYSCLK_SOURCE() != RCC_CFGR_SWS_PLL)
 8001374:	4b50      	ldr	r3, [pc, #320]	; (80014b8 <HAL_RCC_OscConfig+0x4e8>)
 8001376:	689b      	ldr	r3, [r3, #8]
 8001378:	f003 030c 	and.w	r3, r3, #12
 800137c:	2b08      	cmp	r3, #8
 800137e:	d05c      	beq.n	800143a <HAL_RCC_OscConfig+0x46a>
    {
      if((RCC_OscInitStruct->PLL.PLLState) == RCC_PLL_ON)
 8001380:	687b      	ldr	r3, [r7, #4]
 8001382:	699b      	ldr	r3, [r3, #24]
 8001384:	2b02      	cmp	r3, #2
 8001386:	d141      	bne.n	800140c <HAL_RCC_OscConfig+0x43c>
        assert_param(IS_RCC_PLLN_VALUE(RCC_OscInitStruct->PLL.PLLN));
        assert_param(IS_RCC_PLLP_VALUE(RCC_OscInitStruct->PLL.PLLP));
        assert_param(IS_RCC_PLLQ_VALUE(RCC_OscInitStruct->PLL.PLLQ));

        /* Disable the main PLL. */
        __HAL_RCC_PLL_DISABLE();
 8001388:	4b4c      	ldr	r3, [pc, #304]	; (80014bc <HAL_RCC_OscConfig+0x4ec>)
 800138a:	2200      	movs	r2, #0
 800138c:	601a      	str	r2, [r3, #0]

        /* Get Start Tick */
        tickstart = HAL_GetTick();
 800138e:	f7ff fcd3 	bl	8000d38 <HAL_GetTick>
 8001392:	6138      	str	r0, [r7, #16]

        /* Wait till PLL is ready */
        while(__HAL_RCC_GET_FLAG(RCC_FLAG_PLLRDY) != RESET)
 8001394:	e008      	b.n	80013a8 <HAL_RCC_OscConfig+0x3d8>
        {
          if((HAL_GetTick() - tickstart ) > PLL_TIMEOUT_VALUE)
 8001396:	f7ff fccf 	bl	8000d38 <HAL_GetTick>
 800139a:	4602      	mov	r2, r0
 800139c:	693b      	ldr	r3, [r7, #16]
 800139e:	1ad3      	subs	r3, r2, r3
 80013a0:	2b02      	cmp	r3, #2
 80013a2:	d901      	bls.n	80013a8 <HAL_RCC_OscConfig+0x3d8>
          {
            return HAL_TIMEOUT;
 80013a4:	2303      	movs	r3, #3
 80013a6:	e081      	b.n	80014ac <HAL_RCC_OscConfig+0x4dc>
        while(__HAL_RCC_GET_FLAG(RCC_FLAG_PLLRDY) != RESET)
 80013a8:	4b43      	ldr	r3, [pc, #268]	; (80014b8 <HAL_RCC_OscConfig+0x4e8>)
 80013aa:	681b      	ldr	r3, [r3, #0]
 80013ac:	f003 7300 	and.w	r3, r3, #33554432	; 0x2000000
 80013b0:	2b00      	cmp	r3, #0
 80013b2:	d1f0      	bne.n	8001396 <HAL_RCC_OscConfig+0x3c6>
          }
        }

        /* Configure the main PLL clock source, multiplication and division factors. */
        WRITE_REG(RCC->PLLCFGR, (RCC_OscInitStruct->PLL.PLLSource                                            | \
 80013b4:	687b      	ldr	r3, [r7, #4]
 80013b6:	69da      	ldr	r2, [r3, #28]
 80013b8:	687b      	ldr	r3, [r7, #4]
 80013ba:	6a1b      	ldr	r3, [r3, #32]
 80013bc:	431a      	orrs	r2, r3
 80013be:	687b      	ldr	r3, [r7, #4]
 80013c0:	6a5b      	ldr	r3, [r3, #36]	; 0x24
 80013c2:	019b      	lsls	r3, r3, #6
 80013c4:	431a      	orrs	r2, r3
 80013c6:	687b      	ldr	r3, [r7, #4]
 80013c8:	6a9b      	ldr	r3, [r3, #40]	; 0x28
 80013ca:	085b      	lsrs	r3, r3, #1
 80013cc:	3b01      	subs	r3, #1
 80013ce:	041b      	lsls	r3, r3, #16
 80013d0:	431a      	orrs	r2, r3
 80013d2:	687b      	ldr	r3, [r7, #4]
 80013d4:	6adb      	ldr	r3, [r3, #44]	; 0x2c
 80013d6:	061b      	lsls	r3, r3, #24
 80013d8:	4937      	ldr	r1, [pc, #220]	; (80014b8 <HAL_RCC_OscConfig+0x4e8>)
 80013da:	4313      	orrs	r3, r2
 80013dc:	604b      	str	r3, [r1, #4]
                                 RCC_OscInitStruct->PLL.PLLM                                                 | \
                                 (RCC_OscInitStruct->PLL.PLLN << RCC_PLLCFGR_PLLN_Pos)             | \
                                 (((RCC_OscInitStruct->PLL.PLLP >> 1U) - 1U) << RCC_PLLCFGR_PLLP_Pos) | \
                                 (RCC_OscInitStruct->PLL.PLLQ << RCC_PLLCFGR_PLLQ_Pos)));
        /* Enable the main PLL. */
        __HAL_RCC_PLL_ENABLE();
 80013de:	4b37      	ldr	r3, [pc, #220]	; (80014bc <HAL_RCC_OscConfig+0x4ec>)
 80013e0:	2201      	movs	r2, #1
 80013e2:	601a      	str	r2, [r3, #0]

        /* Get Start Tick */
        tickstart = HAL_GetTick();
 80013e4:	f7ff fca8 	bl	8000d38 <HAL_GetTick>
 80013e8:	6138      	str	r0, [r7, #16]

        /* Wait till PLL is ready */
        while(__HAL_RCC_GET_FLAG(RCC_FLAG_PLLRDY) == RESET)
 80013ea:	e008      	b.n	80013fe <HAL_RCC_OscConfig+0x42e>
        {
          if((HAL_GetTick() - tickstart ) > PLL_TIMEOUT_VALUE)
 80013ec:	f7ff fca4 	bl	8000d38 <HAL_GetTick>
 80013f0:	4602      	mov	r2, r0
 80013f2:	693b      	ldr	r3, [r7, #16]
 80013f4:	1ad3      	subs	r3, r2, r3
 80013f6:	2b02      	cmp	r3, #2
 80013f8:	d901      	bls.n	80013fe <HAL_RCC_OscConfig+0x42e>
          {
            return HAL_TIMEOUT;
 80013fa:	2303      	movs	r3, #3
 80013fc:	e056      	b.n	80014ac <HAL_RCC_OscConfig+0x4dc>
        while(__HAL_RCC_GET_FLAG(RCC_FLAG_PLLRDY) == RESET)
 80013fe:	4b2e      	ldr	r3, [pc, #184]	; (80014b8 <HAL_RCC_OscConfig+0x4e8>)
 8001400:	681b      	ldr	r3, [r3, #0]
 8001402:	f003 7300 	and.w	r3, r3, #33554432	; 0x2000000
 8001406:	2b00      	cmp	r3, #0
 8001408:	d0f0      	beq.n	80013ec <HAL_RCC_OscConfig+0x41c>
 800140a:	e04e      	b.n	80014aa <HAL_RCC_OscConfig+0x4da>
        }
      }
      else
      {
        /* Disable the main PLL. */
        __HAL_RCC_PLL_DISABLE();
 800140c:	4b2b      	ldr	r3, [pc, #172]	; (80014bc <HAL_RCC_OscConfig+0x4ec>)
 800140e:	2200      	movs	r2, #0
 8001410:	601a      	str	r2, [r3, #0]

        /* Get Start Tick */
        tickstart = HAL_GetTick();
 8001412:	f7ff fc91 	bl	8000d38 <HAL_GetTick>
 8001416:	6138      	str	r0, [r7, #16]

        /* Wait till PLL is ready */
        while(__HAL_RCC_GET_FLAG(RCC_FLAG_PLLRDY) != RESET)
 8001418:	e008      	b.n	800142c <HAL_RCC_OscConfig+0x45c>
        {
          if((HAL_GetTick() - tickstart ) > PLL_TIMEOUT_VALUE)
 800141a:	f7ff fc8d 	bl	8000d38 <HAL_GetTick>
 800141e:	4602      	mov	r2, r0
 8001420:	693b      	ldr	r3, [r7, #16]
 8001422:	1ad3      	subs	r3, r2, r3
 8001424:	2b02      	cmp	r3, #2
 8001426:	d901      	bls.n	800142c <HAL_RCC_OscConfig+0x45c>
          {
            return HAL_TIMEOUT;
 8001428:	2303      	movs	r3, #3
 800142a:	e03f      	b.n	80014ac <HAL_RCC_OscConfig+0x4dc>
        while(__HAL_RCC_GET_FLAG(RCC_FLAG_PLLRDY) != RESET)
 800142c:	4b22      	ldr	r3, [pc, #136]	; (80014b8 <HAL_RCC_OscConfig+0x4e8>)
 800142e:	681b      	ldr	r3, [r3, #0]
 8001430:	f003 7300 	and.w	r3, r3, #33554432	; 0x2000000
 8001434:	2b00      	cmp	r3, #0
 8001436:	d1f0      	bne.n	800141a <HAL_RCC_OscConfig+0x44a>
 8001438:	e037      	b.n	80014aa <HAL_RCC_OscConfig+0x4da>
      }
    }
    else
    {
      /* Check if there is a request to disable the PLL used as System clock source */
      if((RCC_OscInitStruct->PLL.PLLState) == RCC_PLL_OFF)
 800143a:	687b      	ldr	r3, [r7, #4]
 800143c:	699b      	ldr	r3, [r3, #24]
 800143e:	2b01      	cmp	r3, #1
 8001440:	d101      	bne.n	8001446 <HAL_RCC_OscConfig+0x476>
      {
        return HAL_ERROR;
 8001442:	2301      	movs	r3, #1
 8001444:	e032      	b.n	80014ac <HAL_RCC_OscConfig+0x4dc>
      }
      else
      {
        /* Do not return HAL_ERROR if request repeats the current configuration */
        pll_config = RCC->PLLCFGR;
 8001446:	4b1c      	ldr	r3, [pc, #112]	; (80014b8 <HAL_RCC_OscConfig+0x4e8>)
 8001448:	685b      	ldr	r3, [r3, #4]
 800144a:	60fb      	str	r3, [r7, #12]
            (READ_BIT(pll_config, RCC_PLLCFGR_PLLN) != (RCC_OscInitStruct->PLL.PLLN) << RCC_PLLCFGR_PLLN_Pos) ||
            (READ_BIT(pll_config, RCC_PLLCFGR_PLLP) != (((RCC_OscInitStruct->PLL.PLLP >> 1U) - 1U)) << RCC_PLLCFGR_PLLP_Pos) ||
            (READ_BIT(pll_config, RCC_PLLCFGR_PLLQ) != (RCC_OscInitStruct->PLL.PLLQ << RCC_PLLCFGR_PLLQ_Pos)) ||
            (READ_BIT(pll_config, RCC_PLLCFGR_PLLR) != (RCC_OscInitStruct->PLL.PLLR << RCC_PLLCFGR_PLLR_Pos)))
#else
        if (((RCC_OscInitStruct->PLL.PLLState) == RCC_PLL_OFF) ||
 800144c:	687b      	ldr	r3, [r7, #4]
 800144e:	699b      	ldr	r3, [r3, #24]
 8001450:	2b01      	cmp	r3, #1
 8001452:	d028      	beq.n	80014a6 <HAL_RCC_OscConfig+0x4d6>
            (READ_BIT(pll_config, RCC_PLLCFGR_PLLSRC) != RCC_OscInitStruct->PLL.PLLSource) ||
 8001454:	68fb      	ldr	r3, [r7, #12]
 8001456:	f403 0280 	and.w	r2, r3, #4194304	; 0x400000
 800145a:	687b      	ldr	r3, [r7, #4]
 800145c:	69db      	ldr	r3, [r3, #28]
        if (((RCC_OscInitStruct->PLL.PLLState) == RCC_PLL_OFF) ||
 800145e:	429a      	cmp	r2, r3
 8001460:	d121      	bne.n	80014a6 <HAL_RCC_OscConfig+0x4d6>
            (READ_BIT(pll_config, RCC_PLLCFGR_PLLM) != (RCC_OscInitStruct->PLL.PLLM) << RCC_PLLCFGR_PLLM_Pos) ||
 8001462:	68fb      	ldr	r3, [r7, #12]
 8001464:	f003 023f 	and.w	r2, r3, #63	; 0x3f
 8001468:	687b      	ldr	r3, [r7, #4]
 800146a:	6a1b      	ldr	r3, [r3, #32]
            (READ_BIT(pll_config, RCC_PLLCFGR_PLLSRC) != RCC_OscInitStruct->PLL.PLLSource) ||
 800146c:	429a      	cmp	r2, r3
 800146e:	d11a      	bne.n	80014a6 <HAL_RCC_OscConfig+0x4d6>
            (READ_BIT(pll_config, RCC_PLLCFGR_PLLN) != (RCC_OscInitStruct->PLL.PLLN) << RCC_PLLCFGR_PLLN_Pos) ||
 8001470:	68fa      	ldr	r2, [r7, #12]
 8001472:	f647 73c0 	movw	r3, #32704	; 0x7fc0
 8001476:	4013      	ands	r3, r2
 8001478:	687a      	ldr	r2, [r7, #4]
 800147a:	6a52      	ldr	r2, [r2, #36]	; 0x24
 800147c:	0192      	lsls	r2, r2, #6
            (READ_BIT(pll_config, RCC_PLLCFGR_PLLM) != (RCC_OscInitStruct->PLL.PLLM) << RCC_PLLCFGR_PLLM_Pos) ||
 800147e:	4293      	cmp	r3, r2
 8001480:	d111      	bne.n	80014a6 <HAL_RCC_OscConfig+0x4d6>
            (READ_BIT(pll_config, RCC_PLLCFGR_PLLP) != (((RCC_OscInitStruct->PLL.PLLP >> 1U) - 1U)) << RCC_PLLCFGR_PLLP_Pos) ||
 8001482:	68fb      	ldr	r3, [r7, #12]
 8001484:	f403 3240 	and.w	r2, r3, #196608	; 0x30000
 8001488:	687b      	ldr	r3, [r7, #4]
 800148a:	6a9b      	ldr	r3, [r3, #40]	; 0x28
 800148c:	085b      	lsrs	r3, r3, #1
 800148e:	3b01      	subs	r3, #1
 8001490:	041b      	lsls	r3, r3, #16
            (READ_BIT(pll_config, RCC_PLLCFGR_PLLN) != (RCC_OscInitStruct->PLL.PLLN) << RCC_PLLCFGR_PLLN_Pos) ||
 8001492:	429a      	cmp	r2, r3
 8001494:	d107      	bne.n	80014a6 <HAL_RCC_OscConfig+0x4d6>
            (READ_BIT(pll_config, RCC_PLLCFGR_PLLQ) != (RCC_OscInitStruct->PLL.PLLQ << RCC_PLLCFGR_PLLQ_Pos)))
 8001496:	68fb      	ldr	r3, [r7, #12]
 8001498:	f003 6270 	and.w	r2, r3, #251658240	; 0xf000000
 800149c:	687b      	ldr	r3, [r7, #4]
 800149e:	6adb      	ldr	r3, [r3, #44]	; 0x2c
 80014a0:	061b      	lsls	r3, r3, #24
            (READ_BIT(pll_config, RCC_PLLCFGR_PLLP) != (((RCC_OscInitStruct->PLL.PLLP >> 1U) - 1U)) << RCC_PLLCFGR_PLLP_Pos) ||
 80014a2:	429a      	cmp	r2, r3
 80014a4:	d001      	beq.n	80014aa <HAL_RCC_OscConfig+0x4da>
#endif
        {
          return HAL_ERROR;
 80014a6:	2301      	movs	r3, #1
 80014a8:	e000      	b.n	80014ac <HAL_RCC_OscConfig+0x4dc>
        }
      }
    }
  }
  return HAL_OK;
 80014aa:	2300      	movs	r3, #0
}
 80014ac:	4618      	mov	r0, r3
 80014ae:	3718      	adds	r7, #24
 80014b0:	46bd      	mov	sp, r7
 80014b2:	bd80      	pop	{r7, pc}
 80014b4:	40007000 	.word	0x40007000
 80014b8:	40023800 	.word	0x40023800
 80014bc:	42470060 	.word	0x42470060

080014c0 <HAL_RCC_ClockConfig>:
  *         HPRE[3:0] bits to ensure that HCLK not exceed the maximum allowed frequency
  *         (for more details refer to section above "Initialization/de-initialization functions")
  * @retval None
  */
HAL_StatusTypeDef HAL_RCC_ClockConfig(RCC_ClkInitTypeDef  *RCC_ClkInitStruct, uint32_t FLatency)
{
 80014c0:	b580      	push	{r7, lr}
 80014c2:	b084      	sub	sp, #16
 80014c4:	af00      	add	r7, sp, #0
 80014c6:	6078      	str	r0, [r7, #4]
 80014c8:	6039      	str	r1, [r7, #0]
  uint32_t tickstart;

  /* Check Null pointer */
  if(RCC_ClkInitStruct == NULL)
 80014ca:	687b      	ldr	r3, [r7, #4]
 80014cc:	2b00      	cmp	r3, #0
 80014ce:	d101      	bne.n	80014d4 <HAL_RCC_ClockConfig+0x14>
  {
    return HAL_ERROR;
 80014d0:	2301      	movs	r3, #1
 80014d2:	e0cc      	b.n	800166e <HAL_RCC_ClockConfig+0x1ae>
  /* To correctly read data from FLASH memory, the number of wait states (LATENCY)
    must be correctly programmed according to the frequency of the CPU clock
    (HCLK) and the supply voltage of the device. */

  /* Increasing the number of wait states because of higher CPU frequency */
  if(FLatency > __HAL_FLASH_GET_LATENCY())
 80014d4:	4b68      	ldr	r3, [pc, #416]	; (8001678 <HAL_RCC_ClockConfig+0x1b8>)
 80014d6:	681b      	ldr	r3, [r3, #0]
 80014d8:	f003 0307 	and.w	r3, r3, #7
 80014dc:	683a      	ldr	r2, [r7, #0]
 80014de:	429a      	cmp	r2, r3
 80014e0:	d90c      	bls.n	80014fc <HAL_RCC_ClockConfig+0x3c>
  {
    /* Program the new number of wait states to the LATENCY bits in the FLASH_ACR register */
    __HAL_FLASH_SET_LATENCY(FLatency);
 80014e2:	4b65      	ldr	r3, [pc, #404]	; (8001678 <HAL_RCC_ClockConfig+0x1b8>)
 80014e4:	683a      	ldr	r2, [r7, #0]
 80014e6:	b2d2      	uxtb	r2, r2
 80014e8:	701a      	strb	r2, [r3, #0]

    /* Check that the new number of wait states is taken into account to access the Flash
    memory by reading the FLASH_ACR register */
    if(__HAL_FLASH_GET_LATENCY() != FLatency)
 80014ea:	4b63      	ldr	r3, [pc, #396]	; (8001678 <HAL_RCC_ClockConfig+0x1b8>)
 80014ec:	681b      	ldr	r3, [r3, #0]
 80014ee:	f003 0307 	and.w	r3, r3, #7
 80014f2:	683a      	ldr	r2, [r7, #0]
 80014f4:	429a      	cmp	r2, r3
 80014f6:	d001      	beq.n	80014fc <HAL_RCC_ClockConfig+0x3c>
    {
      return HAL_ERROR;
 80014f8:	2301      	movs	r3, #1
 80014fa:	e0b8      	b.n	800166e <HAL_RCC_ClockConfig+0x1ae>
    }
  }

  /*-------------------------- HCLK Configuration --------------------------*/
  if(((RCC_ClkInitStruct->ClockType) & RCC_CLOCKTYPE_HCLK) == RCC_CLOCKTYPE_HCLK)
 80014fc:	687b      	ldr	r3, [r7, #4]
 80014fe:	681b      	ldr	r3, [r3, #0]
 8001500:	f003 0302 	and.w	r3, r3, #2
 8001504:	2b00      	cmp	r3, #0
 8001506:	d020      	beq.n	800154a <HAL_RCC_ClockConfig+0x8a>
  {
    /* Set the highest APBx dividers in order to ensure that we do not go through
       a non-spec phase whatever we decrease or increase HCLK. */
    if(((RCC_ClkInitStruct->ClockType) & RCC_CLOCKTYPE_PCLK1) == RCC_CLOCKTYPE_PCLK1)
 8001508:	687b      	ldr	r3, [r7, #4]
 800150a:	681b      	ldr	r3, [r3, #0]
 800150c:	f003 0304 	and.w	r3, r3, #4
 8001510:	2b00      	cmp	r3, #0
 8001512:	d005      	beq.n	8001520 <HAL_RCC_ClockConfig+0x60>
    {
      MODIFY_REG(RCC->CFGR, RCC_CFGR_PPRE1, RCC_HCLK_DIV16);
 8001514:	4b59      	ldr	r3, [pc, #356]	; (800167c <HAL_RCC_ClockConfig+0x1bc>)
 8001516:	689b      	ldr	r3, [r3, #8]
 8001518:	4a58      	ldr	r2, [pc, #352]	; (800167c <HAL_RCC_ClockConfig+0x1bc>)
 800151a:	f443 53e0 	orr.w	r3, r3, #7168	; 0x1c00
 800151e:	6093      	str	r3, [r2, #8]
    }

    if(((RCC_ClkInitStruct->ClockType) & RCC_CLOCKTYPE_PCLK2) == RCC_CLOCKTYPE_PCLK2)
 8001520:	687b      	ldr	r3, [r7, #4]
 8001522:	681b      	ldr	r3, [r3, #0]
 8001524:	f003 0308 	and.w	r3, r3, #8
 8001528:	2b00      	cmp	r3, #0
 800152a:	d005      	beq.n	8001538 <HAL_RCC_ClockConfig+0x78>
    {
      MODIFY_REG(RCC->CFGR, RCC_CFGR_PPRE2, (RCC_HCLK_DIV16 << 3));
 800152c:	4b53      	ldr	r3, [pc, #332]	; (800167c <HAL_RCC_ClockConfig+0x1bc>)
 800152e:	689b      	ldr	r3, [r3, #8]
 8001530:	4a52      	ldr	r2, [pc, #328]	; (800167c <HAL_RCC_ClockConfig+0x1bc>)
 8001532:	f443 4360 	orr.w	r3, r3, #57344	; 0xe000
 8001536:	6093      	str	r3, [r2, #8]
    }

    assert_param(IS_RCC_HCLK(RCC_ClkInitStruct->AHBCLKDivider));
    MODIFY_REG(RCC->CFGR, RCC_CFGR_HPRE, RCC_ClkInitStruct->AHBCLKDivider);
 8001538:	4b50      	ldr	r3, [pc, #320]	; (800167c <HAL_RCC_ClockConfig+0x1bc>)
 800153a:	689b      	ldr	r3, [r3, #8]
 800153c:	f023 02f0 	bic.w	r2, r3, #240	; 0xf0
 8001540:	687b      	ldr	r3, [r7, #4]
 8001542:	689b      	ldr	r3, [r3, #8]
 8001544:	494d      	ldr	r1, [pc, #308]	; (800167c <HAL_RCC_ClockConfig+0x1bc>)
 8001546:	4313      	orrs	r3, r2
 8001548:	608b      	str	r3, [r1, #8]
  }

  /*------------------------- SYSCLK Configuration ---------------------------*/
  if(((RCC_ClkInitStruct->ClockType) & RCC_CLOCKTYPE_SYSCLK) == RCC_CLOCKTYPE_SYSCLK)
 800154a:	687b      	ldr	r3, [r7, #4]
 800154c:	681b      	ldr	r3, [r3, #0]
 800154e:	f003 0301 	and.w	r3, r3, #1
 8001552:	2b00      	cmp	r3, #0
 8001554:	d044      	beq.n	80015e0 <HAL_RCC_ClockConfig+0x120>
  {
    assert_param(IS_RCC_SYSCLKSOURCE(RCC_ClkInitStruct->SYSCLKSource));

    /* HSE is selected as System Clock Source */
    if(RCC_ClkInitStruct->SYSCLKSource == RCC_SYSCLKSOURCE_HSE)
 8001556:	687b      	ldr	r3, [r7, #4]
 8001558:	685b      	ldr	r3, [r3, #4]
 800155a:	2b01      	cmp	r3, #1
 800155c:	d107      	bne.n	800156e <HAL_RCC_ClockConfig+0xae>
    {
      /* Check the HSE ready flag */
      if(__HAL_RCC_GET_FLAG(RCC_FLAG_HSERDY) == RESET)
 800155e:	4b47      	ldr	r3, [pc, #284]	; (800167c <HAL_RCC_ClockConfig+0x1bc>)
 8001560:	681b      	ldr	r3, [r3, #0]
 8001562:	f403 3300 	and.w	r3, r3, #131072	; 0x20000
 8001566:	2b00      	cmp	r3, #0
 8001568:	d119      	bne.n	800159e <HAL_RCC_ClockConfig+0xde>
      {
        return HAL_ERROR;
 800156a:	2301      	movs	r3, #1
 800156c:	e07f      	b.n	800166e <HAL_RCC_ClockConfig+0x1ae>
      }
    }
    /* PLL is selected as System Clock Source */
    else if((RCC_ClkInitStruct->SYSCLKSource == RCC_SYSCLKSOURCE_PLLCLK)   ||
 800156e:	687b      	ldr	r3, [r7, #4]
 8001570:	685b      	ldr	r3, [r3, #4]
 8001572:	2b02      	cmp	r3, #2
 8001574:	d003      	beq.n	800157e <HAL_RCC_ClockConfig+0xbe>
            (RCC_ClkInitStruct->SYSCLKSource == RCC_SYSCLKSOURCE_PLLRCLK))
 8001576:	687b      	ldr	r3, [r7, #4]
 8001578:	685b      	ldr	r3, [r3, #4]
    else if((RCC_ClkInitStruct->SYSCLKSource == RCC_SYSCLKSOURCE_PLLCLK)   ||
 800157a:	2b03      	cmp	r3, #3
 800157c:	d107      	bne.n	800158e <HAL_RCC_ClockConfig+0xce>
    {
      /* Check the PLL ready flag */
      if(__HAL_RCC_GET_FLAG(RCC_FLAG_PLLRDY) == RESET)
 800157e:	4b3f      	ldr	r3, [pc, #252]	; (800167c <HAL_RCC_ClockConfig+0x1bc>)
 8001580:	681b      	ldr	r3, [r3, #0]
 8001582:	f003 7300 	and.w	r3, r3, #33554432	; 0x2000000
 8001586:	2b00      	cmp	r3, #0
 8001588:	d109      	bne.n	800159e <HAL_RCC_ClockConfig+0xde>
      {
        return HAL_ERROR;
 800158a:	2301      	movs	r3, #1
 800158c:	e06f      	b.n	800166e <HAL_RCC_ClockConfig+0x1ae>
    }
    /* HSI is selected as System Clock Source */
    else
    {
      /* Check the HSI ready flag */
      if(__HAL_RCC_GET_FLAG(RCC_FLAG_HSIRDY) == RESET)
 800158e:	4b3b      	ldr	r3, [pc, #236]	; (800167c <HAL_RCC_ClockConfig+0x1bc>)
 8001590:	681b      	ldr	r3, [r3, #0]
 8001592:	f003 0302 	and.w	r3, r3, #2
 8001596:	2b00      	cmp	r3, #0
 8001598:	d101      	bne.n	800159e <HAL_RCC_ClockConfig+0xde>
      {
        return HAL_ERROR;
 800159a:	2301      	movs	r3, #1
 800159c:	e067      	b.n	800166e <HAL_RCC_ClockConfig+0x1ae>
      }
    }

    __HAL_RCC_SYSCLK_CONFIG(RCC_ClkInitStruct->SYSCLKSource);
 800159e:	4b37      	ldr	r3, [pc, #220]	; (800167c <HAL_RCC_ClockConfig+0x1bc>)
 80015a0:	689b      	ldr	r3, [r3, #8]
 80015a2:	f023 0203 	bic.w	r2, r3, #3
 80015a6:	687b      	ldr	r3, [r7, #4]
 80015a8:	685b      	ldr	r3, [r3, #4]
 80015aa:	4934      	ldr	r1, [pc, #208]	; (800167c <HAL_RCC_ClockConfig+0x1bc>)
 80015ac:	4313      	orrs	r3, r2
 80015ae:	608b      	str	r3, [r1, #8]

    /* Get Start Tick */
    tickstart = HAL_GetTick();
 80015b0:	f7ff fbc2 	bl	8000d38 <HAL_GetTick>
 80015b4:	60f8      	str	r0, [r7, #12]

    while (__HAL_RCC_GET_SYSCLK_SOURCE() != (RCC_ClkInitStruct->SYSCLKSource << RCC_CFGR_SWS_Pos))
 80015b6:	e00a      	b.n	80015ce <HAL_RCC_ClockConfig+0x10e>
    {
      if ((HAL_GetTick() - tickstart) > CLOCKSWITCH_TIMEOUT_VALUE)
 80015b8:	f7ff fbbe 	bl	8000d38 <HAL_GetTick>
 80015bc:	4602      	mov	r2, r0
 80015be:	68fb      	ldr	r3, [r7, #12]
 80015c0:	1ad3      	subs	r3, r2, r3
 80015c2:	f241 3288 	movw	r2, #5000	; 0x1388
 80015c6:	4293      	cmp	r3, r2
 80015c8:	d901      	bls.n	80015ce <HAL_RCC_ClockConfig+0x10e>
      {
        return HAL_TIMEOUT;
 80015ca:	2303      	movs	r3, #3
 80015cc:	e04f      	b.n	800166e <HAL_RCC_ClockConfig+0x1ae>
    while (__HAL_RCC_GET_SYSCLK_SOURCE() != (RCC_ClkInitStruct->SYSCLKSource << RCC_CFGR_SWS_Pos))
 80015ce:	4b2b      	ldr	r3, [pc, #172]	; (800167c <HAL_RCC_ClockConfig+0x1bc>)
 80015d0:	689b      	ldr	r3, [r3, #8]
 80015d2:	f003 020c 	and.w	r2, r3, #12
 80015d6:	687b      	ldr	r3, [r7, #4]
 80015d8:	685b      	ldr	r3, [r3, #4]
 80015da:	009b      	lsls	r3, r3, #2
 80015dc:	429a      	cmp	r2, r3
 80015de:	d1eb      	bne.n	80015b8 <HAL_RCC_ClockConfig+0xf8>
      }
    }
  }

  /* Decreasing the number of wait states because of lower CPU frequency */
  if(FLatency < __HAL_FLASH_GET_LATENCY())
 80015e0:	4b25      	ldr	r3, [pc, #148]	; (8001678 <HAL_RCC_ClockConfig+0x1b8>)
 80015e2:	681b      	ldr	r3, [r3, #0]
 80015e4:	f003 0307 	and.w	r3, r3, #7
 80015e8:	683a      	ldr	r2, [r7, #0]
 80015ea:	429a      	cmp	r2, r3
 80015ec:	d20c      	bcs.n	8001608 <HAL_RCC_ClockConfig+0x148>
  {
     /* Program the new number of wait states to the LATENCY bits in the FLASH_ACR register */
    __HAL_FLASH_SET_LATENCY(FLatency);
 80015ee:	4b22      	ldr	r3, [pc, #136]	; (8001678 <HAL_RCC_ClockConfig+0x1b8>)
 80015f0:	683a      	ldr	r2, [r7, #0]
 80015f2:	b2d2      	uxtb	r2, r2
 80015f4:	701a      	strb	r2, [r3, #0]

    /* Check that the new number of wait states is taken into account to access the Flash
    memory by reading the FLASH_ACR register */
    if(__HAL_FLASH_GET_LATENCY() != FLatency)
 80015f6:	4b20      	ldr	r3, [pc, #128]	; (8001678 <HAL_RCC_ClockConfig+0x1b8>)
 80015f8:	681b      	ldr	r3, [r3, #0]
 80015fa:	f003 0307 	and.w	r3, r3, #7
 80015fe:	683a      	ldr	r2, [r7, #0]
 8001600:	429a      	cmp	r2, r3
 8001602:	d001      	beq.n	8001608 <HAL_RCC_ClockConfig+0x148>
    {
      return HAL_ERROR;
 8001604:	2301      	movs	r3, #1
 8001606:	e032      	b.n	800166e <HAL_RCC_ClockConfig+0x1ae>
    }
  }

  /*-------------------------- PCLK1 Configuration ---------------------------*/
  if(((RCC_ClkInitStruct->ClockType) & RCC_CLOCKTYPE_PCLK1) == RCC_CLOCKTYPE_PCLK1)
 8001608:	687b      	ldr	r3, [r7, #4]
 800160a:	681b      	ldr	r3, [r3, #0]
 800160c:	f003 0304 	and.w	r3, r3, #4
 8001610:	2b00      	cmp	r3, #0
 8001612:	d008      	beq.n	8001626 <HAL_RCC_ClockConfig+0x166>
  {
    assert_param(IS_RCC_PCLK(RCC_ClkInitStruct->APB1CLKDivider));
    MODIFY_REG(RCC->CFGR, RCC_CFGR_PPRE1, RCC_ClkInitStruct->APB1CLKDivider);
 8001614:	4b19      	ldr	r3, [pc, #100]	; (800167c <HAL_RCC_ClockConfig+0x1bc>)
 8001616:	689b      	ldr	r3, [r3, #8]
 8001618:	f423 52e0 	bic.w	r2, r3, #7168	; 0x1c00
 800161c:	687b      	ldr	r3, [r7, #4]
 800161e:	68db      	ldr	r3, [r3, #12]
 8001620:	4916      	ldr	r1, [pc, #88]	; (800167c <HAL_RCC_ClockConfig+0x1bc>)
 8001622:	4313      	orrs	r3, r2
 8001624:	608b      	str	r3, [r1, #8]
  }

  /*-------------------------- PCLK2 Configuration ---------------------------*/
  if(((RCC_ClkInitStruct->ClockType) & RCC_CLOCKTYPE_PCLK2) == RCC_CLOCKTYPE_PCLK2)
 8001626:	687b      	ldr	r3, [r7, #4]
 8001628:	681b      	ldr	r3, [r3, #0]
 800162a:	f003 0308 	and.w	r3, r3, #8
 800162e:	2b00      	cmp	r3, #0
 8001630:	d009      	beq.n	8001646 <HAL_RCC_ClockConfig+0x186>
  {
    assert_param(IS_RCC_PCLK(RCC_ClkInitStruct->APB2CLKDivider));
    MODIFY_REG(RCC->CFGR, RCC_CFGR_PPRE2, ((RCC_ClkInitStruct->APB2CLKDivider) << 3U));
 8001632:	4b12      	ldr	r3, [pc, #72]	; (800167c <HAL_RCC_ClockConfig+0x1bc>)
 8001634:	689b      	ldr	r3, [r3, #8]
 8001636:	f423 4260 	bic.w	r2, r3, #57344	; 0xe000
 800163a:	687b      	ldr	r3, [r7, #4]
 800163c:	691b      	ldr	r3, [r3, #16]
 800163e:	00db      	lsls	r3, r3, #3
 8001640:	490e      	ldr	r1, [pc, #56]	; (800167c <HAL_RCC_ClockConfig+0x1bc>)
 8001642:	4313      	orrs	r3, r2
 8001644:	608b      	str	r3, [r1, #8]
  }

  /* Update the SystemCoreClock global variable */
  SystemCoreClock = HAL_RCC_GetSysClockFreq() >> AHBPrescTable[(RCC->CFGR & RCC_CFGR_HPRE)>> RCC_CFGR_HPRE_Pos];
 8001646:	f000 f821 	bl	800168c <HAL_RCC_GetSysClockFreq>
 800164a:	4601      	mov	r1, r0
 800164c:	4b0b      	ldr	r3, [pc, #44]	; (800167c <HAL_RCC_ClockConfig+0x1bc>)
 800164e:	689b      	ldr	r3, [r3, #8]
 8001650:	091b      	lsrs	r3, r3, #4
 8001652:	f003 030f 	and.w	r3, r3, #15
 8001656:	4a0a      	ldr	r2, [pc, #40]	; (8001680 <HAL_RCC_ClockConfig+0x1c0>)
 8001658:	5cd3      	ldrb	r3, [r2, r3]
 800165a:	fa21 f303 	lsr.w	r3, r1, r3
 800165e:	4a09      	ldr	r2, [pc, #36]	; (8001684 <HAL_RCC_ClockConfig+0x1c4>)
 8001660:	6013      	str	r3, [r2, #0]

  /* Configure the source of time base considering new system clocks settings */
  HAL_InitTick (uwTickPrio);
 8001662:	4b09      	ldr	r3, [pc, #36]	; (8001688 <HAL_RCC_ClockConfig+0x1c8>)
 8001664:	681b      	ldr	r3, [r3, #0]
 8001666:	4618      	mov	r0, r3
 8001668:	f7ff fb22 	bl	8000cb0 <HAL_InitTick>

  return HAL_OK;
 800166c:	2300      	movs	r3, #0
}
 800166e:	4618      	mov	r0, r3
 8001670:	3710      	adds	r7, #16
 8001672:	46bd      	mov	sp, r7
 8001674:	bd80      	pop	{r7, pc}
 8001676:	bf00      	nop
 8001678:	40023c00 	.word	0x40023c00
 800167c:	40023800 	.word	0x40023800
 8001680:	08007c04 	.word	0x08007c04
 8001684:	20000000 	.word	0x20000000
 8001688:	20000004 	.word	0x20000004

0800168c <HAL_RCC_GetSysClockFreq>:
  *
  *
  * @retval SYSCLK frequency
  */
__weak uint32_t HAL_RCC_GetSysClockFreq(void)
{
 800168c:	b5f0      	push	{r4, r5, r6, r7, lr}
 800168e:	b085      	sub	sp, #20
 8001690:	af00      	add	r7, sp, #0
  uint32_t pllm = 0U, pllvco = 0U, pllp = 0U;
 8001692:	2300      	movs	r3, #0
 8001694:	607b      	str	r3, [r7, #4]
 8001696:	2300      	movs	r3, #0
 8001698:	60fb      	str	r3, [r7, #12]
 800169a:	2300      	movs	r3, #0
 800169c:	603b      	str	r3, [r7, #0]
  uint32_t sysclockfreq = 0U;
 800169e:	2300      	movs	r3, #0
 80016a0:	60bb      	str	r3, [r7, #8]

  /* Get SYSCLK source -------------------------------------------------------*/
  switch (RCC->CFGR & RCC_CFGR_SWS)
 80016a2:	4b63      	ldr	r3, [pc, #396]	; (8001830 <HAL_RCC_GetSysClockFreq+0x1a4>)
 80016a4:	689b      	ldr	r3, [r3, #8]
 80016a6:	f003 030c 	and.w	r3, r3, #12
 80016aa:	2b04      	cmp	r3, #4
 80016ac:	d007      	beq.n	80016be <HAL_RCC_GetSysClockFreq+0x32>
 80016ae:	2b08      	cmp	r3, #8
 80016b0:	d008      	beq.n	80016c4 <HAL_RCC_GetSysClockFreq+0x38>
 80016b2:	2b00      	cmp	r3, #0
 80016b4:	f040 80b4 	bne.w	8001820 <HAL_RCC_GetSysClockFreq+0x194>
  {
    case RCC_CFGR_SWS_HSI:  /* HSI used as system clock source */
    {
      sysclockfreq = HSI_VALUE;
 80016b8:	4b5e      	ldr	r3, [pc, #376]	; (8001834 <HAL_RCC_GetSysClockFreq+0x1a8>)
 80016ba:	60bb      	str	r3, [r7, #8]
       break;
 80016bc:	e0b3      	b.n	8001826 <HAL_RCC_GetSysClockFreq+0x19a>
    }
    case RCC_CFGR_SWS_HSE:  /* HSE used as system clock  source */
    {
      sysclockfreq = HSE_VALUE;
 80016be:	4b5e      	ldr	r3, [pc, #376]	; (8001838 <HAL_RCC_GetSysClockFreq+0x1ac>)
 80016c0:	60bb      	str	r3, [r7, #8]
      break;
 80016c2:	e0b0      	b.n	8001826 <HAL_RCC_GetSysClockFreq+0x19a>
    }
    case RCC_CFGR_SWS_PLL:  /* PLL used as system clock  source */
    {
      /* PLL_VCO = (HSE_VALUE or HSI_VALUE / PLLM) * PLLN
      SYSCLK = PLL_VCO / PLLP */
      pllm = RCC->PLLCFGR & RCC_PLLCFGR_PLLM;
 80016c4:	4b5a      	ldr	r3, [pc, #360]	; (8001830 <HAL_RCC_GetSysClockFreq+0x1a4>)
 80016c6:	685b      	ldr	r3, [r3, #4]
 80016c8:	f003 033f 	and.w	r3, r3, #63	; 0x3f
 80016cc:	607b      	str	r3, [r7, #4]
      if(__HAL_RCC_GET_PLL_OSCSOURCE() != RCC_PLLSOURCE_HSI)
 80016ce:	4b58      	ldr	r3, [pc, #352]	; (8001830 <HAL_RCC_GetSysClockFreq+0x1a4>)
 80016d0:	685b      	ldr	r3, [r3, #4]
 80016d2:	f403 0380 	and.w	r3, r3, #4194304	; 0x400000
 80016d6:	2b00      	cmp	r3, #0
 80016d8:	d04a      	beq.n	8001770 <HAL_RCC_GetSysClockFreq+0xe4>
      {
        /* HSE used as PLL clock source */
        pllvco = (uint32_t) ((((uint64_t) HSE_VALUE * ((uint64_t) ((RCC->PLLCFGR & RCC_PLLCFGR_PLLN) >> RCC_PLLCFGR_PLLN_Pos)))) / (uint64_t)pllm);
 80016da:	4b55      	ldr	r3, [pc, #340]	; (8001830 <HAL_RCC_GetSysClockFreq+0x1a4>)
 80016dc:	685b      	ldr	r3, [r3, #4]
 80016de:	099b      	lsrs	r3, r3, #6
 80016e0:	f04f 0400 	mov.w	r4, #0
 80016e4:	f240 11ff 	movw	r1, #511	; 0x1ff
 80016e8:	f04f 0200 	mov.w	r2, #0
 80016ec:	ea03 0501 	and.w	r5, r3, r1
 80016f0:	ea04 0602 	and.w	r6, r4, r2
 80016f4:	4629      	mov	r1, r5
 80016f6:	4632      	mov	r2, r6
 80016f8:	f04f 0300 	mov.w	r3, #0
 80016fc:	f04f 0400 	mov.w	r4, #0
 8001700:	0154      	lsls	r4, r2, #5
 8001702:	ea44 64d1 	orr.w	r4, r4, r1, lsr #27
 8001706:	014b      	lsls	r3, r1, #5
 8001708:	4619      	mov	r1, r3
 800170a:	4622      	mov	r2, r4
 800170c:	1b49      	subs	r1, r1, r5
 800170e:	eb62 0206 	sbc.w	r2, r2, r6
 8001712:	f04f 0300 	mov.w	r3, #0
 8001716:	f04f 0400 	mov.w	r4, #0
 800171a:	0194      	lsls	r4, r2, #6
 800171c:	ea44 6491 	orr.w	r4, r4, r1, lsr #26
 8001720:	018b      	lsls	r3, r1, #6
 8001722:	1a5b      	subs	r3, r3, r1
 8001724:	eb64 0402 	sbc.w	r4, r4, r2
 8001728:	f04f 0100 	mov.w	r1, #0
 800172c:	f04f 0200 	mov.w	r2, #0
 8001730:	00e2      	lsls	r2, r4, #3
 8001732:	ea42 7253 	orr.w	r2, r2, r3, lsr #29
 8001736:	00d9      	lsls	r1, r3, #3
 8001738:	460b      	mov	r3, r1
 800173a:	4614      	mov	r4, r2
 800173c:	195b      	adds	r3, r3, r5
 800173e:	eb44 0406 	adc.w	r4, r4, r6
 8001742:	f04f 0100 	mov.w	r1, #0
 8001746:	f04f 0200 	mov.w	r2, #0
 800174a:	0262      	lsls	r2, r4, #9
 800174c:	ea42 52d3 	orr.w	r2, r2, r3, lsr #23
 8001750:	0259      	lsls	r1, r3, #9
 8001752:	460b      	mov	r3, r1
 8001754:	4614      	mov	r4, r2
 8001756:	4618      	mov	r0, r3
 8001758:	4621      	mov	r1, r4
 800175a:	687b      	ldr	r3, [r7, #4]
 800175c:	f04f 0400 	mov.w	r4, #0
 8001760:	461a      	mov	r2, r3
 8001762:	4623      	mov	r3, r4
 8001764:	f000 ff14 	bl	8002590 <__aeabi_uldivmod>
 8001768:	4603      	mov	r3, r0
 800176a:	460c      	mov	r4, r1
 800176c:	60fb      	str	r3, [r7, #12]
 800176e:	e049      	b.n	8001804 <HAL_RCC_GetSysClockFreq+0x178>
      }
      else
      {
        /* HSI used as PLL clock source */
        pllvco = (uint32_t) ((((uint64_t) HSI_VALUE * ((uint64_t) ((RCC->PLLCFGR & RCC_PLLCFGR_PLLN) >> RCC_PLLCFGR_PLLN_Pos)))) / (uint64_t)pllm);
 8001770:	4b2f      	ldr	r3, [pc, #188]	; (8001830 <HAL_RCC_GetSysClockFreq+0x1a4>)
 8001772:	685b      	ldr	r3, [r3, #4]
 8001774:	099b      	lsrs	r3, r3, #6
 8001776:	f04f 0400 	mov.w	r4, #0
 800177a:	f240 11ff 	movw	r1, #511	; 0x1ff
 800177e:	f04f 0200 	mov.w	r2, #0
 8001782:	ea03 0501 	and.w	r5, r3, r1
 8001786:	ea04 0602 	and.w	r6, r4, r2
 800178a:	4629      	mov	r1, r5
 800178c:	4632      	mov	r2, r6
 800178e:	f04f 0300 	mov.w	r3, #0
 8001792:	f04f 0400 	mov.w	r4, #0
 8001796:	0154      	lsls	r4, r2, #5
 8001798:	ea44 64d1 	orr.w	r4, r4, r1, lsr #27
 800179c:	014b      	lsls	r3, r1, #5
 800179e:	4619      	mov	r1, r3
 80017a0:	4622      	mov	r2, r4
 80017a2:	1b49      	subs	r1, r1, r5
 80017a4:	eb62 0206 	sbc.w	r2, r2, r6
 80017a8:	f04f 0300 	mov.w	r3, #0
 80017ac:	f04f 0400 	mov.w	r4, #0
 80017b0:	0194      	lsls	r4, r2, #6
 80017b2:	ea44 6491 	orr.w	r4, r4, r1, lsr #26
 80017b6:	018b      	lsls	r3, r1, #6
 80017b8:	1a5b      	subs	r3, r3, r1
 80017ba:	eb64 0402 	sbc.w	r4, r4, r2
 80017be:	f04f 0100 	mov.w	r1, #0
 80017c2:	f04f 0200 	mov.w	r2, #0
 80017c6:	00e2      	lsls	r2, r4, #3
 80017c8:	ea42 7253 	orr.w	r2, r2, r3, lsr #29
 80017cc:	00d9      	lsls	r1, r3, #3
 80017ce:	460b      	mov	r3, r1
 80017d0:	4614      	mov	r4, r2
 80017d2:	195b      	adds	r3, r3, r5
 80017d4:	eb44 0406 	adc.w	r4, r4, r6
 80017d8:	f04f 0100 	mov.w	r1, #0
 80017dc:	f04f 0200 	mov.w	r2, #0
 80017e0:	02a2      	lsls	r2, r4, #10
 80017e2:	ea42 5293 	orr.w	r2, r2, r3, lsr #22
 80017e6:	0299      	lsls	r1, r3, #10
 80017e8:	460b      	mov	r3, r1
 80017ea:	4614      	mov	r4, r2
 80017ec:	4618      	mov	r0, r3
 80017ee:	4621      	mov	r1, r4
 80017f0:	687b      	ldr	r3, [r7, #4]
 80017f2:	f04f 0400 	mov.w	r4, #0
 80017f6:	461a      	mov	r2, r3
 80017f8:	4623      	mov	r3, r4
 80017fa:	f000 fec9 	bl	8002590 <__aeabi_uldivmod>
 80017fe:	4603      	mov	r3, r0
 8001800:	460c      	mov	r4, r1
 8001802:	60fb      	str	r3, [r7, #12]
      }
      pllp = ((((RCC->PLLCFGR & RCC_PLLCFGR_PLLP) >> RCC_PLLCFGR_PLLP_Pos) + 1U) *2U);
 8001804:	4b0a      	ldr	r3, [pc, #40]	; (8001830 <HAL_RCC_GetSysClockFreq+0x1a4>)
 8001806:	685b      	ldr	r3, [r3, #4]
 8001808:	0c1b      	lsrs	r3, r3, #16
 800180a:	f003 0303 	and.w	r3, r3, #3
 800180e:	3301      	adds	r3, #1
 8001810:	005b      	lsls	r3, r3, #1
 8001812:	603b      	str	r3, [r7, #0]

      sysclockfreq = pllvco/pllp;
 8001814:	68fa      	ldr	r2, [r7, #12]
 8001816:	683b      	ldr	r3, [r7, #0]
 8001818:	fbb2 f3f3 	udiv	r3, r2, r3
 800181c:	60bb      	str	r3, [r7, #8]
      break;
 800181e:	e002      	b.n	8001826 <HAL_RCC_GetSysClockFreq+0x19a>
    }
    default:
    {
      sysclockfreq = HSI_VALUE;
 8001820:	4b04      	ldr	r3, [pc, #16]	; (8001834 <HAL_RCC_GetSysClockFreq+0x1a8>)
 8001822:	60bb      	str	r3, [r7, #8]
      break;
 8001824:	bf00      	nop
    }
  }
  return sysclockfreq;
 8001826:	68bb      	ldr	r3, [r7, #8]
}
 8001828:	4618      	mov	r0, r3
 800182a:	3714      	adds	r7, #20
 800182c:	46bd      	mov	sp, r7
 800182e:	bdf0      	pop	{r4, r5, r6, r7, pc}
 8001830:	40023800 	.word	0x40023800
 8001834:	00f42400 	.word	0x00f42400
 8001838:	007a1200 	.word	0x007a1200

0800183c <HAL_RCC_GetHCLKFreq>:
  * @note   The SystemCoreClock CMSIS variable is used to store System Clock Frequency
  *         and updated within this function
  * @retval HCLK frequency
  */
uint32_t HAL_RCC_GetHCLKFreq(void)
{
 800183c:	b480      	push	{r7}
 800183e:	af00      	add	r7, sp, #0
  return SystemCoreClock;
 8001840:	4b03      	ldr	r3, [pc, #12]	; (8001850 <HAL_RCC_GetHCLKFreq+0x14>)
 8001842:	681b      	ldr	r3, [r3, #0]
}
 8001844:	4618      	mov	r0, r3
 8001846:	46bd      	mov	sp, r7
 8001848:	f85d 7b04 	ldr.w	r7, [sp], #4
 800184c:	4770      	bx	lr
 800184e:	bf00      	nop
 8001850:	20000000 	.word	0x20000000

08001854 <HAL_RCC_GetPCLK1Freq>:
  * @note   Each time PCLK1 changes, this function must be called to update the
  *         right PCLK1 value. Otherwise, any configuration based on this function will be incorrect.
  * @retval PCLK1 frequency
  */
uint32_t HAL_RCC_GetPCLK1Freq(void)
{
 8001854:	b580      	push	{r7, lr}
 8001856:	af00      	add	r7, sp, #0
  /* Get HCLK source and Compute PCLK1 frequency ---------------------------*/
  return (HAL_RCC_GetHCLKFreq() >> APBPrescTable[(RCC->CFGR & RCC_CFGR_PPRE1)>> RCC_CFGR_PPRE1_Pos]);
 8001858:	f7ff fff0 	bl	800183c <HAL_RCC_GetHCLKFreq>
 800185c:	4601      	mov	r1, r0
 800185e:	4b05      	ldr	r3, [pc, #20]	; (8001874 <HAL_RCC_GetPCLK1Freq+0x20>)
 8001860:	689b      	ldr	r3, [r3, #8]
 8001862:	0a9b      	lsrs	r3, r3, #10
 8001864:	f003 0307 	and.w	r3, r3, #7
 8001868:	4a03      	ldr	r2, [pc, #12]	; (8001878 <HAL_RCC_GetPCLK1Freq+0x24>)
 800186a:	5cd3      	ldrb	r3, [r2, r3]
 800186c:	fa21 f303 	lsr.w	r3, r1, r3
}
 8001870:	4618      	mov	r0, r3
 8001872:	bd80      	pop	{r7, pc}
 8001874:	40023800 	.word	0x40023800
 8001878:	08007c14 	.word	0x08007c14

0800187c <HAL_RCC_GetPCLK2Freq>:
  * @note   Each time PCLK2 changes, this function must be called to update the
  *         right PCLK2 value. Otherwise, any configuration based on this function will be incorrect.
  * @retval PCLK2 frequency
  */
uint32_t HAL_RCC_GetPCLK2Freq(void)
{
 800187c:	b580      	push	{r7, lr}
 800187e:	af00      	add	r7, sp, #0
  /* Get HCLK source and Compute PCLK2 frequency ---------------------------*/
  return (HAL_RCC_GetHCLKFreq()>> APBPrescTable[(RCC->CFGR & RCC_CFGR_PPRE2)>> RCC_CFGR_PPRE2_Pos]);
 8001880:	f7ff ffdc 	bl	800183c <HAL_RCC_GetHCLKFreq>
 8001884:	4601      	mov	r1, r0
 8001886:	4b05      	ldr	r3, [pc, #20]	; (800189c <HAL_RCC_GetPCLK2Freq+0x20>)
 8001888:	689b      	ldr	r3, [r3, #8]
 800188a:	0b5b      	lsrs	r3, r3, #13
 800188c:	f003 0307 	and.w	r3, r3, #7
 8001890:	4a03      	ldr	r2, [pc, #12]	; (80018a0 <HAL_RCC_GetPCLK2Freq+0x24>)
 8001892:	5cd3      	ldrb	r3, [r2, r3]
 8001894:	fa21 f303 	lsr.w	r3, r1, r3
}
 8001898:	4618      	mov	r0, r3
 800189a:	bd80      	pop	{r7, pc}
 800189c:	40023800 	.word	0x40023800
 80018a0:	08007c14 	.word	0x08007c14

080018a4 <HAL_DMA_Init>:
  * @param  hdma Pointer to a DMA_HandleTypeDef structure that contains
  *               the configuration information for the specified DMA Stream.  
  * @retval HAL status
  */
HAL_StatusTypeDef HAL_DMA_Init(DMA_HandleTypeDef *hdma)
{
 80018a4:	b580      	push	{r7, lr}
 80018a6:	b086      	sub	sp, #24
 80018a8:	af00      	add	r7, sp, #0
 80018aa:	6078      	str	r0, [r7, #4]
  uint32_t tmp = 0U;
 80018ac:	2300      	movs	r3, #0
 80018ae:	617b      	str	r3, [r7, #20]
  uint32_t tickstart = HAL_GetTick();
 80018b0:	f7ff fa42 	bl	8000d38 <HAL_GetTick>
 80018b4:	6138      	str	r0, [r7, #16]
  DMA_Base_Registers *regs;

  /* Check the DMA peripheral state */
  if(hdma == NULL)
 80018b6:	687b      	ldr	r3, [r7, #4]
 80018b8:	2b00      	cmp	r3, #0
 80018ba:	d101      	bne.n	80018c0 <HAL_DMA_Init+0x1c>
  {
    return HAL_ERROR;
 80018bc:	2301      	movs	r3, #1
 80018be:	e099      	b.n	80019f4 <HAL_DMA_Init+0x150>
    assert_param(IS_DMA_MEMORY_BURST(hdma->Init.MemBurst));
    assert_param(IS_DMA_PERIPHERAL_BURST(hdma->Init.PeriphBurst));
  }
  
  /* Allocate lock resource */
  __HAL_UNLOCK(hdma);
 80018c0:	687b      	ldr	r3, [r7, #4]
 80018c2:	2200      	movs	r2, #0
 80018c4:	f883 2034 	strb.w	r2, [r3, #52]	; 0x34

  /* Change DMA peripheral state */
  hdma->State = HAL_DMA_STATE_BUSY;
 80018c8:	687b      	ldr	r3, [r7, #4]
 80018ca:	2202      	movs	r2, #2
 80018cc:	f883 2035 	strb.w	r2, [r3, #53]	; 0x35
  
  /* Disable the peripheral */
  __HAL_DMA_DISABLE(hdma);
 80018d0:	687b      	ldr	r3, [r7, #4]
 80018d2:	681b      	ldr	r3, [r3, #0]
 80018d4:	681a      	ldr	r2, [r3, #0]
 80018d6:	687b      	ldr	r3, [r7, #4]
 80018d8:	681b      	ldr	r3, [r3, #0]
 80018da:	f022 0201 	bic.w	r2, r2, #1
 80018de:	601a      	str	r2, [r3, #0]
  
  /* Check if the DMA Stream is effectively disabled */
  while((hdma->Instance->CR & DMA_SxCR_EN) != RESET)
 80018e0:	e00f      	b.n	8001902 <HAL_DMA_Init+0x5e>
  {
    /* Check for the Timeout */
    if((HAL_GetTick() - tickstart ) > HAL_TIMEOUT_DMA_ABORT)
 80018e2:	f7ff fa29 	bl	8000d38 <HAL_GetTick>
 80018e6:	4602      	mov	r2, r0
 80018e8:	693b      	ldr	r3, [r7, #16]
 80018ea:	1ad3      	subs	r3, r2, r3
 80018ec:	2b05      	cmp	r3, #5
 80018ee:	d908      	bls.n	8001902 <HAL_DMA_Init+0x5e>
    {
      /* Update error code */
      hdma->ErrorCode = HAL_DMA_ERROR_TIMEOUT;
 80018f0:	687b      	ldr	r3, [r7, #4]
 80018f2:	2220      	movs	r2, #32
 80018f4:	655a      	str	r2, [r3, #84]	; 0x54
      
      /* Change the DMA state */
      hdma->State = HAL_DMA_STATE_TIMEOUT;
 80018f6:	687b      	ldr	r3, [r7, #4]
 80018f8:	2203      	movs	r2, #3
 80018fa:	f883 2035 	strb.w	r2, [r3, #53]	; 0x35
      
      return HAL_TIMEOUT;
 80018fe:	2303      	movs	r3, #3
 8001900:	e078      	b.n	80019f4 <HAL_DMA_Init+0x150>
  while((hdma->Instance->CR & DMA_SxCR_EN) != RESET)
 8001902:	687b      	ldr	r3, [r7, #4]
 8001904:	681b      	ldr	r3, [r3, #0]
 8001906:	681b      	ldr	r3, [r3, #0]
 8001908:	f003 0301 	and.w	r3, r3, #1
 800190c:	2b00      	cmp	r3, #0
 800190e:	d1e8      	bne.n	80018e2 <HAL_DMA_Init+0x3e>
    }
  }
  
  /* Get the CR register value */
  tmp = hdma->Instance->CR;
 8001910:	687b      	ldr	r3, [r7, #4]
 8001912:	681b      	ldr	r3, [r3, #0]
 8001914:	681b      	ldr	r3, [r3, #0]
 8001916:	617b      	str	r3, [r7, #20]

  /* Clear CHSEL, MBURST, PBURST, PL, MSIZE, PSIZE, MINC, PINC, CIRC, DIR, CT and DBM bits */
  tmp &= ((uint32_t)~(DMA_SxCR_CHSEL | DMA_SxCR_MBURST | DMA_SxCR_PBURST | \
 8001918:	697a      	ldr	r2, [r7, #20]
 800191a:	4b38      	ldr	r3, [pc, #224]	; (80019fc <HAL_DMA_Init+0x158>)
 800191c:	4013      	ands	r3, r2
 800191e:	617b      	str	r3, [r7, #20]
                      DMA_SxCR_PL    | DMA_SxCR_MSIZE  | DMA_SxCR_PSIZE  | \
                      DMA_SxCR_MINC  | DMA_SxCR_PINC   | DMA_SxCR_CIRC   | \
                      DMA_SxCR_DIR   | DMA_SxCR_CT     | DMA_SxCR_DBM));

  /* Prepare the DMA Stream configuration */
  tmp |=  hdma->Init.Channel             | hdma->Init.Direction        |
 8001920:	687b      	ldr	r3, [r7, #4]
 8001922:	685a      	ldr	r2, [r3, #4]
 8001924:	687b      	ldr	r3, [r7, #4]
 8001926:	689b      	ldr	r3, [r3, #8]
 8001928:	431a      	orrs	r2, r3
          hdma->Init.PeriphInc           | hdma->Init.MemInc           |
 800192a:	687b      	ldr	r3, [r7, #4]
 800192c:	68db      	ldr	r3, [r3, #12]
  tmp |=  hdma->Init.Channel             | hdma->Init.Direction        |
 800192e:	431a      	orrs	r2, r3
          hdma->Init.PeriphInc           | hdma->Init.MemInc           |
 8001930:	687b      	ldr	r3, [r7, #4]
 8001932:	691b      	ldr	r3, [r3, #16]
 8001934:	431a      	orrs	r2, r3
          hdma->Init.PeriphDataAlignment | hdma->Init.MemDataAlignment |
 8001936:	687b      	ldr	r3, [r7, #4]
 8001938:	695b      	ldr	r3, [r3, #20]
          hdma->Init.PeriphInc           | hdma->Init.MemInc           |
 800193a:	431a      	orrs	r2, r3
          hdma->Init.PeriphDataAlignment | hdma->Init.MemDataAlignment |
 800193c:	687b      	ldr	r3, [r7, #4]
 800193e:	699b      	ldr	r3, [r3, #24]
 8001940:	431a      	orrs	r2, r3
          hdma->Init.Mode                | hdma->Init.Priority;
 8001942:	687b      	ldr	r3, [r7, #4]
 8001944:	69db      	ldr	r3, [r3, #28]
          hdma->Init.PeriphDataAlignment | hdma->Init.MemDataAlignment |
 8001946:	431a      	orrs	r2, r3
          hdma->Init.Mode                | hdma->Init.Priority;
 8001948:	687b      	ldr	r3, [r7, #4]
 800194a:	6a1b      	ldr	r3, [r3, #32]
 800194c:	4313      	orrs	r3, r2
  tmp |=  hdma->Init.Channel             | hdma->Init.Direction        |
 800194e:	697a      	ldr	r2, [r7, #20]
 8001950:	4313      	orrs	r3, r2
 8001952:	617b      	str	r3, [r7, #20]

  /* the Memory burst and peripheral burst are not used when the FIFO is disabled */
  if(hdma->Init.FIFOMode == DMA_FIFOMODE_ENABLE)
 8001954:	687b      	ldr	r3, [r7, #4]
 8001956:	6a5b      	ldr	r3, [r3, #36]	; 0x24
 8001958:	2b04      	cmp	r3, #4
 800195a:	d107      	bne.n	800196c <HAL_DMA_Init+0xc8>
  {
    /* Get memory burst and peripheral burst */
    tmp |=  hdma->Init.MemBurst | hdma->Init.PeriphBurst;
 800195c:	687b      	ldr	r3, [r7, #4]
 800195e:	6ada      	ldr	r2, [r3, #44]	; 0x2c
 8001960:	687b      	ldr	r3, [r7, #4]
 8001962:	6b1b      	ldr	r3, [r3, #48]	; 0x30
 8001964:	4313      	orrs	r3, r2
 8001966:	697a      	ldr	r2, [r7, #20]
 8001968:	4313      	orrs	r3, r2
 800196a:	617b      	str	r3, [r7, #20]
  }
  
  /* Write to DMA Stream CR register */
  hdma->Instance->CR = tmp;  
 800196c:	687b      	ldr	r3, [r7, #4]
 800196e:	681b      	ldr	r3, [r3, #0]
 8001970:	697a      	ldr	r2, [r7, #20]
 8001972:	601a      	str	r2, [r3, #0]

  /* Get the FCR register value */
  tmp = hdma->Instance->FCR;
 8001974:	687b      	ldr	r3, [r7, #4]
 8001976:	681b      	ldr	r3, [r3, #0]
 8001978:	695b      	ldr	r3, [r3, #20]
 800197a:	617b      	str	r3, [r7, #20]

  /* Clear Direct mode and FIFO threshold bits */
  tmp &= (uint32_t)~(DMA_SxFCR_DMDIS | DMA_SxFCR_FTH);
 800197c:	697b      	ldr	r3, [r7, #20]
 800197e:	f023 0307 	bic.w	r3, r3, #7
 8001982:	617b      	str	r3, [r7, #20]

  /* Prepare the DMA Stream FIFO configuration */
  tmp |= hdma->Init.FIFOMode;
 8001984:	687b      	ldr	r3, [r7, #4]
 8001986:	6a5b      	ldr	r3, [r3, #36]	; 0x24
 8001988:	697a      	ldr	r2, [r7, #20]
 800198a:	4313      	orrs	r3, r2
 800198c:	617b      	str	r3, [r7, #20]

  /* The FIFO threshold is not used when the FIFO mode is disabled */
  if(hdma->Init.FIFOMode == DMA_FIFOMODE_ENABLE)
 800198e:	687b      	ldr	r3, [r7, #4]
 8001990:	6a5b      	ldr	r3, [r3, #36]	; 0x24
 8001992:	2b04      	cmp	r3, #4
 8001994:	d117      	bne.n	80019c6 <HAL_DMA_Init+0x122>
  {
    /* Get the FIFO threshold */
    tmp |= hdma->Init.FIFOThreshold;
 8001996:	687b      	ldr	r3, [r7, #4]
 8001998:	6a9b      	ldr	r3, [r3, #40]	; 0x28
 800199a:	697a      	ldr	r2, [r7, #20]
 800199c:	4313      	orrs	r3, r2
 800199e:	617b      	str	r3, [r7, #20]
    
    /* Check compatibility between FIFO threshold level and size of the memory burst */
    /* for INCR4, INCR8, INCR16 bursts */
    if (hdma->Init.MemBurst != DMA_MBURST_SINGLE)
 80019a0:	687b      	ldr	r3, [r7, #4]
 80019a2:	6adb      	ldr	r3, [r3, #44]	; 0x2c
 80019a4:	2b00      	cmp	r3, #0
 80019a6:	d00e      	beq.n	80019c6 <HAL_DMA_Init+0x122>
    {
      if (DMA_CheckFifoParam(hdma) != HAL_OK)
 80019a8:	6878      	ldr	r0, [r7, #4]
 80019aa:	f000 f85f 	bl	8001a6c <DMA_CheckFifoParam>
 80019ae:	4603      	mov	r3, r0
 80019b0:	2b00      	cmp	r3, #0
 80019b2:	d008      	beq.n	80019c6 <HAL_DMA_Init+0x122>
      {
        /* Update error code */
        hdma->ErrorCode = HAL_DMA_ERROR_PARAM;
 80019b4:	687b      	ldr	r3, [r7, #4]
 80019b6:	2240      	movs	r2, #64	; 0x40
 80019b8:	655a      	str	r2, [r3, #84]	; 0x54
        
        /* Change the DMA state */
        hdma->State = HAL_DMA_STATE_READY;
 80019ba:	687b      	ldr	r3, [r7, #4]
 80019bc:	2201      	movs	r2, #1
 80019be:	f883 2035 	strb.w	r2, [r3, #53]	; 0x35
        
        return HAL_ERROR; 
 80019c2:	2301      	movs	r3, #1
 80019c4:	e016      	b.n	80019f4 <HAL_DMA_Init+0x150>
      }
    }
  }
  
  /* Write to DMA Stream FCR */
  hdma->Instance->FCR = tmp;
 80019c6:	687b      	ldr	r3, [r7, #4]
 80019c8:	681b      	ldr	r3, [r3, #0]
 80019ca:	697a      	ldr	r2, [r7, #20]
 80019cc:	615a      	str	r2, [r3, #20]

  /* Initialize StreamBaseAddress and StreamIndex parameters to be used to calculate
     DMA steam Base Address needed by HAL_DMA_IRQHandler() and HAL_DMA_PollForTransfer() */
  regs = (DMA_Base_Registers *)DMA_CalcBaseAndBitshift(hdma);
 80019ce:	6878      	ldr	r0, [r7, #4]
 80019d0:	f000 f816 	bl	8001a00 <DMA_CalcBaseAndBitshift>
 80019d4:	4603      	mov	r3, r0
 80019d6:	60fb      	str	r3, [r7, #12]
  
  /* Clear all interrupt flags */
  regs->IFCR = 0x3FU << hdma->StreamIndex;
 80019d8:	687b      	ldr	r3, [r7, #4]
 80019da:	6ddb      	ldr	r3, [r3, #92]	; 0x5c
 80019dc:	223f      	movs	r2, #63	; 0x3f
 80019de:	409a      	lsls	r2, r3
 80019e0:	68fb      	ldr	r3, [r7, #12]
 80019e2:	609a      	str	r2, [r3, #8]

  /* Initialize the error code */
  hdma->ErrorCode = HAL_DMA_ERROR_NONE;
 80019e4:	687b      	ldr	r3, [r7, #4]
 80019e6:	2200      	movs	r2, #0
 80019e8:	655a      	str	r2, [r3, #84]	; 0x54
                                                                                     
  /* Initialize the DMA state */
  hdma->State = HAL_DMA_STATE_READY;
 80019ea:	687b      	ldr	r3, [r7, #4]
 80019ec:	2201      	movs	r2, #1
 80019ee:	f883 2035 	strb.w	r2, [r3, #53]	; 0x35

  return HAL_OK;
 80019f2:	2300      	movs	r3, #0
}
 80019f4:	4618      	mov	r0, r3
 80019f6:	3718      	adds	r7, #24
 80019f8:	46bd      	mov	sp, r7
 80019fa:	bd80      	pop	{r7, pc}
 80019fc:	f010803f 	.word	0xf010803f

08001a00 <DMA_CalcBaseAndBitshift>:
  * @param  hdma       pointer to a DMA_HandleTypeDef structure that contains
  *                     the configuration information for the specified DMA Stream. 
  * @retval Stream base address
  */
static uint32_t DMA_CalcBaseAndBitshift(DMA_HandleTypeDef *hdma)
{
 8001a00:	b480      	push	{r7}
 8001a02:	b085      	sub	sp, #20
 8001a04:	af00      	add	r7, sp, #0
 8001a06:	6078      	str	r0, [r7, #4]
  uint32_t stream_number = (((uint32_t)hdma->Instance & 0xFFU) - 16U) / 24U;
 8001a08:	687b      	ldr	r3, [r7, #4]
 8001a0a:	681b      	ldr	r3, [r3, #0]
 8001a0c:	b2db      	uxtb	r3, r3
 8001a0e:	3b10      	subs	r3, #16
 8001a10:	4a14      	ldr	r2, [pc, #80]	; (8001a64 <DMA_CalcBaseAndBitshift+0x64>)
 8001a12:	fba2 2303 	umull	r2, r3, r2, r3
 8001a16:	091b      	lsrs	r3, r3, #4
 8001a18:	60fb      	str	r3, [r7, #12]
  
  /* lookup table for necessary bitshift of flags within status registers */
  static const uint8_t flagBitshiftOffset[8U] = {0U, 6U, 16U, 22U, 0U, 6U, 16U, 22U};
  hdma->StreamIndex = flagBitshiftOffset[stream_number];
 8001a1a:	4a13      	ldr	r2, [pc, #76]	; (8001a68 <DMA_CalcBaseAndBitshift+0x68>)
 8001a1c:	68fb      	ldr	r3, [r7, #12]
 8001a1e:	4413      	add	r3, r2
 8001a20:	781b      	ldrb	r3, [r3, #0]
 8001a22:	461a      	mov	r2, r3
 8001a24:	687b      	ldr	r3, [r7, #4]
 8001a26:	65da      	str	r2, [r3, #92]	; 0x5c
  
  if (stream_number > 3U)
 8001a28:	68fb      	ldr	r3, [r7, #12]
 8001a2a:	2b03      	cmp	r3, #3
 8001a2c:	d909      	bls.n	8001a42 <DMA_CalcBaseAndBitshift+0x42>
  {
    /* return pointer to HISR and HIFCR */
    hdma->StreamBaseAddress = (((uint32_t)hdma->Instance & (uint32_t)(~0x3FFU)) + 4U);
 8001a2e:	687b      	ldr	r3, [r7, #4]
 8001a30:	681b      	ldr	r3, [r3, #0]
 8001a32:	f423 737f 	bic.w	r3, r3, #1020	; 0x3fc
 8001a36:	f023 0303 	bic.w	r3, r3, #3
 8001a3a:	1d1a      	adds	r2, r3, #4
 8001a3c:	687b      	ldr	r3, [r7, #4]
 8001a3e:	659a      	str	r2, [r3, #88]	; 0x58
 8001a40:	e007      	b.n	8001a52 <DMA_CalcBaseAndBitshift+0x52>
  }
  else
  {
    /* return pointer to LISR and LIFCR */
    hdma->StreamBaseAddress = ((uint32_t)hdma->Instance & (uint32_t)(~0x3FFU));
 8001a42:	687b      	ldr	r3, [r7, #4]
 8001a44:	681b      	ldr	r3, [r3, #0]
 8001a46:	f423 737f 	bic.w	r3, r3, #1020	; 0x3fc
 8001a4a:	f023 0303 	bic.w	r3, r3, #3
 8001a4e:	687a      	ldr	r2, [r7, #4]
 8001a50:	6593      	str	r3, [r2, #88]	; 0x58
  }
  
  return hdma->StreamBaseAddress;
 8001a52:	687b      	ldr	r3, [r7, #4]
 8001a54:	6d9b      	ldr	r3, [r3, #88]	; 0x58
}
 8001a56:	4618      	mov	r0, r3
 8001a58:	3714      	adds	r7, #20
 8001a5a:	46bd      	mov	sp, r7
 8001a5c:	f85d 7b04 	ldr.w	r7, [sp], #4
 8001a60:	4770      	bx	lr
 8001a62:	bf00      	nop
 8001a64:	aaaaaaab 	.word	0xaaaaaaab
 8001a68:	08007c1c 	.word	0x08007c1c

08001a6c <DMA_CheckFifoParam>:
  * @param  hdma       pointer to a DMA_HandleTypeDef structure that contains
  *                     the configuration information for the specified DMA Stream. 
  * @retval HAL status
  */
static HAL_StatusTypeDef DMA_CheckFifoParam(DMA_HandleTypeDef *hdma)
{
 8001a6c:	b480      	push	{r7}
 8001a6e:	b085      	sub	sp, #20
 8001a70:	af00      	add	r7, sp, #0
 8001a72:	6078      	str	r0, [r7, #4]
  HAL_StatusTypeDef status = HAL_OK;
 8001a74:	2300      	movs	r3, #0
 8001a76:	73fb      	strb	r3, [r7, #15]
  uint32_t tmp = hdma->Init.FIFOThreshold;
 8001a78:	687b      	ldr	r3, [r7, #4]
 8001a7a:	6a9b      	ldr	r3, [r3, #40]	; 0x28
 8001a7c:	60bb      	str	r3, [r7, #8]
  
  /* Memory Data size equal to Byte */
  if(hdma->Init.MemDataAlignment == DMA_MDATAALIGN_BYTE)
 8001a7e:	687b      	ldr	r3, [r7, #4]
 8001a80:	699b      	ldr	r3, [r3, #24]
 8001a82:	2b00      	cmp	r3, #0
 8001a84:	d11f      	bne.n	8001ac6 <DMA_CheckFifoParam+0x5a>
  {
    switch (tmp)
 8001a86:	68bb      	ldr	r3, [r7, #8]
 8001a88:	2b03      	cmp	r3, #3
 8001a8a:	d855      	bhi.n	8001b38 <DMA_CheckFifoParam+0xcc>
 8001a8c:	a201      	add	r2, pc, #4	; (adr r2, 8001a94 <DMA_CheckFifoParam+0x28>)
 8001a8e:	f852 f023 	ldr.w	pc, [r2, r3, lsl #2]
 8001a92:	bf00      	nop
 8001a94:	08001aa5 	.word	0x08001aa5
 8001a98:	08001ab7 	.word	0x08001ab7
 8001a9c:	08001aa5 	.word	0x08001aa5
 8001aa0:	08001b39 	.word	0x08001b39
    {
    case DMA_FIFO_THRESHOLD_1QUARTERFULL:
    case DMA_FIFO_THRESHOLD_3QUARTERSFULL:
      if ((hdma->Init.MemBurst & DMA_SxCR_MBURST_1) == DMA_SxCR_MBURST_1)
 8001aa4:	687b      	ldr	r3, [r7, #4]
 8001aa6:	6adb      	ldr	r3, [r3, #44]	; 0x2c
 8001aa8:	f003 7380 	and.w	r3, r3, #16777216	; 0x1000000
 8001aac:	2b00      	cmp	r3, #0
 8001aae:	d045      	beq.n	8001b3c <DMA_CheckFifoParam+0xd0>
      {
        status = HAL_ERROR;
 8001ab0:	2301      	movs	r3, #1
 8001ab2:	73fb      	strb	r3, [r7, #15]
      }
      break;
 8001ab4:	e042      	b.n	8001b3c <DMA_CheckFifoParam+0xd0>
    case DMA_FIFO_THRESHOLD_HALFFULL:
      if (hdma->Init.MemBurst == DMA_MBURST_INC16)
 8001ab6:	687b      	ldr	r3, [r7, #4]
 8001ab8:	6adb      	ldr	r3, [r3, #44]	; 0x2c
 8001aba:	f1b3 7fc0 	cmp.w	r3, #25165824	; 0x1800000
 8001abe:	d13f      	bne.n	8001b40 <DMA_CheckFifoParam+0xd4>
      {
        status = HAL_ERROR;
 8001ac0:	2301      	movs	r3, #1
 8001ac2:	73fb      	strb	r3, [r7, #15]
      }
      break;
 8001ac4:	e03c      	b.n	8001b40 <DMA_CheckFifoParam+0xd4>
      break;
    }
  }
  
  /* Memory Data size equal to Half-Word */
  else if (hdma->Init.MemDataAlignment == DMA_MDATAALIGN_HALFWORD)
 8001ac6:	687b      	ldr	r3, [r7, #4]
 8001ac8:	699b      	ldr	r3, [r3, #24]
 8001aca:	f5b3 5f00 	cmp.w	r3, #8192	; 0x2000
 8001ace:	d121      	bne.n	8001b14 <DMA_CheckFifoParam+0xa8>
  {
    switch (tmp)
 8001ad0:	68bb      	ldr	r3, [r7, #8]
 8001ad2:	2b03      	cmp	r3, #3
 8001ad4:	d836      	bhi.n	8001b44 <DMA_CheckFifoParam+0xd8>
 8001ad6:	a201      	add	r2, pc, #4	; (adr r2, 8001adc <DMA_CheckFifoParam+0x70>)
 8001ad8:	f852 f023 	ldr.w	pc, [r2, r3, lsl #2]
 8001adc:	08001aed 	.word	0x08001aed
 8001ae0:	08001af3 	.word	0x08001af3
 8001ae4:	08001aed 	.word	0x08001aed
 8001ae8:	08001b05 	.word	0x08001b05
    {
    case DMA_FIFO_THRESHOLD_1QUARTERFULL:
    case DMA_FIFO_THRESHOLD_3QUARTERSFULL:
      status = HAL_ERROR;
 8001aec:	2301      	movs	r3, #1
 8001aee:	73fb      	strb	r3, [r7, #15]
      break;
 8001af0:	e02f      	b.n	8001b52 <DMA_CheckFifoParam+0xe6>
    case DMA_FIFO_THRESHOLD_HALFFULL:
      if ((hdma->Init.MemBurst & DMA_SxCR_MBURST_1) == DMA_SxCR_MBURST_1)
 8001af2:	687b      	ldr	r3, [r7, #4]
 8001af4:	6adb      	ldr	r3, [r3, #44]	; 0x2c
 8001af6:	f003 7380 	and.w	r3, r3, #16777216	; 0x1000000
 8001afa:	2b00      	cmp	r3, #0
 8001afc:	d024      	beq.n	8001b48 <DMA_CheckFifoParam+0xdc>
      {
        status = HAL_ERROR;
 8001afe:	2301      	movs	r3, #1
 8001b00:	73fb      	strb	r3, [r7, #15]
      }
      break;
 8001b02:	e021      	b.n	8001b48 <DMA_CheckFifoParam+0xdc>
    case DMA_FIFO_THRESHOLD_FULL:
      if (hdma->Init.MemBurst == DMA_MBURST_INC16)
 8001b04:	687b      	ldr	r3, [r7, #4]
 8001b06:	6adb      	ldr	r3, [r3, #44]	; 0x2c
 8001b08:	f1b3 7fc0 	cmp.w	r3, #25165824	; 0x1800000
 8001b0c:	d11e      	bne.n	8001b4c <DMA_CheckFifoParam+0xe0>
      {
        status = HAL_ERROR;
 8001b0e:	2301      	movs	r3, #1
 8001b10:	73fb      	strb	r3, [r7, #15]
      }
      break;   
 8001b12:	e01b      	b.n	8001b4c <DMA_CheckFifoParam+0xe0>
  }
  
  /* Memory Data size equal to Word */
  else
  {
    switch (tmp)
 8001b14:	68bb      	ldr	r3, [r7, #8]
 8001b16:	2b02      	cmp	r3, #2
 8001b18:	d902      	bls.n	8001b20 <DMA_CheckFifoParam+0xb4>
 8001b1a:	2b03      	cmp	r3, #3
 8001b1c:	d003      	beq.n	8001b26 <DMA_CheckFifoParam+0xba>
      {
        status = HAL_ERROR;
      }
      break;
    default:
      break;
 8001b1e:	e018      	b.n	8001b52 <DMA_CheckFifoParam+0xe6>
      status = HAL_ERROR;
 8001b20:	2301      	movs	r3, #1
 8001b22:	73fb      	strb	r3, [r7, #15]
      break;
 8001b24:	e015      	b.n	8001b52 <DMA_CheckFifoParam+0xe6>
      if ((hdma->Init.MemBurst & DMA_SxCR_MBURST_1) == DMA_SxCR_MBURST_1)
 8001b26:	687b      	ldr	r3, [r7, #4]
 8001b28:	6adb      	ldr	r3, [r3, #44]	; 0x2c
 8001b2a:	f003 7380 	and.w	r3, r3, #16777216	; 0x1000000
 8001b2e:	2b00      	cmp	r3, #0
 8001b30:	d00e      	beq.n	8001b50 <DMA_CheckFifoParam+0xe4>
        status = HAL_ERROR;
 8001b32:	2301      	movs	r3, #1
 8001b34:	73fb      	strb	r3, [r7, #15]
      break;
 8001b36:	e00b      	b.n	8001b50 <DMA_CheckFifoParam+0xe4>
      break;
 8001b38:	bf00      	nop
 8001b3a:	e00a      	b.n	8001b52 <DMA_CheckFifoParam+0xe6>
      break;
 8001b3c:	bf00      	nop
 8001b3e:	e008      	b.n	8001b52 <DMA_CheckFifoParam+0xe6>
      break;
 8001b40:	bf00      	nop
 8001b42:	e006      	b.n	8001b52 <DMA_CheckFifoParam+0xe6>
      break;
 8001b44:	bf00      	nop
 8001b46:	e004      	b.n	8001b52 <DMA_CheckFifoParam+0xe6>
      break;
 8001b48:	bf00      	nop
 8001b4a:	e002      	b.n	8001b52 <DMA_CheckFifoParam+0xe6>
      break;   
 8001b4c:	bf00      	nop
 8001b4e:	e000      	b.n	8001b52 <DMA_CheckFifoParam+0xe6>
      break;
 8001b50:	bf00      	nop
    }
  } 
  
  return status; 
 8001b52:	7bfb      	ldrb	r3, [r7, #15]
}
 8001b54:	4618      	mov	r0, r3
 8001b56:	3714      	adds	r7, #20
 8001b58:	46bd      	mov	sp, r7
 8001b5a:	f85d 7b04 	ldr.w	r7, [sp], #4
 8001b5e:	4770      	bx	lr

08001b60 <HAL_GPIO_Init>:
  * @param  GPIO_Init pointer to a GPIO_InitTypeDef structure that contains
  *         the configuration information for the specified GPIO peripheral.
  * @retval None
  */
void HAL_GPIO_Init(GPIO_TypeDef  *GPIOx, GPIO_InitTypeDef *GPIO_Init)
{
 8001b60:	b480      	push	{r7}
 8001b62:	b089      	sub	sp, #36	; 0x24
 8001b64:	af00      	add	r7, sp, #0
 8001b66:	6078      	str	r0, [r7, #4]
 8001b68:	6039      	str	r1, [r7, #0]
  uint32_t position;
  uint32_t ioposition = 0x00U;
 8001b6a:	2300      	movs	r3, #0
 8001b6c:	617b      	str	r3, [r7, #20]
  uint32_t iocurrent = 0x00U;
 8001b6e:	2300      	movs	r3, #0
 8001b70:	613b      	str	r3, [r7, #16]
  uint32_t temp = 0x00U;
 8001b72:	2300      	movs	r3, #0
 8001b74:	61bb      	str	r3, [r7, #24]
  assert_param(IS_GPIO_PIN(GPIO_Init->Pin));
  assert_param(IS_GPIO_MODE(GPIO_Init->Mode));
  assert_param(IS_GPIO_PULL(GPIO_Init->Pull));

  /* Configure the port pins */
  for(position = 0U; position < GPIO_NUMBER; position++)
 8001b76:	2300      	movs	r3, #0
 8001b78:	61fb      	str	r3, [r7, #28]
 8001b7a:	e159      	b.n	8001e30 <HAL_GPIO_Init+0x2d0>
  {
    /* Get the IO position */
    ioposition = 0x01U << position;
 8001b7c:	2201      	movs	r2, #1
 8001b7e:	69fb      	ldr	r3, [r7, #28]
 8001b80:	fa02 f303 	lsl.w	r3, r2, r3
 8001b84:	617b      	str	r3, [r7, #20]
    /* Get the current IO position */
    iocurrent = (uint32_t)(GPIO_Init->Pin) & ioposition;
 8001b86:	683b      	ldr	r3, [r7, #0]
 8001b88:	681b      	ldr	r3, [r3, #0]
 8001b8a:	697a      	ldr	r2, [r7, #20]
 8001b8c:	4013      	ands	r3, r2
 8001b8e:	613b      	str	r3, [r7, #16]

    if(iocurrent == ioposition)
 8001b90:	693a      	ldr	r2, [r7, #16]
 8001b92:	697b      	ldr	r3, [r7, #20]
 8001b94:	429a      	cmp	r2, r3
 8001b96:	f040 8148 	bne.w	8001e2a <HAL_GPIO_Init+0x2ca>
    {
      /*--------------------- GPIO Mode Configuration ------------------------*/
      /* In case of Output or Alternate function mode selection */
      if(((GPIO_Init->Mode & GPIO_MODE) == MODE_OUTPUT) || \
 8001b9a:	683b      	ldr	r3, [r7, #0]
 8001b9c:	685b      	ldr	r3, [r3, #4]
 8001b9e:	f003 0303 	and.w	r3, r3, #3
 8001ba2:	2b01      	cmp	r3, #1
 8001ba4:	d005      	beq.n	8001bb2 <HAL_GPIO_Init+0x52>
          (GPIO_Init->Mode & GPIO_MODE) == MODE_AF)
 8001ba6:	683b      	ldr	r3, [r7, #0]
 8001ba8:	685b      	ldr	r3, [r3, #4]
 8001baa:	f003 0303 	and.w	r3, r3, #3
      if(((GPIO_Init->Mode & GPIO_MODE) == MODE_OUTPUT) || \
 8001bae:	2b02      	cmp	r3, #2
 8001bb0:	d130      	bne.n	8001c14 <HAL_GPIO_Init+0xb4>
      {
        /* Check the Speed parameter */
        assert_param(IS_GPIO_SPEED(GPIO_Init->Speed));
        /* Configure the IO Speed */
        temp = GPIOx->OSPEEDR; 
 8001bb2:	687b      	ldr	r3, [r7, #4]
 8001bb4:	689b      	ldr	r3, [r3, #8]
 8001bb6:	61bb      	str	r3, [r7, #24]
        temp &= ~(GPIO_OSPEEDER_OSPEEDR0 << (position * 2U));
 8001bb8:	69fb      	ldr	r3, [r7, #28]
 8001bba:	005b      	lsls	r3, r3, #1
 8001bbc:	2203      	movs	r2, #3
 8001bbe:	fa02 f303 	lsl.w	r3, r2, r3
 8001bc2:	43db      	mvns	r3, r3
 8001bc4:	69ba      	ldr	r2, [r7, #24]
 8001bc6:	4013      	ands	r3, r2
 8001bc8:	61bb      	str	r3, [r7, #24]
        temp |= (GPIO_Init->Speed << (position * 2U));
 8001bca:	683b      	ldr	r3, [r7, #0]
 8001bcc:	68da      	ldr	r2, [r3, #12]
 8001bce:	69fb      	ldr	r3, [r7, #28]
 8001bd0:	005b      	lsls	r3, r3, #1
 8001bd2:	fa02 f303 	lsl.w	r3, r2, r3
 8001bd6:	69ba      	ldr	r2, [r7, #24]
 8001bd8:	4313      	orrs	r3, r2
 8001bda:	61bb      	str	r3, [r7, #24]
        GPIOx->OSPEEDR = temp;
 8001bdc:	687b      	ldr	r3, [r7, #4]
 8001bde:	69ba      	ldr	r2, [r7, #24]
 8001be0:	609a      	str	r2, [r3, #8]

        /* Configure the IO Output Type */
        temp = GPIOx->OTYPER;
 8001be2:	687b      	ldr	r3, [r7, #4]
 8001be4:	685b      	ldr	r3, [r3, #4]
 8001be6:	61bb      	str	r3, [r7, #24]
        temp &= ~(GPIO_OTYPER_OT_0 << position) ;
 8001be8:	2201      	movs	r2, #1
 8001bea:	69fb      	ldr	r3, [r7, #28]
 8001bec:	fa02 f303 	lsl.w	r3, r2, r3
 8001bf0:	43db      	mvns	r3, r3
 8001bf2:	69ba      	ldr	r2, [r7, #24]
 8001bf4:	4013      	ands	r3, r2
 8001bf6:	61bb      	str	r3, [r7, #24]
        temp |= (((GPIO_Init->Mode & GPIO_OUTPUT_TYPE) >> 4U) << position);
 8001bf8:	683b      	ldr	r3, [r7, #0]
 8001bfa:	685b      	ldr	r3, [r3, #4]
 8001bfc:	091b      	lsrs	r3, r3, #4
 8001bfe:	f003 0201 	and.w	r2, r3, #1
 8001c02:	69fb      	ldr	r3, [r7, #28]
 8001c04:	fa02 f303 	lsl.w	r3, r2, r3
 8001c08:	69ba      	ldr	r2, [r7, #24]
 8001c0a:	4313      	orrs	r3, r2
 8001c0c:	61bb      	str	r3, [r7, #24]
        GPIOx->OTYPER = temp;
 8001c0e:	687b      	ldr	r3, [r7, #4]
 8001c10:	69ba      	ldr	r2, [r7, #24]
 8001c12:	605a      	str	r2, [r3, #4]
       }

      if((GPIO_Init->Mode & GPIO_MODE) != MODE_ANALOG)
 8001c14:	683b      	ldr	r3, [r7, #0]
 8001c16:	685b      	ldr	r3, [r3, #4]
 8001c18:	f003 0303 	and.w	r3, r3, #3
 8001c1c:	2b03      	cmp	r3, #3
 8001c1e:	d017      	beq.n	8001c50 <HAL_GPIO_Init+0xf0>
      {
        /* Activate the Pull-up or Pull down resistor for the current IO */
        temp = GPIOx->PUPDR;
 8001c20:	687b      	ldr	r3, [r7, #4]
 8001c22:	68db      	ldr	r3, [r3, #12]
 8001c24:	61bb      	str	r3, [r7, #24]
        temp &= ~(GPIO_PUPDR_PUPDR0 << (position * 2U));
 8001c26:	69fb      	ldr	r3, [r7, #28]
 8001c28:	005b      	lsls	r3, r3, #1
 8001c2a:	2203      	movs	r2, #3
 8001c2c:	fa02 f303 	lsl.w	r3, r2, r3
 8001c30:	43db      	mvns	r3, r3
 8001c32:	69ba      	ldr	r2, [r7, #24]
 8001c34:	4013      	ands	r3, r2
 8001c36:	61bb      	str	r3, [r7, #24]
        temp |= ((GPIO_Init->Pull) << (position * 2U));
 8001c38:	683b      	ldr	r3, [r7, #0]
 8001c3a:	689a      	ldr	r2, [r3, #8]
 8001c3c:	69fb      	ldr	r3, [r7, #28]
 8001c3e:	005b      	lsls	r3, r3, #1
 8001c40:	fa02 f303 	lsl.w	r3, r2, r3
 8001c44:	69ba      	ldr	r2, [r7, #24]
 8001c46:	4313      	orrs	r3, r2
 8001c48:	61bb      	str	r3, [r7, #24]
        GPIOx->PUPDR = temp;
 8001c4a:	687b      	ldr	r3, [r7, #4]
 8001c4c:	69ba      	ldr	r2, [r7, #24]
 8001c4e:	60da      	str	r2, [r3, #12]
      }

      /* In case of Alternate function mode selection */
      if((GPIO_Init->Mode & GPIO_MODE) == MODE_AF)
 8001c50:	683b      	ldr	r3, [r7, #0]
 8001c52:	685b      	ldr	r3, [r3, #4]
 8001c54:	f003 0303 	and.w	r3, r3, #3
 8001c58:	2b02      	cmp	r3, #2
 8001c5a:	d123      	bne.n	8001ca4 <HAL_GPIO_Init+0x144>
      {
        /* Check the Alternate function parameter */
        assert_param(IS_GPIO_AF(GPIO_Init->Alternate));
        /* Configure Alternate function mapped with the current IO */
        temp = GPIOx->AFR[position >> 3U];
 8001c5c:	69fb      	ldr	r3, [r7, #28]
 8001c5e:	08da      	lsrs	r2, r3, #3
 8001c60:	687b      	ldr	r3, [r7, #4]
 8001c62:	3208      	adds	r2, #8
 8001c64:	f853 3022 	ldr.w	r3, [r3, r2, lsl #2]
 8001c68:	61bb      	str	r3, [r7, #24]
        temp &= ~(0xFU << ((uint32_t)(position & 0x07U) * 4U)) ;
 8001c6a:	69fb      	ldr	r3, [r7, #28]
 8001c6c:	f003 0307 	and.w	r3, r3, #7
 8001c70:	009b      	lsls	r3, r3, #2
 8001c72:	220f      	movs	r2, #15
 8001c74:	fa02 f303 	lsl.w	r3, r2, r3
 8001c78:	43db      	mvns	r3, r3
 8001c7a:	69ba      	ldr	r2, [r7, #24]
 8001c7c:	4013      	ands	r3, r2
 8001c7e:	61bb      	str	r3, [r7, #24]
        temp |= ((uint32_t)(GPIO_Init->Alternate) << (((uint32_t)position & 0x07U) * 4U));
 8001c80:	683b      	ldr	r3, [r7, #0]
 8001c82:	691a      	ldr	r2, [r3, #16]
 8001c84:	69fb      	ldr	r3, [r7, #28]
 8001c86:	f003 0307 	and.w	r3, r3, #7
 8001c8a:	009b      	lsls	r3, r3, #2
 8001c8c:	fa02 f303 	lsl.w	r3, r2, r3
 8001c90:	69ba      	ldr	r2, [r7, #24]
 8001c92:	4313      	orrs	r3, r2
 8001c94:	61bb      	str	r3, [r7, #24]
        GPIOx->AFR[position >> 3U] = temp;
 8001c96:	69fb      	ldr	r3, [r7, #28]
 8001c98:	08da      	lsrs	r2, r3, #3
 8001c9a:	687b      	ldr	r3, [r7, #4]
 8001c9c:	3208      	adds	r2, #8
 8001c9e:	69b9      	ldr	r1, [r7, #24]
 8001ca0:	f843 1022 	str.w	r1, [r3, r2, lsl #2]
      }

      /* Configure IO Direction mode (Input, Output, Alternate or Analog) */
      temp = GPIOx->MODER;
 8001ca4:	687b      	ldr	r3, [r7, #4]
 8001ca6:	681b      	ldr	r3, [r3, #0]
 8001ca8:	61bb      	str	r3, [r7, #24]
      temp &= ~(GPIO_MODER_MODER0 << (position * 2U));
 8001caa:	69fb      	ldr	r3, [r7, #28]
 8001cac:	005b      	lsls	r3, r3, #1
 8001cae:	2203      	movs	r2, #3
 8001cb0:	fa02 f303 	lsl.w	r3, r2, r3
 8001cb4:	43db      	mvns	r3, r3
 8001cb6:	69ba      	ldr	r2, [r7, #24]
 8001cb8:	4013      	ands	r3, r2
 8001cba:	61bb      	str	r3, [r7, #24]
      temp |= ((GPIO_Init->Mode & GPIO_MODE) << (position * 2U));
 8001cbc:	683b      	ldr	r3, [r7, #0]
 8001cbe:	685b      	ldr	r3, [r3, #4]
 8001cc0:	f003 0203 	and.w	r2, r3, #3
 8001cc4:	69fb      	ldr	r3, [r7, #28]
 8001cc6:	005b      	lsls	r3, r3, #1
 8001cc8:	fa02 f303 	lsl.w	r3, r2, r3
 8001ccc:	69ba      	ldr	r2, [r7, #24]
 8001cce:	4313      	orrs	r3, r2
 8001cd0:	61bb      	str	r3, [r7, #24]
      GPIOx->MODER = temp;
 8001cd2:	687b      	ldr	r3, [r7, #4]
 8001cd4:	69ba      	ldr	r2, [r7, #24]
 8001cd6:	601a      	str	r2, [r3, #0]

      /*--------------------- EXTI Mode Configuration ------------------------*/
      /* Configure the External Interrupt or event for the current IO */
      if((GPIO_Init->Mode & EXTI_MODE) == EXTI_MODE)
 8001cd8:	683b      	ldr	r3, [r7, #0]
 8001cda:	685b      	ldr	r3, [r3, #4]
 8001cdc:	f003 5380 	and.w	r3, r3, #268435456	; 0x10000000
 8001ce0:	2b00      	cmp	r3, #0
 8001ce2:	f000 80a2 	beq.w	8001e2a <HAL_GPIO_Init+0x2ca>
      {
        /* Enable SYSCFG Clock */
        __HAL_RCC_SYSCFG_CLK_ENABLE();
 8001ce6:	2300      	movs	r3, #0
 8001ce8:	60fb      	str	r3, [r7, #12]
 8001cea:	4b56      	ldr	r3, [pc, #344]	; (8001e44 <HAL_GPIO_Init+0x2e4>)
 8001cec:	6c5b      	ldr	r3, [r3, #68]	; 0x44
 8001cee:	4a55      	ldr	r2, [pc, #340]	; (8001e44 <HAL_GPIO_Init+0x2e4>)
 8001cf0:	f443 4380 	orr.w	r3, r3, #16384	; 0x4000
 8001cf4:	6453      	str	r3, [r2, #68]	; 0x44
 8001cf6:	4b53      	ldr	r3, [pc, #332]	; (8001e44 <HAL_GPIO_Init+0x2e4>)
 8001cf8:	6c5b      	ldr	r3, [r3, #68]	; 0x44
 8001cfa:	f403 4380 	and.w	r3, r3, #16384	; 0x4000
 8001cfe:	60fb      	str	r3, [r7, #12]
 8001d00:	68fb      	ldr	r3, [r7, #12]

        temp = SYSCFG->EXTICR[position >> 2U];
 8001d02:	4a51      	ldr	r2, [pc, #324]	; (8001e48 <HAL_GPIO_Init+0x2e8>)
 8001d04:	69fb      	ldr	r3, [r7, #28]
 8001d06:	089b      	lsrs	r3, r3, #2
 8001d08:	3302      	adds	r3, #2
 8001d0a:	f852 3023 	ldr.w	r3, [r2, r3, lsl #2]
 8001d0e:	61bb      	str	r3, [r7, #24]
        temp &= ~(0x0FU << (4U * (position & 0x03U)));
 8001d10:	69fb      	ldr	r3, [r7, #28]
 8001d12:	f003 0303 	and.w	r3, r3, #3
 8001d16:	009b      	lsls	r3, r3, #2
 8001d18:	220f      	movs	r2, #15
 8001d1a:	fa02 f303 	lsl.w	r3, r2, r3
 8001d1e:	43db      	mvns	r3, r3
 8001d20:	69ba      	ldr	r2, [r7, #24]
 8001d22:	4013      	ands	r3, r2
 8001d24:	61bb      	str	r3, [r7, #24]
        temp |= ((uint32_t)(GPIO_GET_INDEX(GPIOx)) << (4U * (position & 0x03U)));
 8001d26:	687b      	ldr	r3, [r7, #4]
 8001d28:	4a48      	ldr	r2, [pc, #288]	; (8001e4c <HAL_GPIO_Init+0x2ec>)
 8001d2a:	4293      	cmp	r3, r2
 8001d2c:	d019      	beq.n	8001d62 <HAL_GPIO_Init+0x202>
 8001d2e:	687b      	ldr	r3, [r7, #4]
 8001d30:	4a47      	ldr	r2, [pc, #284]	; (8001e50 <HAL_GPIO_Init+0x2f0>)
 8001d32:	4293      	cmp	r3, r2
 8001d34:	d013      	beq.n	8001d5e <HAL_GPIO_Init+0x1fe>
 8001d36:	687b      	ldr	r3, [r7, #4]
 8001d38:	4a46      	ldr	r2, [pc, #280]	; (8001e54 <HAL_GPIO_Init+0x2f4>)
 8001d3a:	4293      	cmp	r3, r2
 8001d3c:	d00d      	beq.n	8001d5a <HAL_GPIO_Init+0x1fa>
 8001d3e:	687b      	ldr	r3, [r7, #4]
 8001d40:	4a45      	ldr	r2, [pc, #276]	; (8001e58 <HAL_GPIO_Init+0x2f8>)
 8001d42:	4293      	cmp	r3, r2
 8001d44:	d007      	beq.n	8001d56 <HAL_GPIO_Init+0x1f6>
 8001d46:	687b      	ldr	r3, [r7, #4]
 8001d48:	4a44      	ldr	r2, [pc, #272]	; (8001e5c <HAL_GPIO_Init+0x2fc>)
 8001d4a:	4293      	cmp	r3, r2
 8001d4c:	d101      	bne.n	8001d52 <HAL_GPIO_Init+0x1f2>
 8001d4e:	2304      	movs	r3, #4
 8001d50:	e008      	b.n	8001d64 <HAL_GPIO_Init+0x204>
 8001d52:	2307      	movs	r3, #7
 8001d54:	e006      	b.n	8001d64 <HAL_GPIO_Init+0x204>
 8001d56:	2303      	movs	r3, #3
 8001d58:	e004      	b.n	8001d64 <HAL_GPIO_Init+0x204>
 8001d5a:	2302      	movs	r3, #2
 8001d5c:	e002      	b.n	8001d64 <HAL_GPIO_Init+0x204>
 8001d5e:	2301      	movs	r3, #1
 8001d60:	e000      	b.n	8001d64 <HAL_GPIO_Init+0x204>
 8001d62:	2300      	movs	r3, #0
 8001d64:	69fa      	ldr	r2, [r7, #28]
 8001d66:	f002 0203 	and.w	r2, r2, #3
 8001d6a:	0092      	lsls	r2, r2, #2
 8001d6c:	4093      	lsls	r3, r2
 8001d6e:	69ba      	ldr	r2, [r7, #24]
 8001d70:	4313      	orrs	r3, r2
 8001d72:	61bb      	str	r3, [r7, #24]
        SYSCFG->EXTICR[position >> 2U] = temp;
 8001d74:	4934      	ldr	r1, [pc, #208]	; (8001e48 <HAL_GPIO_Init+0x2e8>)
 8001d76:	69fb      	ldr	r3, [r7, #28]
 8001d78:	089b      	lsrs	r3, r3, #2
 8001d7a:	3302      	adds	r3, #2
 8001d7c:	69ba      	ldr	r2, [r7, #24]
 8001d7e:	f841 2023 	str.w	r2, [r1, r3, lsl #2]

        /* Clear EXTI line configuration */
        temp = EXTI->IMR;
 8001d82:	4b37      	ldr	r3, [pc, #220]	; (8001e60 <HAL_GPIO_Init+0x300>)
 8001d84:	681b      	ldr	r3, [r3, #0]
 8001d86:	61bb      	str	r3, [r7, #24]
        temp &= ~((uint32_t)iocurrent);
 8001d88:	693b      	ldr	r3, [r7, #16]
 8001d8a:	43db      	mvns	r3, r3
 8001d8c:	69ba      	ldr	r2, [r7, #24]
 8001d8e:	4013      	ands	r3, r2
 8001d90:	61bb      	str	r3, [r7, #24]
        if((GPIO_Init->Mode & GPIO_MODE_IT) == GPIO_MODE_IT)
 8001d92:	683b      	ldr	r3, [r7, #0]
 8001d94:	685b      	ldr	r3, [r3, #4]
 8001d96:	f403 3380 	and.w	r3, r3, #65536	; 0x10000
 8001d9a:	2b00      	cmp	r3, #0
 8001d9c:	d003      	beq.n	8001da6 <HAL_GPIO_Init+0x246>
        {
          temp |= iocurrent;
 8001d9e:	69ba      	ldr	r2, [r7, #24]
 8001da0:	693b      	ldr	r3, [r7, #16]
 8001da2:	4313      	orrs	r3, r2
 8001da4:	61bb      	str	r3, [r7, #24]
        }
        EXTI->IMR = temp;
 8001da6:	4a2e      	ldr	r2, [pc, #184]	; (8001e60 <HAL_GPIO_Init+0x300>)
 8001da8:	69bb      	ldr	r3, [r7, #24]
 8001daa:	6013      	str	r3, [r2, #0]

        temp = EXTI->EMR;
 8001dac:	4b2c      	ldr	r3, [pc, #176]	; (8001e60 <HAL_GPIO_Init+0x300>)
 8001dae:	685b      	ldr	r3, [r3, #4]
 8001db0:	61bb      	str	r3, [r7, #24]
        temp &= ~((uint32_t)iocurrent);
 8001db2:	693b      	ldr	r3, [r7, #16]
 8001db4:	43db      	mvns	r3, r3
 8001db6:	69ba      	ldr	r2, [r7, #24]
 8001db8:	4013      	ands	r3, r2
 8001dba:	61bb      	str	r3, [r7, #24]
        if((GPIO_Init->Mode & GPIO_MODE_EVT) == GPIO_MODE_EVT)
 8001dbc:	683b      	ldr	r3, [r7, #0]
 8001dbe:	685b      	ldr	r3, [r3, #4]
 8001dc0:	f403 3300 	and.w	r3, r3, #131072	; 0x20000
 8001dc4:	2b00      	cmp	r3, #0
 8001dc6:	d003      	beq.n	8001dd0 <HAL_GPIO_Init+0x270>
        {
          temp |= iocurrent;
 8001dc8:	69ba      	ldr	r2, [r7, #24]
 8001dca:	693b      	ldr	r3, [r7, #16]
 8001dcc:	4313      	orrs	r3, r2
 8001dce:	61bb      	str	r3, [r7, #24]
        }
        EXTI->EMR = temp;
 8001dd0:	4a23      	ldr	r2, [pc, #140]	; (8001e60 <HAL_GPIO_Init+0x300>)
 8001dd2:	69bb      	ldr	r3, [r7, #24]
 8001dd4:	6053      	str	r3, [r2, #4]

        /* Clear Rising Falling edge configuration */
        temp = EXTI->RTSR;
 8001dd6:	4b22      	ldr	r3, [pc, #136]	; (8001e60 <HAL_GPIO_Init+0x300>)
 8001dd8:	689b      	ldr	r3, [r3, #8]
 8001dda:	61bb      	str	r3, [r7, #24]
        temp &= ~((uint32_t)iocurrent);
 8001ddc:	693b      	ldr	r3, [r7, #16]
 8001dde:	43db      	mvns	r3, r3
 8001de0:	69ba      	ldr	r2, [r7, #24]
 8001de2:	4013      	ands	r3, r2
 8001de4:	61bb      	str	r3, [r7, #24]
        if((GPIO_Init->Mode & RISING_EDGE) == RISING_EDGE)
 8001de6:	683b      	ldr	r3, [r7, #0]
 8001de8:	685b      	ldr	r3, [r3, #4]
 8001dea:	f403 1380 	and.w	r3, r3, #1048576	; 0x100000
 8001dee:	2b00      	cmp	r3, #0
 8001df0:	d003      	beq.n	8001dfa <HAL_GPIO_Init+0x29a>
        {
          temp |= iocurrent;
 8001df2:	69ba      	ldr	r2, [r7, #24]
 8001df4:	693b      	ldr	r3, [r7, #16]
 8001df6:	4313      	orrs	r3, r2
 8001df8:	61bb      	str	r3, [r7, #24]
        }
        EXTI->RTSR = temp;
 8001dfa:	4a19      	ldr	r2, [pc, #100]	; (8001e60 <HAL_GPIO_Init+0x300>)
 8001dfc:	69bb      	ldr	r3, [r7, #24]
 8001dfe:	6093      	str	r3, [r2, #8]

        temp = EXTI->FTSR;
 8001e00:	4b17      	ldr	r3, [pc, #92]	; (8001e60 <HAL_GPIO_Init+0x300>)
 8001e02:	68db      	ldr	r3, [r3, #12]
 8001e04:	61bb      	str	r3, [r7, #24]
        temp &= ~((uint32_t)iocurrent);
 8001e06:	693b      	ldr	r3, [r7, #16]
 8001e08:	43db      	mvns	r3, r3
 8001e0a:	69ba      	ldr	r2, [r7, #24]
 8001e0c:	4013      	ands	r3, r2
 8001e0e:	61bb      	str	r3, [r7, #24]
        if((GPIO_Init->Mode & FALLING_EDGE) == FALLING_EDGE)
 8001e10:	683b      	ldr	r3, [r7, #0]
 8001e12:	685b      	ldr	r3, [r3, #4]
 8001e14:	f403 1300 	and.w	r3, r3, #2097152	; 0x200000
 8001e18:	2b00      	cmp	r3, #0
 8001e1a:	d003      	beq.n	8001e24 <HAL_GPIO_Init+0x2c4>
        {
          temp |= iocurrent;
 8001e1c:	69ba      	ldr	r2, [r7, #24]
 8001e1e:	693b      	ldr	r3, [r7, #16]
 8001e20:	4313      	orrs	r3, r2
 8001e22:	61bb      	str	r3, [r7, #24]
        }
        EXTI->FTSR = temp;
 8001e24:	4a0e      	ldr	r2, [pc, #56]	; (8001e60 <HAL_GPIO_Init+0x300>)
 8001e26:	69bb      	ldr	r3, [r7, #24]
 8001e28:	60d3      	str	r3, [r2, #12]
  for(position = 0U; position < GPIO_NUMBER; position++)
 8001e2a:	69fb      	ldr	r3, [r7, #28]
 8001e2c:	3301      	adds	r3, #1
 8001e2e:	61fb      	str	r3, [r7, #28]
 8001e30:	69fb      	ldr	r3, [r7, #28]
 8001e32:	2b0f      	cmp	r3, #15
 8001e34:	f67f aea2 	bls.w	8001b7c <HAL_GPIO_Init+0x1c>
      }
    }
  }
}
 8001e38:	bf00      	nop
 8001e3a:	3724      	adds	r7, #36	; 0x24
 8001e3c:	46bd      	mov	sp, r7
 8001e3e:	f85d 7b04 	ldr.w	r7, [sp], #4
 8001e42:	4770      	bx	lr
 8001e44:	40023800 	.word	0x40023800
 8001e48:	40013800 	.word	0x40013800
 8001e4c:	40020000 	.word	0x40020000
 8001e50:	40020400 	.word	0x40020400
 8001e54:	40020800 	.word	0x40020800
 8001e58:	40020c00 	.word	0x40020c00
 8001e5c:	40021000 	.word	0x40021000
 8001e60:	40013c00 	.word	0x40013c00

08001e64 <HAL_GPIO_WritePin>:
  *            @arg GPIO_PIN_RESET: to clear the port pin
  *            @arg GPIO_PIN_SET: to set the port pin
  * @retval None
  */
void HAL_GPIO_WritePin(GPIO_TypeDef* GPIOx, uint16_t GPIO_Pin, GPIO_PinState PinState)
{
 8001e64:	b480      	push	{r7}
 8001e66:	b083      	sub	sp, #12
 8001e68:	af00      	add	r7, sp, #0
 8001e6a:	6078      	str	r0, [r7, #4]
 8001e6c:	460b      	mov	r3, r1
 8001e6e:	807b      	strh	r3, [r7, #2]
 8001e70:	4613      	mov	r3, r2
 8001e72:	707b      	strb	r3, [r7, #1]
  /* Check the parameters */
  assert_param(IS_GPIO_PIN(GPIO_Pin));
  assert_param(IS_GPIO_PIN_ACTION(PinState));

  if(PinState != GPIO_PIN_RESET)
 8001e74:	787b      	ldrb	r3, [r7, #1]
 8001e76:	2b00      	cmp	r3, #0
 8001e78:	d003      	beq.n	8001e82 <HAL_GPIO_WritePin+0x1e>
  {
    GPIOx->BSRR = GPIO_Pin;
 8001e7a:	887a      	ldrh	r2, [r7, #2]
 8001e7c:	687b      	ldr	r3, [r7, #4]
 8001e7e:	619a      	str	r2, [r3, #24]
  }
  else
  {
    GPIOx->BSRR = (uint32_t)GPIO_Pin << 16U;
  }
}
 8001e80:	e003      	b.n	8001e8a <HAL_GPIO_WritePin+0x26>
    GPIOx->BSRR = (uint32_t)GPIO_Pin << 16U;
 8001e82:	887b      	ldrh	r3, [r7, #2]
 8001e84:	041a      	lsls	r2, r3, #16
 8001e86:	687b      	ldr	r3, [r7, #4]
 8001e88:	619a      	str	r2, [r3, #24]
}
 8001e8a:	bf00      	nop
 8001e8c:	370c      	adds	r7, #12
 8001e8e:	46bd      	mov	sp, r7
 8001e90:	f85d 7b04 	ldr.w	r7, [sp], #4
 8001e94:	4770      	bx	lr

08001e96 <HAL_GPIO_TogglePin>:
  *                      x can be (A..I) to select the GPIO peripheral for STM32F40XX and STM32F427X devices.
  * @param  GPIO_Pin Specifies the pins to be toggled.
  * @retval None
  */
void HAL_GPIO_TogglePin(GPIO_TypeDef* GPIOx, uint16_t GPIO_Pin)
{
 8001e96:	b480      	push	{r7}
 8001e98:	b085      	sub	sp, #20
 8001e9a:	af00      	add	r7, sp, #0
 8001e9c:	6078      	str	r0, [r7, #4]
 8001e9e:	460b      	mov	r3, r1
 8001ea0:	807b      	strh	r3, [r7, #2]

  /* Check the parameters */
  assert_param(IS_GPIO_PIN(GPIO_Pin));

  /* get current Ouput Data Register value */
  odr = GPIOx->ODR;
 8001ea2:	687b      	ldr	r3, [r7, #4]
 8001ea4:	695b      	ldr	r3, [r3, #20]
 8001ea6:	60fb      	str	r3, [r7, #12]

  /* Set selected pins that were at low level, and reset ones that were high */
  GPIOx->BSRR = ((odr & GPIO_Pin) << GPIO_NUMBER) | (~odr & GPIO_Pin);
 8001ea8:	887a      	ldrh	r2, [r7, #2]
 8001eaa:	68fb      	ldr	r3, [r7, #12]
 8001eac:	4013      	ands	r3, r2
 8001eae:	041a      	lsls	r2, r3, #16
 8001eb0:	68fb      	ldr	r3, [r7, #12]
 8001eb2:	43d9      	mvns	r1, r3
 8001eb4:	887b      	ldrh	r3, [r7, #2]
 8001eb6:	400b      	ands	r3, r1
 8001eb8:	431a      	orrs	r2, r3
 8001eba:	687b      	ldr	r3, [r7, #4]
 8001ebc:	619a      	str	r2, [r3, #24]
}
 8001ebe:	bf00      	nop
 8001ec0:	3714      	adds	r7, #20
 8001ec2:	46bd      	mov	sp, r7
 8001ec4:	f85d 7b04 	ldr.w	r7, [sp], #4
 8001ec8:	4770      	bx	lr

08001eca <HAL_UART_Init>:
  * @param  huart  Pointer to a UART_HandleTypeDef structure that contains
  *                the configuration information for the specified UART module.
  * @retval HAL status
  */
HAL_StatusTypeDef HAL_UART_Init(UART_HandleTypeDef *huart)
{
 8001eca:	b580      	push	{r7, lr}
 8001ecc:	b082      	sub	sp, #8
 8001ece:	af00      	add	r7, sp, #0
 8001ed0:	6078      	str	r0, [r7, #4]
  /* Check the UART handle allocation */
  if (huart == NULL)
 8001ed2:	687b      	ldr	r3, [r7, #4]
 8001ed4:	2b00      	cmp	r3, #0
 8001ed6:	d101      	bne.n	8001edc <HAL_UART_Init+0x12>
  {
    return HAL_ERROR;
 8001ed8:	2301      	movs	r3, #1
 8001eda:	e03f      	b.n	8001f5c <HAL_UART_Init+0x92>
    assert_param(IS_UART_INSTANCE(huart->Instance));
  }
  assert_param(IS_UART_WORD_LENGTH(huart->Init.WordLength));
  assert_param(IS_UART_OVERSAMPLING(huart->Init.OverSampling));

  if (huart->gState == HAL_UART_STATE_RESET)
 8001edc:	687b      	ldr	r3, [r7, #4]
 8001ede:	f893 303d 	ldrb.w	r3, [r3, #61]	; 0x3d
 8001ee2:	b2db      	uxtb	r3, r3
 8001ee4:	2b00      	cmp	r3, #0
 8001ee6:	d106      	bne.n	8001ef6 <HAL_UART_Init+0x2c>
  {
    /* Allocate lock resource and initialize it */
    huart->Lock = HAL_UNLOCKED;
 8001ee8:	687b      	ldr	r3, [r7, #4]
 8001eea:	2200      	movs	r2, #0
 8001eec:	f883 203c 	strb.w	r2, [r3, #60]	; 0x3c

    /* Init the low level hardware */
    huart->MspInitCallback(huart);
#else
    /* Init the low level hardware : GPIO, CLOCK */
    HAL_UART_MspInit(huart);
 8001ef0:	6878      	ldr	r0, [r7, #4]
 8001ef2:	f7fe fcd3 	bl	800089c <HAL_UART_MspInit>
#endif /* (USE_HAL_UART_REGISTER_CALLBACKS) */
  }

  huart->gState = HAL_UART_STATE_BUSY;
 8001ef6:	687b      	ldr	r3, [r7, #4]
 8001ef8:	2224      	movs	r2, #36	; 0x24
 8001efa:	f883 203d 	strb.w	r2, [r3, #61]	; 0x3d

  /* Disable the peripheral */
  __HAL_UART_DISABLE(huart);
 8001efe:	687b      	ldr	r3, [r7, #4]
 8001f00:	681b      	ldr	r3, [r3, #0]
 8001f02:	68da      	ldr	r2, [r3, #12]
 8001f04:	687b      	ldr	r3, [r7, #4]
 8001f06:	681b      	ldr	r3, [r3, #0]
 8001f08:	f422 5200 	bic.w	r2, r2, #8192	; 0x2000
 8001f0c:	60da      	str	r2, [r3, #12]

  /* Set the UART Communication parameters */
  UART_SetConfig(huart);
 8001f0e:	6878      	ldr	r0, [r7, #4]
 8001f10:	f000 f904 	bl	800211c <UART_SetConfig>

  /* In asynchronous mode, the following bits must be kept cleared:
     - LINEN and CLKEN bits in the USART_CR2 register,
     - SCEN, HDSEL and IREN  bits in the USART_CR3 register.*/
  CLEAR_BIT(huart->Instance->CR2, (USART_CR2_LINEN | USART_CR2_CLKEN));
 8001f14:	687b      	ldr	r3, [r7, #4]
 8001f16:	681b      	ldr	r3, [r3, #0]
 8001f18:	691a      	ldr	r2, [r3, #16]
 8001f1a:	687b      	ldr	r3, [r7, #4]
 8001f1c:	681b      	ldr	r3, [r3, #0]
 8001f1e:	f422 4290 	bic.w	r2, r2, #18432	; 0x4800
 8001f22:	611a      	str	r2, [r3, #16]
  CLEAR_BIT(huart->Instance->CR3, (USART_CR3_SCEN | USART_CR3_HDSEL | USART_CR3_IREN));
 8001f24:	687b      	ldr	r3, [r7, #4]
 8001f26:	681b      	ldr	r3, [r3, #0]
 8001f28:	695a      	ldr	r2, [r3, #20]
 8001f2a:	687b      	ldr	r3, [r7, #4]
 8001f2c:	681b      	ldr	r3, [r3, #0]
 8001f2e:	f022 022a 	bic.w	r2, r2, #42	; 0x2a
 8001f32:	615a      	str	r2, [r3, #20]

  /* Enable the peripheral */
  __HAL_UART_ENABLE(huart);
 8001f34:	687b      	ldr	r3, [r7, #4]
 8001f36:	681b      	ldr	r3, [r3, #0]
 8001f38:	68da      	ldr	r2, [r3, #12]
 8001f3a:	687b      	ldr	r3, [r7, #4]
 8001f3c:	681b      	ldr	r3, [r3, #0]
 8001f3e:	f442 5200 	orr.w	r2, r2, #8192	; 0x2000
 8001f42:	60da      	str	r2, [r3, #12]

  /* Initialize the UART state */
  huart->ErrorCode = HAL_UART_ERROR_NONE;
 8001f44:	687b      	ldr	r3, [r7, #4]
 8001f46:	2200      	movs	r2, #0
 8001f48:	641a      	str	r2, [r3, #64]	; 0x40
  huart->gState = HAL_UART_STATE_READY;
 8001f4a:	687b      	ldr	r3, [r7, #4]
 8001f4c:	2220      	movs	r2, #32
 8001f4e:	f883 203d 	strb.w	r2, [r3, #61]	; 0x3d
  huart->RxState = HAL_UART_STATE_READY;
 8001f52:	687b      	ldr	r3, [r7, #4]
 8001f54:	2220      	movs	r2, #32
 8001f56:	f883 203e 	strb.w	r2, [r3, #62]	; 0x3e

  return HAL_OK;
 8001f5a:	2300      	movs	r3, #0
}
 8001f5c:	4618      	mov	r0, r3
 8001f5e:	3708      	adds	r7, #8
 8001f60:	46bd      	mov	sp, r7
 8001f62:	bd80      	pop	{r7, pc}

08001f64 <HAL_UART_Transmit>:
  * @param  Size  Amount of data elements (u8 or u16) to be sent
  * @param  Timeout Timeout duration
  * @retval HAL status
  */
HAL_StatusTypeDef HAL_UART_Transmit(UART_HandleTypeDef *huart, uint8_t *pData, uint16_t Size, uint32_t Timeout)
{
 8001f64:	b580      	push	{r7, lr}
 8001f66:	b08a      	sub	sp, #40	; 0x28
 8001f68:	af02      	add	r7, sp, #8
 8001f6a:	60f8      	str	r0, [r7, #12]
 8001f6c:	60b9      	str	r1, [r7, #8]
 8001f6e:	603b      	str	r3, [r7, #0]
 8001f70:	4613      	mov	r3, r2
 8001f72:	80fb      	strh	r3, [r7, #6]
  uint8_t  *pdata8bits;
  uint16_t *pdata16bits;
  uint32_t tickstart = 0U;
 8001f74:	2300      	movs	r3, #0
 8001f76:	617b      	str	r3, [r7, #20]

  /* Check that a Tx process is not already ongoing */
  if (huart->gState == HAL_UART_STATE_READY)
 8001f78:	68fb      	ldr	r3, [r7, #12]
 8001f7a:	f893 303d 	ldrb.w	r3, [r3, #61]	; 0x3d
 8001f7e:	b2db      	uxtb	r3, r3
 8001f80:	2b20      	cmp	r3, #32
 8001f82:	d17c      	bne.n	800207e <HAL_UART_Transmit+0x11a>
  {
    if ((pData == NULL) || (Size == 0U))
 8001f84:	68bb      	ldr	r3, [r7, #8]
 8001f86:	2b00      	cmp	r3, #0
 8001f88:	d002      	beq.n	8001f90 <HAL_UART_Transmit+0x2c>
 8001f8a:	88fb      	ldrh	r3, [r7, #6]
 8001f8c:	2b00      	cmp	r3, #0
 8001f8e:	d101      	bne.n	8001f94 <HAL_UART_Transmit+0x30>
    {
      return  HAL_ERROR;
 8001f90:	2301      	movs	r3, #1
 8001f92:	e075      	b.n	8002080 <HAL_UART_Transmit+0x11c>
    }

    /* Process Locked */
    __HAL_LOCK(huart);
 8001f94:	68fb      	ldr	r3, [r7, #12]
 8001f96:	f893 303c 	ldrb.w	r3, [r3, #60]	; 0x3c
 8001f9a:	2b01      	cmp	r3, #1
 8001f9c:	d101      	bne.n	8001fa2 <HAL_UART_Transmit+0x3e>
 8001f9e:	2302      	movs	r3, #2
 8001fa0:	e06e      	b.n	8002080 <HAL_UART_Transmit+0x11c>
 8001fa2:	68fb      	ldr	r3, [r7, #12]
 8001fa4:	2201      	movs	r2, #1
 8001fa6:	f883 203c 	strb.w	r2, [r3, #60]	; 0x3c

    huart->ErrorCode = HAL_UART_ERROR_NONE;
 8001faa:	68fb      	ldr	r3, [r7, #12]
 8001fac:	2200      	movs	r2, #0
 8001fae:	641a      	str	r2, [r3, #64]	; 0x40
    huart->gState = HAL_UART_STATE_BUSY_TX;
 8001fb0:	68fb      	ldr	r3, [r7, #12]
 8001fb2:	2221      	movs	r2, #33	; 0x21
 8001fb4:	f883 203d 	strb.w	r2, [r3, #61]	; 0x3d

    /* Init tickstart for timeout management */
    tickstart = HAL_GetTick();
 8001fb8:	f7fe febe 	bl	8000d38 <HAL_GetTick>
 8001fbc:	6178      	str	r0, [r7, #20]

    huart->TxXferSize = Size;
 8001fbe:	68fb      	ldr	r3, [r7, #12]
 8001fc0:	88fa      	ldrh	r2, [r7, #6]
 8001fc2:	849a      	strh	r2, [r3, #36]	; 0x24
    huart->TxXferCount = Size;
 8001fc4:	68fb      	ldr	r3, [r7, #12]
 8001fc6:	88fa      	ldrh	r2, [r7, #6]
 8001fc8:	84da      	strh	r2, [r3, #38]	; 0x26

    /* In case of 9bits/No Parity transfer, pData needs to be handled as a uint16_t pointer */
    if ((huart->Init.WordLength == UART_WORDLENGTH_9B) && (huart->Init.Parity == UART_PARITY_NONE))
 8001fca:	68fb      	ldr	r3, [r7, #12]
 8001fcc:	689b      	ldr	r3, [r3, #8]
 8001fce:	f5b3 5f80 	cmp.w	r3, #4096	; 0x1000
 8001fd2:	d108      	bne.n	8001fe6 <HAL_UART_Transmit+0x82>
 8001fd4:	68fb      	ldr	r3, [r7, #12]
 8001fd6:	691b      	ldr	r3, [r3, #16]
 8001fd8:	2b00      	cmp	r3, #0
 8001fda:	d104      	bne.n	8001fe6 <HAL_UART_Transmit+0x82>
    {
      pdata8bits  = NULL;
 8001fdc:	2300      	movs	r3, #0
 8001fde:	61fb      	str	r3, [r7, #28]
      pdata16bits = (uint16_t *) pData;
 8001fe0:	68bb      	ldr	r3, [r7, #8]
 8001fe2:	61bb      	str	r3, [r7, #24]
 8001fe4:	e003      	b.n	8001fee <HAL_UART_Transmit+0x8a>
    }
    else
    {
      pdata8bits  = pData;
 8001fe6:	68bb      	ldr	r3, [r7, #8]
 8001fe8:	61fb      	str	r3, [r7, #28]
      pdata16bits = NULL;
 8001fea:	2300      	movs	r3, #0
 8001fec:	61bb      	str	r3, [r7, #24]
    }

    /* Process Unlocked */
    __HAL_UNLOCK(huart);
 8001fee:	68fb      	ldr	r3, [r7, #12]
 8001ff0:	2200      	movs	r2, #0
 8001ff2:	f883 203c 	strb.w	r2, [r3, #60]	; 0x3c

    while (huart->TxXferCount > 0U)
 8001ff6:	e02a      	b.n	800204e <HAL_UART_Transmit+0xea>
    {
      if (UART_WaitOnFlagUntilTimeout(huart, UART_FLAG_TXE, RESET, tickstart, Timeout) != HAL_OK)
 8001ff8:	683b      	ldr	r3, [r7, #0]
 8001ffa:	9300      	str	r3, [sp, #0]
 8001ffc:	697b      	ldr	r3, [r7, #20]
 8001ffe:	2200      	movs	r2, #0
 8002000:	2180      	movs	r1, #128	; 0x80
 8002002:	68f8      	ldr	r0, [r7, #12]
 8002004:	f000 f840 	bl	8002088 <UART_WaitOnFlagUntilTimeout>
 8002008:	4603      	mov	r3, r0
 800200a:	2b00      	cmp	r3, #0
 800200c:	d001      	beq.n	8002012 <HAL_UART_Transmit+0xae>
      {
        return HAL_TIMEOUT;
 800200e:	2303      	movs	r3, #3
 8002010:	e036      	b.n	8002080 <HAL_UART_Transmit+0x11c>
      }
      if (pdata8bits == NULL)
 8002012:	69fb      	ldr	r3, [r7, #28]
 8002014:	2b00      	cmp	r3, #0
 8002016:	d10b      	bne.n	8002030 <HAL_UART_Transmit+0xcc>
      {
        huart->Instance->DR = (uint16_t)(*pdata16bits & 0x01FFU);
 8002018:	69bb      	ldr	r3, [r7, #24]
 800201a:	881b      	ldrh	r3, [r3, #0]
 800201c:	461a      	mov	r2, r3
 800201e:	68fb      	ldr	r3, [r7, #12]
 8002020:	681b      	ldr	r3, [r3, #0]
 8002022:	f3c2 0208 	ubfx	r2, r2, #0, #9
 8002026:	605a      	str	r2, [r3, #4]
        pdata16bits++;
 8002028:	69bb      	ldr	r3, [r7, #24]
 800202a:	3302      	adds	r3, #2
 800202c:	61bb      	str	r3, [r7, #24]
 800202e:	e007      	b.n	8002040 <HAL_UART_Transmit+0xdc>
      }
      else
      {
        huart->Instance->DR = (uint8_t)(*pdata8bits & 0xFFU);
 8002030:	69fb      	ldr	r3, [r7, #28]
 8002032:	781a      	ldrb	r2, [r3, #0]
 8002034:	68fb      	ldr	r3, [r7, #12]
 8002036:	681b      	ldr	r3, [r3, #0]
 8002038:	605a      	str	r2, [r3, #4]
        pdata8bits++;
 800203a:	69fb      	ldr	r3, [r7, #28]
 800203c:	3301      	adds	r3, #1
 800203e:	61fb      	str	r3, [r7, #28]
      }
      huart->TxXferCount--;
 8002040:	68fb      	ldr	r3, [r7, #12]
 8002042:	8cdb      	ldrh	r3, [r3, #38]	; 0x26
 8002044:	b29b      	uxth	r3, r3
 8002046:	3b01      	subs	r3, #1
 8002048:	b29a      	uxth	r2, r3
 800204a:	68fb      	ldr	r3, [r7, #12]
 800204c:	84da      	strh	r2, [r3, #38]	; 0x26
    while (huart->TxXferCount > 0U)
 800204e:	68fb      	ldr	r3, [r7, #12]
 8002050:	8cdb      	ldrh	r3, [r3, #38]	; 0x26
 8002052:	b29b      	uxth	r3, r3
 8002054:	2b00      	cmp	r3, #0
 8002056:	d1cf      	bne.n	8001ff8 <HAL_UART_Transmit+0x94>
    }

    if (UART_WaitOnFlagUntilTimeout(huart, UART_FLAG_TC, RESET, tickstart, Timeout) != HAL_OK)
 8002058:	683b      	ldr	r3, [r7, #0]
 800205a:	9300      	str	r3, [sp, #0]
 800205c:	697b      	ldr	r3, [r7, #20]
 800205e:	2200      	movs	r2, #0
 8002060:	2140      	movs	r1, #64	; 0x40
 8002062:	68f8      	ldr	r0, [r7, #12]
 8002064:	f000 f810 	bl	8002088 <UART_WaitOnFlagUntilTimeout>
 8002068:	4603      	mov	r3, r0
 800206a:	2b00      	cmp	r3, #0
 800206c:	d001      	beq.n	8002072 <HAL_UART_Transmit+0x10e>
    {
      return HAL_TIMEOUT;
 800206e:	2303      	movs	r3, #3
 8002070:	e006      	b.n	8002080 <HAL_UART_Transmit+0x11c>
    }

    /* At end of Tx process, restore huart->gState to Ready */
    huart->gState = HAL_UART_STATE_READY;
 8002072:	68fb      	ldr	r3, [r7, #12]
 8002074:	2220      	movs	r2, #32
 8002076:	f883 203d 	strb.w	r2, [r3, #61]	; 0x3d

    return HAL_OK;
 800207a:	2300      	movs	r3, #0
 800207c:	e000      	b.n	8002080 <HAL_UART_Transmit+0x11c>
  }
  else
  {
    return HAL_BUSY;
 800207e:	2302      	movs	r3, #2
  }
}
 8002080:	4618      	mov	r0, r3
 8002082:	3720      	adds	r7, #32
 8002084:	46bd      	mov	sp, r7
 8002086:	bd80      	pop	{r7, pc}

08002088 <UART_WaitOnFlagUntilTimeout>:
  * @param  Tickstart Tick start value
  * @param  Timeout Timeout duration
  * @retval HAL status
  */
static HAL_StatusTypeDef UART_WaitOnFlagUntilTimeout(UART_HandleTypeDef *huart, uint32_t Flag, FlagStatus Status, uint32_t Tickstart, uint32_t Timeout)
{
 8002088:	b580      	push	{r7, lr}
 800208a:	b084      	sub	sp, #16
 800208c:	af00      	add	r7, sp, #0
 800208e:	60f8      	str	r0, [r7, #12]
 8002090:	60b9      	str	r1, [r7, #8]
 8002092:	603b      	str	r3, [r7, #0]
 8002094:	4613      	mov	r3, r2
 8002096:	71fb      	strb	r3, [r7, #7]
  /* Wait until flag is set */
  while ((__HAL_UART_GET_FLAG(huart, Flag) ? SET : RESET) == Status)
 8002098:	e02c      	b.n	80020f4 <UART_WaitOnFlagUntilTimeout+0x6c>
  {
    /* Check for the Timeout */
    if (Timeout != HAL_MAX_DELAY)
 800209a:	69bb      	ldr	r3, [r7, #24]
 800209c:	f1b3 3fff 	cmp.w	r3, #4294967295
 80020a0:	d028      	beq.n	80020f4 <UART_WaitOnFlagUntilTimeout+0x6c>
    {
      if ((Timeout == 0U) || ((HAL_GetTick() - Tickstart) > Timeout))
 80020a2:	69bb      	ldr	r3, [r7, #24]
 80020a4:	2b00      	cmp	r3, #0
 80020a6:	d007      	beq.n	80020b8 <UART_WaitOnFlagUntilTimeout+0x30>
 80020a8:	f7fe fe46 	bl	8000d38 <HAL_GetTick>
 80020ac:	4602      	mov	r2, r0
 80020ae:	683b      	ldr	r3, [r7, #0]
 80020b0:	1ad3      	subs	r3, r2, r3
 80020b2:	69ba      	ldr	r2, [r7, #24]
 80020b4:	429a      	cmp	r2, r3
 80020b6:	d21d      	bcs.n	80020f4 <UART_WaitOnFlagUntilTimeout+0x6c>
      {
        /* Disable TXE, RXNE, PE and ERR (Frame error, noise error, overrun error) interrupts for the interrupt process */
        CLEAR_BIT(huart->Instance->CR1, (USART_CR1_RXNEIE | USART_CR1_PEIE | USART_CR1_TXEIE));
 80020b8:	68fb      	ldr	r3, [r7, #12]
 80020ba:	681b      	ldr	r3, [r3, #0]
 80020bc:	68da      	ldr	r2, [r3, #12]
 80020be:	68fb      	ldr	r3, [r7, #12]
 80020c0:	681b      	ldr	r3, [r3, #0]
 80020c2:	f422 72d0 	bic.w	r2, r2, #416	; 0x1a0
 80020c6:	60da      	str	r2, [r3, #12]
        CLEAR_BIT(huart->Instance->CR3, USART_CR3_EIE);
 80020c8:	68fb      	ldr	r3, [r7, #12]
 80020ca:	681b      	ldr	r3, [r3, #0]
 80020cc:	695a      	ldr	r2, [r3, #20]
 80020ce:	68fb      	ldr	r3, [r7, #12]
 80020d0:	681b      	ldr	r3, [r3, #0]
 80020d2:	f022 0201 	bic.w	r2, r2, #1
 80020d6:	615a      	str	r2, [r3, #20]

        huart->gState  = HAL_UART_STATE_READY;
 80020d8:	68fb      	ldr	r3, [r7, #12]
 80020da:	2220      	movs	r2, #32
 80020dc:	f883 203d 	strb.w	r2, [r3, #61]	; 0x3d
        huart->RxState = HAL_UART_STATE_READY;
 80020e0:	68fb      	ldr	r3, [r7, #12]
 80020e2:	2220      	movs	r2, #32
 80020e4:	f883 203e 	strb.w	r2, [r3, #62]	; 0x3e

        /* Process Unlocked */
        __HAL_UNLOCK(huart);
 80020e8:	68fb      	ldr	r3, [r7, #12]
 80020ea:	2200      	movs	r2, #0
 80020ec:	f883 203c 	strb.w	r2, [r3, #60]	; 0x3c

        return HAL_TIMEOUT;
 80020f0:	2303      	movs	r3, #3
 80020f2:	e00f      	b.n	8002114 <UART_WaitOnFlagUntilTimeout+0x8c>
  while ((__HAL_UART_GET_FLAG(huart, Flag) ? SET : RESET) == Status)
 80020f4:	68fb      	ldr	r3, [r7, #12]
 80020f6:	681b      	ldr	r3, [r3, #0]
 80020f8:	681a      	ldr	r2, [r3, #0]
 80020fa:	68bb      	ldr	r3, [r7, #8]
 80020fc:	4013      	ands	r3, r2
 80020fe:	68ba      	ldr	r2, [r7, #8]
 8002100:	429a      	cmp	r2, r3
 8002102:	bf0c      	ite	eq
 8002104:	2301      	moveq	r3, #1
 8002106:	2300      	movne	r3, #0
 8002108:	b2db      	uxtb	r3, r3
 800210a:	461a      	mov	r2, r3
 800210c:	79fb      	ldrb	r3, [r7, #7]
 800210e:	429a      	cmp	r2, r3
 8002110:	d0c3      	beq.n	800209a <UART_WaitOnFlagUntilTimeout+0x12>
      }
    }
  }
  return HAL_OK;
 8002112:	2300      	movs	r3, #0
}
 8002114:	4618      	mov	r0, r3
 8002116:	3710      	adds	r7, #16
 8002118:	46bd      	mov	sp, r7
 800211a:	bd80      	pop	{r7, pc}

0800211c <UART_SetConfig>:
  * @param  huart  Pointer to a UART_HandleTypeDef structure that contains
  *                the configuration information for the specified UART module.
  * @retval None
  */
static void UART_SetConfig(UART_HandleTypeDef *huart)
{
 800211c:	e92d 4ff0 	stmdb	sp!, {r4, r5, r6, r7, r8, r9, sl, fp, lr}
 8002120:	b085      	sub	sp, #20
 8002122:	af00      	add	r7, sp, #0
 8002124:	6078      	str	r0, [r7, #4]
  assert_param(IS_UART_MODE(huart->Init.Mode));

  /*-------------------------- USART CR2 Configuration -----------------------*/
  /* Configure the UART Stop Bits: Set STOP[13:12] bits
     according to huart->Init.StopBits value */
  MODIFY_REG(huart->Instance->CR2, USART_CR2_STOP, huart->Init.StopBits);
 8002126:	687b      	ldr	r3, [r7, #4]
 8002128:	681b      	ldr	r3, [r3, #0]
 800212a:	691b      	ldr	r3, [r3, #16]
 800212c:	f423 5140 	bic.w	r1, r3, #12288	; 0x3000
 8002130:	687b      	ldr	r3, [r7, #4]
 8002132:	68da      	ldr	r2, [r3, #12]
 8002134:	687b      	ldr	r3, [r7, #4]
 8002136:	681b      	ldr	r3, [r3, #0]
 8002138:	430a      	orrs	r2, r1
 800213a:	611a      	str	r2, [r3, #16]
     Set the M bits according to huart->Init.WordLength value
     Set PCE and PS bits according to huart->Init.Parity value
     Set TE and RE bits according to huart->Init.Mode value
     Set OVER8 bit according to huart->Init.OverSampling value */

  tmpreg = (uint32_t)huart->Init.WordLength | huart->Init.Parity | huart->Init.Mode | huart->Init.OverSampling;
 800213c:	687b      	ldr	r3, [r7, #4]
 800213e:	689a      	ldr	r2, [r3, #8]
 8002140:	687b      	ldr	r3, [r7, #4]
 8002142:	691b      	ldr	r3, [r3, #16]
 8002144:	431a      	orrs	r2, r3
 8002146:	687b      	ldr	r3, [r7, #4]
 8002148:	695b      	ldr	r3, [r3, #20]
 800214a:	431a      	orrs	r2, r3
 800214c:	687b      	ldr	r3, [r7, #4]
 800214e:	69db      	ldr	r3, [r3, #28]
 8002150:	4313      	orrs	r3, r2
 8002152:	60bb      	str	r3, [r7, #8]
  MODIFY_REG(huart->Instance->CR1,
 8002154:	687b      	ldr	r3, [r7, #4]
 8002156:	681b      	ldr	r3, [r3, #0]
 8002158:	68db      	ldr	r3, [r3, #12]
 800215a:	f423 4316 	bic.w	r3, r3, #38400	; 0x9600
 800215e:	f023 030c 	bic.w	r3, r3, #12
 8002162:	687a      	ldr	r2, [r7, #4]
 8002164:	6812      	ldr	r2, [r2, #0]
 8002166:	68b9      	ldr	r1, [r7, #8]
 8002168:	430b      	orrs	r3, r1
 800216a:	60d3      	str	r3, [r2, #12]
             (uint32_t)(USART_CR1_M | USART_CR1_PCE | USART_CR1_PS | USART_CR1_TE | USART_CR1_RE | USART_CR1_OVER8),
             tmpreg);

  /*-------------------------- USART CR3 Configuration -----------------------*/
  /* Configure the UART HFC: Set CTSE and RTSE bits according to huart->Init.HwFlowCtl value */
  MODIFY_REG(huart->Instance->CR3, (USART_CR3_RTSE | USART_CR3_CTSE), huart->Init.HwFlowCtl);
 800216c:	687b      	ldr	r3, [r7, #4]
 800216e:	681b      	ldr	r3, [r3, #0]
 8002170:	695b      	ldr	r3, [r3, #20]
 8002172:	f423 7140 	bic.w	r1, r3, #768	; 0x300
 8002176:	687b      	ldr	r3, [r7, #4]
 8002178:	699a      	ldr	r2, [r3, #24]
 800217a:	687b      	ldr	r3, [r7, #4]
 800217c:	681b      	ldr	r3, [r3, #0]
 800217e:	430a      	orrs	r2, r1
 8002180:	615a      	str	r2, [r3, #20]
    if ((huart->Instance == USART1) || (huart->Instance == USART6) || (huart->Instance == UART9) || (huart->Instance == UART10))
    {
      pclk = HAL_RCC_GetPCLK2Freq();
    }
#elif defined(USART6)
    if ((huart->Instance == USART1) || (huart->Instance == USART6))
 8002182:	687b      	ldr	r3, [r7, #4]
 8002184:	681b      	ldr	r3, [r3, #0]
 8002186:	4ad0      	ldr	r2, [pc, #832]	; (80024c8 <UART_SetConfig+0x3ac>)
 8002188:	4293      	cmp	r3, r2
 800218a:	d004      	beq.n	8002196 <UART_SetConfig+0x7a>
 800218c:	687b      	ldr	r3, [r7, #4]
 800218e:	681b      	ldr	r3, [r3, #0]
 8002190:	4ace      	ldr	r2, [pc, #824]	; (80024cc <UART_SetConfig+0x3b0>)
 8002192:	4293      	cmp	r3, r2
 8002194:	d103      	bne.n	800219e <UART_SetConfig+0x82>
    {
      pclk = HAL_RCC_GetPCLK2Freq();
 8002196:	f7ff fb71 	bl	800187c <HAL_RCC_GetPCLK2Freq>
 800219a:	60f8      	str	r0, [r7, #12]
 800219c:	e002      	b.n	80021a4 <UART_SetConfig+0x88>
      pclk = HAL_RCC_GetPCLK2Freq();
    }
#endif /* USART6 */
    else
    {
      pclk = HAL_RCC_GetPCLK1Freq();
 800219e:	f7ff fb59 	bl	8001854 <HAL_RCC_GetPCLK1Freq>
 80021a2:	60f8      	str	r0, [r7, #12]
    }
  /*-------------------------- USART BRR Configuration ---------------------*/
  if (huart->Init.OverSampling == UART_OVERSAMPLING_8)
 80021a4:	687b      	ldr	r3, [r7, #4]
 80021a6:	69db      	ldr	r3, [r3, #28]
 80021a8:	f5b3 4f00 	cmp.w	r3, #32768	; 0x8000
 80021ac:	f040 80ba 	bne.w	8002324 <UART_SetConfig+0x208>
  {
    huart->Instance->BRR = UART_BRR_SAMPLING8(pclk, huart->Init.BaudRate);
 80021b0:	68fb      	ldr	r3, [r7, #12]
 80021b2:	461d      	mov	r5, r3
 80021b4:	f04f 0600 	mov.w	r6, #0
 80021b8:	46a8      	mov	r8, r5
 80021ba:	46b1      	mov	r9, r6
 80021bc:	eb18 0308 	adds.w	r3, r8, r8
 80021c0:	eb49 0409 	adc.w	r4, r9, r9
 80021c4:	4698      	mov	r8, r3
 80021c6:	46a1      	mov	r9, r4
 80021c8:	eb18 0805 	adds.w	r8, r8, r5
 80021cc:	eb49 0906 	adc.w	r9, r9, r6
 80021d0:	f04f 0100 	mov.w	r1, #0
 80021d4:	f04f 0200 	mov.w	r2, #0
 80021d8:	ea4f 02c9 	mov.w	r2, r9, lsl #3
 80021dc:	ea42 7258 	orr.w	r2, r2, r8, lsr #29
 80021e0:	ea4f 01c8 	mov.w	r1, r8, lsl #3
 80021e4:	4688      	mov	r8, r1
 80021e6:	4691      	mov	r9, r2
 80021e8:	eb18 0005 	adds.w	r0, r8, r5
 80021ec:	eb49 0106 	adc.w	r1, r9, r6
 80021f0:	687b      	ldr	r3, [r7, #4]
 80021f2:	685b      	ldr	r3, [r3, #4]
 80021f4:	461d      	mov	r5, r3
 80021f6:	f04f 0600 	mov.w	r6, #0
 80021fa:	196b      	adds	r3, r5, r5
 80021fc:	eb46 0406 	adc.w	r4, r6, r6
 8002200:	461a      	mov	r2, r3
 8002202:	4623      	mov	r3, r4
 8002204:	f000 f9c4 	bl	8002590 <__aeabi_uldivmod>
 8002208:	4603      	mov	r3, r0
 800220a:	460c      	mov	r4, r1
 800220c:	461a      	mov	r2, r3
 800220e:	4bb0      	ldr	r3, [pc, #704]	; (80024d0 <UART_SetConfig+0x3b4>)
 8002210:	fba3 2302 	umull	r2, r3, r3, r2
 8002214:	095b      	lsrs	r3, r3, #5
 8002216:	ea4f 1803 	mov.w	r8, r3, lsl #4
 800221a:	68fb      	ldr	r3, [r7, #12]
 800221c:	461d      	mov	r5, r3
 800221e:	f04f 0600 	mov.w	r6, #0
 8002222:	46a9      	mov	r9, r5
 8002224:	46b2      	mov	sl, r6
 8002226:	eb19 0309 	adds.w	r3, r9, r9
 800222a:	eb4a 040a 	adc.w	r4, sl, sl
 800222e:	4699      	mov	r9, r3
 8002230:	46a2      	mov	sl, r4
 8002232:	eb19 0905 	adds.w	r9, r9, r5
 8002236:	eb4a 0a06 	adc.w	sl, sl, r6
 800223a:	f04f 0100 	mov.w	r1, #0
 800223e:	f04f 0200 	mov.w	r2, #0
 8002242:	ea4f 02ca 	mov.w	r2, sl, lsl #3
 8002246:	ea42 7259 	orr.w	r2, r2, r9, lsr #29
 800224a:	ea4f 01c9 	mov.w	r1, r9, lsl #3
 800224e:	4689      	mov	r9, r1
 8002250:	4692      	mov	sl, r2
 8002252:	eb19 0005 	adds.w	r0, r9, r5
 8002256:	eb4a 0106 	adc.w	r1, sl, r6
 800225a:	687b      	ldr	r3, [r7, #4]
 800225c:	685b      	ldr	r3, [r3, #4]
 800225e:	461d      	mov	r5, r3
 8002260:	f04f 0600 	mov.w	r6, #0
 8002264:	196b      	adds	r3, r5, r5
 8002266:	eb46 0406 	adc.w	r4, r6, r6
 800226a:	461a      	mov	r2, r3
 800226c:	4623      	mov	r3, r4
 800226e:	f000 f98f 	bl	8002590 <__aeabi_uldivmod>
 8002272:	4603      	mov	r3, r0
 8002274:	460c      	mov	r4, r1
 8002276:	461a      	mov	r2, r3
 8002278:	4b95      	ldr	r3, [pc, #596]	; (80024d0 <UART_SetConfig+0x3b4>)
 800227a:	fba3 1302 	umull	r1, r3, r3, r2
 800227e:	095b      	lsrs	r3, r3, #5
 8002280:	2164      	movs	r1, #100	; 0x64
 8002282:	fb01 f303 	mul.w	r3, r1, r3
 8002286:	1ad3      	subs	r3, r2, r3
 8002288:	00db      	lsls	r3, r3, #3
 800228a:	3332      	adds	r3, #50	; 0x32
 800228c:	4a90      	ldr	r2, [pc, #576]	; (80024d0 <UART_SetConfig+0x3b4>)
 800228e:	fba2 2303 	umull	r2, r3, r2, r3
 8002292:	095b      	lsrs	r3, r3, #5
 8002294:	005b      	lsls	r3, r3, #1
 8002296:	f403 73f8 	and.w	r3, r3, #496	; 0x1f0
 800229a:	4498      	add	r8, r3
 800229c:	68fb      	ldr	r3, [r7, #12]
 800229e:	461d      	mov	r5, r3
 80022a0:	f04f 0600 	mov.w	r6, #0
 80022a4:	46a9      	mov	r9, r5
 80022a6:	46b2      	mov	sl, r6
 80022a8:	eb19 0309 	adds.w	r3, r9, r9
 80022ac:	eb4a 040a 	adc.w	r4, sl, sl
 80022b0:	4699      	mov	r9, r3
 80022b2:	46a2      	mov	sl, r4
 80022b4:	eb19 0905 	adds.w	r9, r9, r5
 80022b8:	eb4a 0a06 	adc.w	sl, sl, r6
 80022bc:	f04f 0100 	mov.w	r1, #0
 80022c0:	f04f 0200 	mov.w	r2, #0
 80022c4:	ea4f 02ca 	mov.w	r2, sl, lsl #3
 80022c8:	ea42 7259 	orr.w	r2, r2, r9, lsr #29
 80022cc:	ea4f 01c9 	mov.w	r1, r9, lsl #3
 80022d0:	4689      	mov	r9, r1
 80022d2:	4692      	mov	sl, r2
 80022d4:	eb19 0005 	adds.w	r0, r9, r5
 80022d8:	eb4a 0106 	adc.w	r1, sl, r6
 80022dc:	687b      	ldr	r3, [r7, #4]
 80022de:	685b      	ldr	r3, [r3, #4]
 80022e0:	461d      	mov	r5, r3
 80022e2:	f04f 0600 	mov.w	r6, #0
 80022e6:	196b      	adds	r3, r5, r5
 80022e8:	eb46 0406 	adc.w	r4, r6, r6
 80022ec:	461a      	mov	r2, r3
 80022ee:	4623      	mov	r3, r4
 80022f0:	f000 f94e 	bl	8002590 <__aeabi_uldivmod>
 80022f4:	4603      	mov	r3, r0
 80022f6:	460c      	mov	r4, r1
 80022f8:	461a      	mov	r2, r3
 80022fa:	4b75      	ldr	r3, [pc, #468]	; (80024d0 <UART_SetConfig+0x3b4>)
 80022fc:	fba3 1302 	umull	r1, r3, r3, r2
 8002300:	095b      	lsrs	r3, r3, #5
 8002302:	2164      	movs	r1, #100	; 0x64
 8002304:	fb01 f303 	mul.w	r3, r1, r3
 8002308:	1ad3      	subs	r3, r2, r3
 800230a:	00db      	lsls	r3, r3, #3
 800230c:	3332      	adds	r3, #50	; 0x32
 800230e:	4a70      	ldr	r2, [pc, #448]	; (80024d0 <UART_SetConfig+0x3b4>)
 8002310:	fba2 2303 	umull	r2, r3, r2, r3
 8002314:	095b      	lsrs	r3, r3, #5
 8002316:	f003 0207 	and.w	r2, r3, #7
 800231a:	687b      	ldr	r3, [r7, #4]
 800231c:	681b      	ldr	r3, [r3, #0]
 800231e:	4442      	add	r2, r8
 8002320:	609a      	str	r2, [r3, #8]
  }
  else
  {
    huart->Instance->BRR = UART_BRR_SAMPLING16(pclk, huart->Init.BaudRate);
  }
}
 8002322:	e0cc      	b.n	80024be <UART_SetConfig+0x3a2>
    huart->Instance->BRR = UART_BRR_SAMPLING16(pclk, huart->Init.BaudRate);
 8002324:	68fb      	ldr	r3, [r7, #12]
 8002326:	469a      	mov	sl, r3
 8002328:	f04f 0b00 	mov.w	fp, #0
 800232c:	46d0      	mov	r8, sl
 800232e:	46d9      	mov	r9, fp
 8002330:	eb18 0308 	adds.w	r3, r8, r8
 8002334:	eb49 0409 	adc.w	r4, r9, r9
 8002338:	4698      	mov	r8, r3
 800233a:	46a1      	mov	r9, r4
 800233c:	eb18 080a 	adds.w	r8, r8, sl
 8002340:	eb49 090b 	adc.w	r9, r9, fp
 8002344:	f04f 0100 	mov.w	r1, #0
 8002348:	f04f 0200 	mov.w	r2, #0
 800234c:	ea4f 02c9 	mov.w	r2, r9, lsl #3
 8002350:	ea42 7258 	orr.w	r2, r2, r8, lsr #29
 8002354:	ea4f 01c8 	mov.w	r1, r8, lsl #3
 8002358:	4688      	mov	r8, r1
 800235a:	4691      	mov	r9, r2
 800235c:	eb1a 0508 	adds.w	r5, sl, r8
 8002360:	eb4b 0609 	adc.w	r6, fp, r9
 8002364:	687b      	ldr	r3, [r7, #4]
 8002366:	685b      	ldr	r3, [r3, #4]
 8002368:	4619      	mov	r1, r3
 800236a:	f04f 0200 	mov.w	r2, #0
 800236e:	f04f 0300 	mov.w	r3, #0
 8002372:	f04f 0400 	mov.w	r4, #0
 8002376:	0094      	lsls	r4, r2, #2
 8002378:	ea44 7491 	orr.w	r4, r4, r1, lsr #30
 800237c:	008b      	lsls	r3, r1, #2
 800237e:	461a      	mov	r2, r3
 8002380:	4623      	mov	r3, r4
 8002382:	4628      	mov	r0, r5
 8002384:	4631      	mov	r1, r6
 8002386:	f000 f903 	bl	8002590 <__aeabi_uldivmod>
 800238a:	4603      	mov	r3, r0
 800238c:	460c      	mov	r4, r1
 800238e:	461a      	mov	r2, r3
 8002390:	4b4f      	ldr	r3, [pc, #316]	; (80024d0 <UART_SetConfig+0x3b4>)
 8002392:	fba3 2302 	umull	r2, r3, r3, r2
 8002396:	095b      	lsrs	r3, r3, #5
 8002398:	ea4f 1803 	mov.w	r8, r3, lsl #4
 800239c:	68fb      	ldr	r3, [r7, #12]
 800239e:	469b      	mov	fp, r3
 80023a0:	f04f 0c00 	mov.w	ip, #0
 80023a4:	46d9      	mov	r9, fp
 80023a6:	46e2      	mov	sl, ip
 80023a8:	eb19 0309 	adds.w	r3, r9, r9
 80023ac:	eb4a 040a 	adc.w	r4, sl, sl
 80023b0:	4699      	mov	r9, r3
 80023b2:	46a2      	mov	sl, r4
 80023b4:	eb19 090b 	adds.w	r9, r9, fp
 80023b8:	eb4a 0a0c 	adc.w	sl, sl, ip
 80023bc:	f04f 0100 	mov.w	r1, #0
 80023c0:	f04f 0200 	mov.w	r2, #0
 80023c4:	ea4f 02ca 	mov.w	r2, sl, lsl #3
 80023c8:	ea42 7259 	orr.w	r2, r2, r9, lsr #29
 80023cc:	ea4f 01c9 	mov.w	r1, r9, lsl #3
 80023d0:	4689      	mov	r9, r1
 80023d2:	4692      	mov	sl, r2
 80023d4:	eb1b 0509 	adds.w	r5, fp, r9
 80023d8:	eb4c 060a 	adc.w	r6, ip, sl
 80023dc:	687b      	ldr	r3, [r7, #4]
 80023de:	685b      	ldr	r3, [r3, #4]
 80023e0:	4619      	mov	r1, r3
 80023e2:	f04f 0200 	mov.w	r2, #0
 80023e6:	f04f 0300 	mov.w	r3, #0
 80023ea:	f04f 0400 	mov.w	r4, #0
 80023ee:	0094      	lsls	r4, r2, #2
 80023f0:	ea44 7491 	orr.w	r4, r4, r1, lsr #30
 80023f4:	008b      	lsls	r3, r1, #2
 80023f6:	461a      	mov	r2, r3
 80023f8:	4623      	mov	r3, r4
 80023fa:	4628      	mov	r0, r5
 80023fc:	4631      	mov	r1, r6
 80023fe:	f000 f8c7 	bl	8002590 <__aeabi_uldivmod>
 8002402:	4603      	mov	r3, r0
 8002404:	460c      	mov	r4, r1
 8002406:	461a      	mov	r2, r3
 8002408:	4b31      	ldr	r3, [pc, #196]	; (80024d0 <UART_SetConfig+0x3b4>)
 800240a:	fba3 1302 	umull	r1, r3, r3, r2
 800240e:	095b      	lsrs	r3, r3, #5
 8002410:	2164      	movs	r1, #100	; 0x64
 8002412:	fb01 f303 	mul.w	r3, r1, r3
 8002416:	1ad3      	subs	r3, r2, r3
 8002418:	011b      	lsls	r3, r3, #4
 800241a:	3332      	adds	r3, #50	; 0x32
 800241c:	4a2c      	ldr	r2, [pc, #176]	; (80024d0 <UART_SetConfig+0x3b4>)
 800241e:	fba2 2303 	umull	r2, r3, r2, r3
 8002422:	095b      	lsrs	r3, r3, #5
 8002424:	f003 03f0 	and.w	r3, r3, #240	; 0xf0
 8002428:	4498      	add	r8, r3
 800242a:	68fb      	ldr	r3, [r7, #12]
 800242c:	469b      	mov	fp, r3
 800242e:	f04f 0c00 	mov.w	ip, #0
 8002432:	46d9      	mov	r9, fp
 8002434:	46e2      	mov	sl, ip
 8002436:	eb19 0309 	adds.w	r3, r9, r9
 800243a:	eb4a 040a 	adc.w	r4, sl, sl
 800243e:	4699      	mov	r9, r3
 8002440:	46a2      	mov	sl, r4
 8002442:	eb19 090b 	adds.w	r9, r9, fp
 8002446:	eb4a 0a0c 	adc.w	sl, sl, ip
 800244a:	f04f 0100 	mov.w	r1, #0
 800244e:	f04f 0200 	mov.w	r2, #0
 8002452:	ea4f 02ca 	mov.w	r2, sl, lsl #3
 8002456:	ea42 7259 	orr.w	r2, r2, r9, lsr #29
 800245a:	ea4f 01c9 	mov.w	r1, r9, lsl #3
 800245e:	4689      	mov	r9, r1
 8002460:	4692      	mov	sl, r2
 8002462:	eb1b 0509 	adds.w	r5, fp, r9
 8002466:	eb4c 060a 	adc.w	r6, ip, sl
 800246a:	687b      	ldr	r3, [r7, #4]
 800246c:	685b      	ldr	r3, [r3, #4]
 800246e:	4619      	mov	r1, r3
 8002470:	f04f 0200 	mov.w	r2, #0
 8002474:	f04f 0300 	mov.w	r3, #0
 8002478:	f04f 0400 	mov.w	r4, #0
 800247c:	0094      	lsls	r4, r2, #2
 800247e:	ea44 7491 	orr.w	r4, r4, r1, lsr #30
 8002482:	008b      	lsls	r3, r1, #2
 8002484:	461a      	mov	r2, r3
 8002486:	4623      	mov	r3, r4
 8002488:	4628      	mov	r0, r5
 800248a:	4631      	mov	r1, r6
 800248c:	f000 f880 	bl	8002590 <__aeabi_uldivmod>
 8002490:	4603      	mov	r3, r0
 8002492:	460c      	mov	r4, r1
 8002494:	461a      	mov	r2, r3
 8002496:	4b0e      	ldr	r3, [pc, #56]	; (80024d0 <UART_SetConfig+0x3b4>)
 8002498:	fba3 1302 	umull	r1, r3, r3, r2
 800249c:	095b      	lsrs	r3, r3, #5
 800249e:	2164      	movs	r1, #100	; 0x64
 80024a0:	fb01 f303 	mul.w	r3, r1, r3
 80024a4:	1ad3      	subs	r3, r2, r3
 80024a6:	011b      	lsls	r3, r3, #4
 80024a8:	3332      	adds	r3, #50	; 0x32
 80024aa:	4a09      	ldr	r2, [pc, #36]	; (80024d0 <UART_SetConfig+0x3b4>)
 80024ac:	fba2 2303 	umull	r2, r3, r2, r3
 80024b0:	095b      	lsrs	r3, r3, #5
 80024b2:	f003 020f 	and.w	r2, r3, #15
 80024b6:	687b      	ldr	r3, [r7, #4]
 80024b8:	681b      	ldr	r3, [r3, #0]
 80024ba:	4442      	add	r2, r8
 80024bc:	609a      	str	r2, [r3, #8]
}
 80024be:	bf00      	nop
 80024c0:	3714      	adds	r7, #20
 80024c2:	46bd      	mov	sp, r7
 80024c4:	e8bd 8ff0 	ldmia.w	sp!, {r4, r5, r6, r7, r8, r9, sl, fp, pc}
 80024c8:	40011000 	.word	0x40011000
 80024cc:	40011400 	.word	0x40011400
 80024d0:	51eb851f 	.word	0x51eb851f

080024d4 <BSP_LED_Init>:
  * @param  Led: Specifies the Led to be configured. 
  *   This parameter can be one of following parameters:
  *     @arg LED2
  */
void BSP_LED_Init(Led_TypeDef Led)
{
 80024d4:	b580      	push	{r7, lr}
 80024d6:	b088      	sub	sp, #32
 80024d8:	af00      	add	r7, sp, #0
 80024da:	4603      	mov	r3, r0
 80024dc:	71fb      	strb	r3, [r7, #7]
  GPIO_InitTypeDef  GPIO_InitStruct;
  
  /* Enable the GPIO_LED Clock */
  LEDx_GPIO_CLK_ENABLE(Led);
 80024de:	2300      	movs	r3, #0
 80024e0:	60bb      	str	r3, [r7, #8]
 80024e2:	4b15      	ldr	r3, [pc, #84]	; (8002538 <BSP_LED_Init+0x64>)
 80024e4:	6b1b      	ldr	r3, [r3, #48]	; 0x30
 80024e6:	4a14      	ldr	r2, [pc, #80]	; (8002538 <BSP_LED_Init+0x64>)
 80024e8:	f043 0301 	orr.w	r3, r3, #1
 80024ec:	6313      	str	r3, [r2, #48]	; 0x30
 80024ee:	4b12      	ldr	r3, [pc, #72]	; (8002538 <BSP_LED_Init+0x64>)
 80024f0:	6b1b      	ldr	r3, [r3, #48]	; 0x30
 80024f2:	f003 0301 	and.w	r3, r3, #1
 80024f6:	60bb      	str	r3, [r7, #8]
 80024f8:	68bb      	ldr	r3, [r7, #8]
  
  /* Configure the GPIO_LED pin */
  GPIO_InitStruct.Pin = GPIO_PIN[Led];
 80024fa:	2320      	movs	r3, #32
 80024fc:	60fb      	str	r3, [r7, #12]
  GPIO_InitStruct.Mode = GPIO_MODE_OUTPUT_PP;
 80024fe:	2301      	movs	r3, #1
 8002500:	613b      	str	r3, [r7, #16]
  GPIO_InitStruct.Pull = GPIO_NOPULL;
 8002502:	2300      	movs	r3, #0
 8002504:	617b      	str	r3, [r7, #20]
  GPIO_InitStruct.Speed = GPIO_SPEED_FAST;
 8002506:	2302      	movs	r3, #2
 8002508:	61bb      	str	r3, [r7, #24]
  
  HAL_GPIO_Init(GPIO_PORT[Led], &GPIO_InitStruct);
 800250a:	79fb      	ldrb	r3, [r7, #7]
 800250c:	4a0b      	ldr	r2, [pc, #44]	; (800253c <BSP_LED_Init+0x68>)
 800250e:	f852 3023 	ldr.w	r3, [r2, r3, lsl #2]
 8002512:	f107 020c 	add.w	r2, r7, #12
 8002516:	4611      	mov	r1, r2
 8002518:	4618      	mov	r0, r3
 800251a:	f7ff fb21 	bl	8001b60 <HAL_GPIO_Init>
  
  HAL_GPIO_WritePin(GPIO_PORT[Led], GPIO_PIN[Led], GPIO_PIN_RESET); 
 800251e:	79fb      	ldrb	r3, [r7, #7]
 8002520:	4a06      	ldr	r2, [pc, #24]	; (800253c <BSP_LED_Init+0x68>)
 8002522:	f852 3023 	ldr.w	r3, [r2, r3, lsl #2]
 8002526:	2120      	movs	r1, #32
 8002528:	2200      	movs	r2, #0
 800252a:	4618      	mov	r0, r3
 800252c:	f7ff fc9a 	bl	8001e64 <HAL_GPIO_WritePin>
}
 8002530:	bf00      	nop
 8002532:	3720      	adds	r7, #32
 8002534:	46bd      	mov	sp, r7
 8002536:	bd80      	pop	{r7, pc}
 8002538:	40023800 	.word	0x40023800
 800253c:	2000000c 	.word	0x2000000c

08002540 <BSP_LED_On>:
  * @param  Led: Specifies the Led to be set on. 
  *   This parameter can be one of following parameters:
  *     @arg LED2
  */
void BSP_LED_On(Led_TypeDef Led)
{
 8002540:	b580      	push	{r7, lr}
 8002542:	b082      	sub	sp, #8
 8002544:	af00      	add	r7, sp, #0
 8002546:	4603      	mov	r3, r0
 8002548:	71fb      	strb	r3, [r7, #7]
  HAL_GPIO_WritePin(GPIO_PORT[Led], GPIO_PIN[Led], GPIO_PIN_SET); 
 800254a:	79fb      	ldrb	r3, [r7, #7]
 800254c:	4a05      	ldr	r2, [pc, #20]	; (8002564 <BSP_LED_On+0x24>)
 800254e:	f852 3023 	ldr.w	r3, [r2, r3, lsl #2]
 8002552:	2120      	movs	r1, #32
 8002554:	2201      	movs	r2, #1
 8002556:	4618      	mov	r0, r3
 8002558:	f7ff fc84 	bl	8001e64 <HAL_GPIO_WritePin>
}
 800255c:	bf00      	nop
 800255e:	3708      	adds	r7, #8
 8002560:	46bd      	mov	sp, r7
 8002562:	bd80      	pop	{r7, pc}
 8002564:	2000000c 	.word	0x2000000c

08002568 <BSP_LED_Toggle>:
  * @param  Led: Specifies the Led to be toggled. 
  *   This parameter can be one of following parameters:
  *     @arg LED2  
  */
void BSP_LED_Toggle(Led_TypeDef Led)
{
 8002568:	b580      	push	{r7, lr}
 800256a:	b082      	sub	sp, #8
 800256c:	af00      	add	r7, sp, #0
 800256e:	4603      	mov	r3, r0
 8002570:	71fb      	strb	r3, [r7, #7]
  HAL_GPIO_TogglePin(GPIO_PORT[Led], GPIO_PIN[Led]);
 8002572:	79fb      	ldrb	r3, [r7, #7]
 8002574:	4a05      	ldr	r2, [pc, #20]	; (800258c <BSP_LED_Toggle+0x24>)
 8002576:	f852 3023 	ldr.w	r3, [r2, r3, lsl #2]
 800257a:	2220      	movs	r2, #32
 800257c:	4611      	mov	r1, r2
 800257e:	4618      	mov	r0, r3
 8002580:	f7ff fc89 	bl	8001e96 <HAL_GPIO_TogglePin>
}
 8002584:	bf00      	nop
 8002586:	3708      	adds	r7, #8
 8002588:	46bd      	mov	sp, r7
 800258a:	bd80      	pop	{r7, pc}
 800258c:	2000000c 	.word	0x2000000c

08002590 <__aeabi_uldivmod>:
 8002590:	b953      	cbnz	r3, 80025a8 <__aeabi_uldivmod+0x18>
 8002592:	b94a      	cbnz	r2, 80025a8 <__aeabi_uldivmod+0x18>
 8002594:	2900      	cmp	r1, #0
 8002596:	bf08      	it	eq
 8002598:	2800      	cmpeq	r0, #0
 800259a:	bf1c      	itt	ne
 800259c:	f04f 31ff 	movne.w	r1, #4294967295
 80025a0:	f04f 30ff 	movne.w	r0, #4294967295
 80025a4:	f000 b972 	b.w	800288c <__aeabi_idiv0>
 80025a8:	f1ad 0c08 	sub.w	ip, sp, #8
 80025ac:	e96d ce04 	strd	ip, lr, [sp, #-16]!
 80025b0:	f000 f806 	bl	80025c0 <__udivmoddi4>
 80025b4:	f8dd e004 	ldr.w	lr, [sp, #4]
 80025b8:	e9dd 2302 	ldrd	r2, r3, [sp, #8]
 80025bc:	b004      	add	sp, #16
 80025be:	4770      	bx	lr

080025c0 <__udivmoddi4>:
 80025c0:	e92d 47f0 	stmdb	sp!, {r4, r5, r6, r7, r8, r9, sl, lr}
 80025c4:	9e08      	ldr	r6, [sp, #32]
 80025c6:	4604      	mov	r4, r0
 80025c8:	4688      	mov	r8, r1
 80025ca:	2b00      	cmp	r3, #0
 80025cc:	d14b      	bne.n	8002666 <__udivmoddi4+0xa6>
 80025ce:	428a      	cmp	r2, r1
 80025d0:	4615      	mov	r5, r2
 80025d2:	d967      	bls.n	80026a4 <__udivmoddi4+0xe4>
 80025d4:	fab2 f282 	clz	r2, r2
 80025d8:	b14a      	cbz	r2, 80025ee <__udivmoddi4+0x2e>
 80025da:	f1c2 0720 	rsb	r7, r2, #32
 80025de:	fa01 f302 	lsl.w	r3, r1, r2
 80025e2:	fa20 f707 	lsr.w	r7, r0, r7
 80025e6:	4095      	lsls	r5, r2
 80025e8:	ea47 0803 	orr.w	r8, r7, r3
 80025ec:	4094      	lsls	r4, r2
 80025ee:	ea4f 4e15 	mov.w	lr, r5, lsr #16
 80025f2:	0c23      	lsrs	r3, r4, #16
 80025f4:	fbb8 f7fe 	udiv	r7, r8, lr
 80025f8:	fa1f fc85 	uxth.w	ip, r5
 80025fc:	fb0e 8817 	mls	r8, lr, r7, r8
 8002600:	ea43 4308 	orr.w	r3, r3, r8, lsl #16
 8002604:	fb07 f10c 	mul.w	r1, r7, ip
 8002608:	4299      	cmp	r1, r3
 800260a:	d909      	bls.n	8002620 <__udivmoddi4+0x60>
 800260c:	18eb      	adds	r3, r5, r3
 800260e:	f107 30ff 	add.w	r0, r7, #4294967295
 8002612:	f080 811b 	bcs.w	800284c <__udivmoddi4+0x28c>
 8002616:	4299      	cmp	r1, r3
 8002618:	f240 8118 	bls.w	800284c <__udivmoddi4+0x28c>
 800261c:	3f02      	subs	r7, #2
 800261e:	442b      	add	r3, r5
 8002620:	1a5b      	subs	r3, r3, r1
 8002622:	b2a4      	uxth	r4, r4
 8002624:	fbb3 f0fe 	udiv	r0, r3, lr
 8002628:	fb0e 3310 	mls	r3, lr, r0, r3
 800262c:	ea44 4403 	orr.w	r4, r4, r3, lsl #16
 8002630:	fb00 fc0c 	mul.w	ip, r0, ip
 8002634:	45a4      	cmp	ip, r4
 8002636:	d909      	bls.n	800264c <__udivmoddi4+0x8c>
 8002638:	192c      	adds	r4, r5, r4
 800263a:	f100 33ff 	add.w	r3, r0, #4294967295
 800263e:	f080 8107 	bcs.w	8002850 <__udivmoddi4+0x290>
 8002642:	45a4      	cmp	ip, r4
 8002644:	f240 8104 	bls.w	8002850 <__udivmoddi4+0x290>
 8002648:	3802      	subs	r0, #2
 800264a:	442c      	add	r4, r5
 800264c:	ea40 4007 	orr.w	r0, r0, r7, lsl #16
 8002650:	eba4 040c 	sub.w	r4, r4, ip
 8002654:	2700      	movs	r7, #0
 8002656:	b11e      	cbz	r6, 8002660 <__udivmoddi4+0xa0>
 8002658:	40d4      	lsrs	r4, r2
 800265a:	2300      	movs	r3, #0
 800265c:	e9c6 4300 	strd	r4, r3, [r6]
 8002660:	4639      	mov	r1, r7
 8002662:	e8bd 87f0 	ldmia.w	sp!, {r4, r5, r6, r7, r8, r9, sl, pc}
 8002666:	428b      	cmp	r3, r1
 8002668:	d909      	bls.n	800267e <__udivmoddi4+0xbe>
 800266a:	2e00      	cmp	r6, #0
 800266c:	f000 80eb 	beq.w	8002846 <__udivmoddi4+0x286>
 8002670:	2700      	movs	r7, #0
 8002672:	e9c6 0100 	strd	r0, r1, [r6]
 8002676:	4638      	mov	r0, r7
 8002678:	4639      	mov	r1, r7
 800267a:	e8bd 87f0 	ldmia.w	sp!, {r4, r5, r6, r7, r8, r9, sl, pc}
 800267e:	fab3 f783 	clz	r7, r3
 8002682:	2f00      	cmp	r7, #0
 8002684:	d147      	bne.n	8002716 <__udivmoddi4+0x156>
 8002686:	428b      	cmp	r3, r1
 8002688:	d302      	bcc.n	8002690 <__udivmoddi4+0xd0>
 800268a:	4282      	cmp	r2, r0
 800268c:	f200 80fa 	bhi.w	8002884 <__udivmoddi4+0x2c4>
 8002690:	1a84      	subs	r4, r0, r2
 8002692:	eb61 0303 	sbc.w	r3, r1, r3
 8002696:	2001      	movs	r0, #1
 8002698:	4698      	mov	r8, r3
 800269a:	2e00      	cmp	r6, #0
 800269c:	d0e0      	beq.n	8002660 <__udivmoddi4+0xa0>
 800269e:	e9c6 4800 	strd	r4, r8, [r6]
 80026a2:	e7dd      	b.n	8002660 <__udivmoddi4+0xa0>
 80026a4:	b902      	cbnz	r2, 80026a8 <__udivmoddi4+0xe8>
 80026a6:	deff      	udf	#255	; 0xff
 80026a8:	fab2 f282 	clz	r2, r2
 80026ac:	2a00      	cmp	r2, #0
 80026ae:	f040 808f 	bne.w	80027d0 <__udivmoddi4+0x210>
 80026b2:	1b49      	subs	r1, r1, r5
 80026b4:	ea4f 4e15 	mov.w	lr, r5, lsr #16
 80026b8:	fa1f f885 	uxth.w	r8, r5
 80026bc:	2701      	movs	r7, #1
 80026be:	fbb1 fcfe 	udiv	ip, r1, lr
 80026c2:	0c23      	lsrs	r3, r4, #16
 80026c4:	fb0e 111c 	mls	r1, lr, ip, r1
 80026c8:	ea43 4301 	orr.w	r3, r3, r1, lsl #16
 80026cc:	fb08 f10c 	mul.w	r1, r8, ip
 80026d0:	4299      	cmp	r1, r3
 80026d2:	d907      	bls.n	80026e4 <__udivmoddi4+0x124>
 80026d4:	18eb      	adds	r3, r5, r3
 80026d6:	f10c 30ff 	add.w	r0, ip, #4294967295
 80026da:	d202      	bcs.n	80026e2 <__udivmoddi4+0x122>
 80026dc:	4299      	cmp	r1, r3
 80026de:	f200 80cd 	bhi.w	800287c <__udivmoddi4+0x2bc>
 80026e2:	4684      	mov	ip, r0
 80026e4:	1a59      	subs	r1, r3, r1
 80026e6:	b2a3      	uxth	r3, r4
 80026e8:	fbb1 f0fe 	udiv	r0, r1, lr
 80026ec:	fb0e 1410 	mls	r4, lr, r0, r1
 80026f0:	ea43 4404 	orr.w	r4, r3, r4, lsl #16
 80026f4:	fb08 f800 	mul.w	r8, r8, r0
 80026f8:	45a0      	cmp	r8, r4
 80026fa:	d907      	bls.n	800270c <__udivmoddi4+0x14c>
 80026fc:	192c      	adds	r4, r5, r4
 80026fe:	f100 33ff 	add.w	r3, r0, #4294967295
 8002702:	d202      	bcs.n	800270a <__udivmoddi4+0x14a>
 8002704:	45a0      	cmp	r8, r4
 8002706:	f200 80b6 	bhi.w	8002876 <__udivmoddi4+0x2b6>
 800270a:	4618      	mov	r0, r3
 800270c:	eba4 0408 	sub.w	r4, r4, r8
 8002710:	ea40 400c 	orr.w	r0, r0, ip, lsl #16
 8002714:	e79f      	b.n	8002656 <__udivmoddi4+0x96>
 8002716:	f1c7 0c20 	rsb	ip, r7, #32
 800271a:	40bb      	lsls	r3, r7
 800271c:	fa22 fe0c 	lsr.w	lr, r2, ip
 8002720:	ea4e 0e03 	orr.w	lr, lr, r3
 8002724:	fa01 f407 	lsl.w	r4, r1, r7
 8002728:	fa20 f50c 	lsr.w	r5, r0, ip
 800272c:	fa21 f30c 	lsr.w	r3, r1, ip
 8002730:	ea4f 481e 	mov.w	r8, lr, lsr #16
 8002734:	4325      	orrs	r5, r4
 8002736:	fbb3 f9f8 	udiv	r9, r3, r8
 800273a:	0c2c      	lsrs	r4, r5, #16
 800273c:	fb08 3319 	mls	r3, r8, r9, r3
 8002740:	fa1f fa8e 	uxth.w	sl, lr
 8002744:	ea44 4303 	orr.w	r3, r4, r3, lsl #16
 8002748:	fb09 f40a 	mul.w	r4, r9, sl
 800274c:	429c      	cmp	r4, r3
 800274e:	fa02 f207 	lsl.w	r2, r2, r7
 8002752:	fa00 f107 	lsl.w	r1, r0, r7
 8002756:	d90b      	bls.n	8002770 <__udivmoddi4+0x1b0>
 8002758:	eb1e 0303 	adds.w	r3, lr, r3
 800275c:	f109 30ff 	add.w	r0, r9, #4294967295
 8002760:	f080 8087 	bcs.w	8002872 <__udivmoddi4+0x2b2>
 8002764:	429c      	cmp	r4, r3
 8002766:	f240 8084 	bls.w	8002872 <__udivmoddi4+0x2b2>
 800276a:	f1a9 0902 	sub.w	r9, r9, #2
 800276e:	4473      	add	r3, lr
 8002770:	1b1b      	subs	r3, r3, r4
 8002772:	b2ad      	uxth	r5, r5
 8002774:	fbb3 f0f8 	udiv	r0, r3, r8
 8002778:	fb08 3310 	mls	r3, r8, r0, r3
 800277c:	ea45 4403 	orr.w	r4, r5, r3, lsl #16
 8002780:	fb00 fa0a 	mul.w	sl, r0, sl
 8002784:	45a2      	cmp	sl, r4
 8002786:	d908      	bls.n	800279a <__udivmoddi4+0x1da>
 8002788:	eb1e 0404 	adds.w	r4, lr, r4
 800278c:	f100 33ff 	add.w	r3, r0, #4294967295
 8002790:	d26b      	bcs.n	800286a <__udivmoddi4+0x2aa>
 8002792:	45a2      	cmp	sl, r4
 8002794:	d969      	bls.n	800286a <__udivmoddi4+0x2aa>
 8002796:	3802      	subs	r0, #2
 8002798:	4474      	add	r4, lr
 800279a:	ea40 4009 	orr.w	r0, r0, r9, lsl #16
 800279e:	fba0 8902 	umull	r8, r9, r0, r2
 80027a2:	eba4 040a 	sub.w	r4, r4, sl
 80027a6:	454c      	cmp	r4, r9
 80027a8:	46c2      	mov	sl, r8
 80027aa:	464b      	mov	r3, r9
 80027ac:	d354      	bcc.n	8002858 <__udivmoddi4+0x298>
 80027ae:	d051      	beq.n	8002854 <__udivmoddi4+0x294>
 80027b0:	2e00      	cmp	r6, #0
 80027b2:	d069      	beq.n	8002888 <__udivmoddi4+0x2c8>
 80027b4:	ebb1 050a 	subs.w	r5, r1, sl
 80027b8:	eb64 0403 	sbc.w	r4, r4, r3
 80027bc:	fa04 fc0c 	lsl.w	ip, r4, ip
 80027c0:	40fd      	lsrs	r5, r7
 80027c2:	40fc      	lsrs	r4, r7
 80027c4:	ea4c 0505 	orr.w	r5, ip, r5
 80027c8:	e9c6 5400 	strd	r5, r4, [r6]
 80027cc:	2700      	movs	r7, #0
 80027ce:	e747      	b.n	8002660 <__udivmoddi4+0xa0>
 80027d0:	f1c2 0320 	rsb	r3, r2, #32
 80027d4:	fa20 f703 	lsr.w	r7, r0, r3
 80027d8:	4095      	lsls	r5, r2
 80027da:	fa01 f002 	lsl.w	r0, r1, r2
 80027de:	fa21 f303 	lsr.w	r3, r1, r3
 80027e2:	ea4f 4e15 	mov.w	lr, r5, lsr #16
 80027e6:	4338      	orrs	r0, r7
 80027e8:	0c01      	lsrs	r1, r0, #16
 80027ea:	fbb3 f7fe 	udiv	r7, r3, lr
 80027ee:	fa1f f885 	uxth.w	r8, r5
 80027f2:	fb0e 3317 	mls	r3, lr, r7, r3
 80027f6:	ea41 4103 	orr.w	r1, r1, r3, lsl #16
 80027fa:	fb07 f308 	mul.w	r3, r7, r8
 80027fe:	428b      	cmp	r3, r1
 8002800:	fa04 f402 	lsl.w	r4, r4, r2
 8002804:	d907      	bls.n	8002816 <__udivmoddi4+0x256>
 8002806:	1869      	adds	r1, r5, r1
 8002808:	f107 3cff 	add.w	ip, r7, #4294967295
 800280c:	d22f      	bcs.n	800286e <__udivmoddi4+0x2ae>
 800280e:	428b      	cmp	r3, r1
 8002810:	d92d      	bls.n	800286e <__udivmoddi4+0x2ae>
 8002812:	3f02      	subs	r7, #2
 8002814:	4429      	add	r1, r5
 8002816:	1acb      	subs	r3, r1, r3
 8002818:	b281      	uxth	r1, r0
 800281a:	fbb3 f0fe 	udiv	r0, r3, lr
 800281e:	fb0e 3310 	mls	r3, lr, r0, r3
 8002822:	ea41 4103 	orr.w	r1, r1, r3, lsl #16
