
../../../../build/stm32f4xx/main/main.elf:     file format elf32-littlearm


Disassembly of section .text:

08000000 <g_pfnVectors>:
 8000000:	20017fff 	strdcs	r7, [r1], -pc	; <UNPREDICTABLE>
 8000004:	08003401 	stmdaeq	r0, {r0, sl, ip, sp}
 8000008:	08003335 	stmdaeq	r0, {r0, r2, r4, r5, r8, r9, ip, sp}
 800000c:	08003451 	stmdaeq	r0, {r0, r4, r6, sl, ip, sp}
 8000010:	08003451 	stmdaeq	r0, {r0, r4, r6, sl, ip, sp}
 8000014:	08003451 	stmdaeq	r0, {r0, r4, r6, sl, ip, sp}
 8000018:	08003451 	stmdaeq	r0, {r0, r4, r6, sl, ip, sp}
	...
 800002c:	08003345 	stmdaeq	r0, {r0, r2, r6, r8, r9, ip, sp}
 8000030:	0800335d 	stmdaeq	r0, {r0, r2, r3, r4, r6, r8, r9, ip, sp}
 8000034:	00000000 	andeq	r0, r0, r0
 8000038:	08003455 	stmdaeq	r0, {r0, r2, r4, r6, sl, ip, sp}
 800003c:	08002d51 	stmdaeq	r0, {r0, r4, r6, r8, sl, fp, sp}
 8000040:	08003451 	stmdaeq	r0, {r0, r4, r6, sl, ip, sp}
 8000044:	08003451 	stmdaeq	r0, {r0, r4, r6, sl, ip, sp}
 8000048:	08003451 	stmdaeq	r0, {r0, r4, r6, sl, ip, sp}
 800004c:	08003451 	stmdaeq	r0, {r0, r4, r6, sl, ip, sp}
 8000050:	08003451 	stmdaeq	r0, {r0, r4, r6, sl, ip, sp}
 8000054:	08003451 	stmdaeq	r0, {r0, r4, r6, sl, ip, sp}
 8000058:	08003451 	stmdaeq	r0, {r0, r4, r6, sl, ip, sp}
 800005c:	08003451 	stmdaeq	r0, {r0, r4, r6, sl, ip, sp}
 8000060:	08003451 	stmdaeq	r0, {r0, r4, r6, sl, ip, sp}
 8000064:	08003451 	stmdaeq	r0, {r0, r4, r6, sl, ip, sp}
 8000068:	08003451 	stmdaeq	r0, {r0, r4, r6, sl, ip, sp}
 800006c:	08003451 	stmdaeq	r0, {r0, r4, r6, sl, ip, sp}
 8000070:	08003451 	stmdaeq	r0, {r0, r4, r6, sl, ip, sp}
 8000074:	08003451 	stmdaeq	r0, {r0, r4, r6, sl, ip, sp}
 8000078:	08003451 	stmdaeq	r0, {r0, r4, r6, sl, ip, sp}
 800007c:	08003451 	stmdaeq	r0, {r0, r4, r6, sl, ip, sp}
 8000080:	08003451 	stmdaeq	r0, {r0, r4, r6, sl, ip, sp}
 8000084:	08003451 	stmdaeq	r0, {r0, r4, r6, sl, ip, sp}
 8000088:	08003451 	stmdaeq	r0, {r0, r4, r6, sl, ip, sp}
	...
 800009c:	08003451 	stmdaeq	r0, {r0, r4, r6, sl, ip, sp}
 80000a0:	08003451 	stmdaeq	r0, {r0, r4, r6, sl, ip, sp}
 80000a4:	08003451 	stmdaeq	r0, {r0, r4, r6, sl, ip, sp}
 80000a8:	08003451 	stmdaeq	r0, {r0, r4, r6, sl, ip, sp}
 80000ac:	08003451 	stmdaeq	r0, {r0, r4, r6, sl, ip, sp}
 80000b0:	08003451 	stmdaeq	r0, {r0, r4, r6, sl, ip, sp}
 80000b4:	08003451 	stmdaeq	r0, {r0, r4, r6, sl, ip, sp}
 80000b8:	08003451 	stmdaeq	r0, {r0, r4, r6, sl, ip, sp}
 80000bc:	08003451 	stmdaeq	r0, {r0, r4, r6, sl, ip, sp}
 80000c0:	08003451 	stmdaeq	r0, {r0, r4, r6, sl, ip, sp}
 80000c4:	08003451 	stmdaeq	r0, {r0, r4, r6, sl, ip, sp}
 80000c8:	08003451 	stmdaeq	r0, {r0, r4, r6, sl, ip, sp}
 80000cc:	08003451 	stmdaeq	r0, {r0, r4, r6, sl, ip, sp}
 80000d0:	08003451 	stmdaeq	r0, {r0, r4, r6, sl, ip, sp}
 80000d4:	08003451 	stmdaeq	r0, {r0, r4, r6, sl, ip, sp}
 80000d8:	08003451 	stmdaeq	r0, {r0, r4, r6, sl, ip, sp}
 80000dc:	00000000 	andeq	r0, r0, r0
 80000e0:	08003451 	stmdaeq	r0, {r0, r4, r6, sl, ip, sp}
 80000e4:	08003451 	stmdaeq	r0, {r0, r4, r6, sl, ip, sp}
 80000e8:	08003451 	stmdaeq	r0, {r0, r4, r6, sl, ip, sp}
	...
 80000fc:	08003451 	stmdaeq	r0, {r0, r4, r6, sl, ip, sp}
 8000100:	00000000 	andeq	r0, r0, r0
 8000104:	08003451 	stmdaeq	r0, {r0, r4, r6, sl, ip, sp}
 8000108:	08003451 	stmdaeq	r0, {r0, r4, r6, sl, ip, sp}
 800010c:	08003451 	stmdaeq	r0, {r0, r4, r6, sl, ip, sp}
	...
 8000120:	08003451 	stmdaeq	r0, {r0, r4, r6, sl, ip, sp}
 8000124:	08003451 	stmdaeq	r0, {r0, r4, r6, sl, ip, sp}
 8000128:	08003451 	stmdaeq	r0, {r0, r4, r6, sl, ip, sp}
 800012c:	08003451 	stmdaeq	r0, {r0, r4, r6, sl, ip, sp}
 8000130:	08003451 	stmdaeq	r0, {r0, r4, r6, sl, ip, sp}
	...
 800014c:	08003451 	stmdaeq	r0, {r0, r4, r6, sl, ip, sp}
 8000150:	08003451 	stmdaeq	r0, {r0, r4, r6, sl, ip, sp}
 8000154:	08003451 	stmdaeq	r0, {r0, r4, r6, sl, ip, sp}
 8000158:	08003451 	stmdaeq	r0, {r0, r4, r6, sl, ip, sp}
 800015c:	08003451 	stmdaeq	r0, {r0, r4, r6, sl, ip, sp}
 8000160:	08003451 	stmdaeq	r0, {r0, r4, r6, sl, ip, sp}
 8000164:	08003451 	stmdaeq	r0, {r0, r4, r6, sl, ip, sp}
	...
 8000184:	08003451 	stmdaeq	r0, {r0, r4, r6, sl, ip, sp}
	...
 8000190:	08003451 	stmdaeq	r0, {r0, r4, r6, sl, ip, sp}

08000194 <deregister_tm_clones>:
 8000194:	4803      	ldr	r0, [pc, #12]	; (80001a4 <deregister_tm_clones+0x10>)
 8000196:	4b04      	ldr	r3, [pc, #16]	; (80001a8 <deregister_tm_clones+0x14>)
 8000198:	4283      	cmp	r3, r0
 800019a:	d002      	beq.n	80001a2 <deregister_tm_clones+0xe>
 800019c:	4b03      	ldr	r3, [pc, #12]	; (80001ac <deregister_tm_clones+0x18>)
 800019e:	b103      	cbz	r3, 80001a2 <deregister_tm_clones+0xe>
 80001a0:	4718      	bx	r3
 80001a2:	4770      	bx	lr
 80001a4:	2000044c 	andcs	r0, r0, ip, asr #8
 80001a8:	2000044c 	andcs	r0, r0, ip, asr #8
 80001ac:	00000000 	andeq	r0, r0, r0

080001b0 <register_tm_clones>:
 80001b0:	4805      	ldr	r0, [pc, #20]	; (80001c8 <register_tm_clones+0x18>)
 80001b2:	4906      	ldr	r1, [pc, #24]	; (80001cc <register_tm_clones+0x1c>)
 80001b4:	1a09      	subs	r1, r1, r0
 80001b6:	1089      	asrs	r1, r1, #2
 80001b8:	eb01 71d1 	add.w	r1, r1, r1, lsr #31
 80001bc:	1049      	asrs	r1, r1, #1
 80001be:	d002      	beq.n	80001c6 <register_tm_clones+0x16>
 80001c0:	4b03      	ldr	r3, [pc, #12]	; (80001d0 <register_tm_clones+0x20>)
 80001c2:	b103      	cbz	r3, 80001c6 <register_tm_clones+0x16>
 80001c4:	4718      	bx	r3
 80001c6:	4770      	bx	lr
 80001c8:	2000044c 	andcs	r0, r0, ip, asr #8
 80001cc:	2000044c 	andcs	r0, r0, ip, asr #8
 80001d0:	00000000 	andeq	r0, r0, r0

080001d4 <__do_global_dtors_aux>:
 80001d4:	b510      	push	{r4, lr}
 80001d6:	4c06      	ldr	r4, [pc, #24]	; (80001f0 <__do_global_dtors_aux+0x1c>)
 80001d8:	7823      	ldrb	r3, [r4, #0]
 80001da:	b943      	cbnz	r3, 80001ee <__do_global_dtors_aux+0x1a>
 80001dc:	f7ff ffda 	bl	8000194 <deregister_tm_clones>
 80001e0:	4b04      	ldr	r3, [pc, #16]	; (80001f4 <__do_global_dtors_aux+0x20>)
 80001e2:	b113      	cbz	r3, 80001ea <__do_global_dtors_aux+0x16>
 80001e4:	4804      	ldr	r0, [pc, #16]	; (80001f8 <__do_global_dtors_aux+0x24>)
 80001e6:	f3af 8000 	nop.w
 80001ea:	2301      	movs	r3, #1
 80001ec:	7023      	strb	r3, [r4, #0]
 80001ee:	bd10      	pop	{r4, pc}
 80001f0:	20000600 	andcs	r0, r0, r0, lsl #12
 80001f4:	00000000 	andeq	r0, r0, r0
 80001f8:	08004428 	stmdaeq	r0, {r3, r5, sl, lr}

080001fc <frame_dummy>:
 80001fc:	b508      	push	{r3, lr}
 80001fe:	4b04      	ldr	r3, [pc, #16]	; (8000210 <frame_dummy+0x14>)
 8000200:	b11b      	cbz	r3, 800020a <frame_dummy+0xe>
 8000202:	4904      	ldr	r1, [pc, #16]	; (8000214 <frame_dummy+0x18>)
 8000204:	4804      	ldr	r0, [pc, #16]	; (8000218 <frame_dummy+0x1c>)
 8000206:	f3af 8000 	nop.w
 800020a:	e8bd 4008 	ldmia.w	sp!, {r3, lr}
 800020e:	e7cf      	b.n	80001b0 <register_tm_clones>
 8000210:	00000000 	andeq	r0, r0, r0
 8000214:	20000604 	andcs	r0, r0, r4, lsl #12
 8000218:	08004428 	stmdaeq	r0, {r3, r5, sl, lr}

0800021c <HAL_Init>:
  *         need to ensure that the SysTick time base is always set to 1 millisecond
  *         to have correct HAL operation.
  * @retval HAL status
  */
HAL_StatusTypeDef HAL_Init(void)
{
 800021c:	b580      	push	{r7, lr}
 800021e:	af00      	add	r7, sp, #0
  /* Configure Flash prefetch, Instruction cache, Data cache */ 
#if (INSTRUCTION_CACHE_ENABLE != 0U)
  __HAL_FLASH_INSTRUCTION_CACHE_ENABLE();
 8000220:	4b0e      	ldr	r3, [pc, #56]	; (800025c <HAL_Init+0x40>)
 8000222:	681b      	ldr	r3, [r3, #0]
 8000224:	4a0d      	ldr	r2, [pc, #52]	; (800025c <HAL_Init+0x40>)
 8000226:	f443 7300 	orr.w	r3, r3, #512	; 0x200
 800022a:	6013      	str	r3, [r2, #0]
#endif /* INSTRUCTION_CACHE_ENABLE */

#if (DATA_CACHE_ENABLE != 0U)
  __HAL_FLASH_DATA_CACHE_ENABLE();
 800022c:	4b0b      	ldr	r3, [pc, #44]	; (800025c <HAL_Init+0x40>)
 800022e:	681b      	ldr	r3, [r3, #0]
 8000230:	4a0a      	ldr	r2, [pc, #40]	; (800025c <HAL_Init+0x40>)
 8000232:	f443 6380 	orr.w	r3, r3, #1024	; 0x400
 8000236:	6013      	str	r3, [r2, #0]
#endif /* DATA_CACHE_ENABLE */

#if (PREFETCH_ENABLE != 0U)
  __HAL_FLASH_PREFETCH_BUFFER_ENABLE();
 8000238:	4b08      	ldr	r3, [pc, #32]	; (800025c <HAL_Init+0x40>)
 800023a:	681b      	ldr	r3, [r3, #0]
 800023c:	4a07      	ldr	r2, [pc, #28]	; (800025c <HAL_Init+0x40>)
 800023e:	f443 7380 	orr.w	r3, r3, #256	; 0x100
 8000242:	6013      	str	r3, [r2, #0]
#endif /* PREFETCH_ENABLE */

  /* Set Interrupt Group Priority */
  HAL_NVIC_SetPriorityGrouping(NVIC_PRIORITYGROUP_4);
 8000244:	2003      	movs	r0, #3
 8000246:	f000 f915 	bl	8000474 <HAL_NVIC_SetPriorityGrouping>

  /* Use systick as time base source and configure 1ms tick (default clock after Reset is HSI) */
  HAL_InitTick(TICK_INT_PRIORITY);
 800024a:	200f      	movs	r0, #15
 800024c:	f000 f808 	bl	8000260 <HAL_InitTick>

  /* Init the low level hardware */
  HAL_MspInit();
 8000250:	f000 f856 	bl	8000300 <HAL_MspInit>

  /* Return function status */
  return HAL_OK;
 8000254:	2300      	movs	r3, #0
}
 8000256:	4618      	mov	r0, r3
 8000258:	bd80      	pop	{r7, pc}
 800025a:	bf00      	nop
 800025c:	40023c00 	andmi	r3, r2, r0, lsl #24

08000260 <HAL_InitTick>:
  *       implementation  in user file.
  * @param TickPriority Tick interrupt priority.
  * @retval HAL status
  */
__weak HAL_StatusTypeDef HAL_InitTick(uint32_t TickPriority)
{
 8000260:	b580      	push	{r7, lr}
 8000262:	b082      	sub	sp, #8
 8000264:	af00      	add	r7, sp, #0
 8000266:	6078      	str	r0, [r7, #4]
  /* Configure the SysTick to have interrupt in 1ms time basis*/
  if (HAL_SYSTICK_Config(SystemCoreClock / (1000U / uwTickFreq)) > 0U)
 8000268:	4b12      	ldr	r3, [pc, #72]	; (80002b4 <HAL_InitTick+0x54>)
 800026a:	681a      	ldr	r2, [r3, #0]
 800026c:	4b12      	ldr	r3, [pc, #72]	; (80002b8 <HAL_InitTick+0x58>)
 800026e:	781b      	ldrb	r3, [r3, #0]
 8000270:	4619      	mov	r1, r3
 8000272:	f44f 737a 	mov.w	r3, #1000	; 0x3e8
 8000276:	fbb3 f3f1 	udiv	r3, r3, r1
 800027a:	fbb2 f3f3 	udiv	r3, r2, r3
 800027e:	4618      	mov	r0, r3
 8000280:	f000 f91f 	bl	80004c2 <HAL_SYSTICK_Config>
 8000284:	4603      	mov	r3, r0
 8000286:	2b00      	cmp	r3, #0
 8000288:	d001      	beq.n	800028e <HAL_InitTick+0x2e>
  {
    return HAL_ERROR;
 800028a:	2301      	movs	r3, #1
 800028c:	e00e      	b.n	80002ac <HAL_InitTick+0x4c>
  }

  /* Configure the SysTick IRQ priority */
  if (TickPriority < (1UL << __NVIC_PRIO_BITS))
 800028e:	687b      	ldr	r3, [r7, #4]
 8000290:	2b0f      	cmp	r3, #15
 8000292:	d80a      	bhi.n	80002aa <HAL_InitTick+0x4a>
  {
    HAL_NVIC_SetPriority(SysTick_IRQn, TickPriority, 0U);
 8000294:	2200      	movs	r2, #0
 8000296:	6879      	ldr	r1, [r7, #4]
 8000298:	f04f 30ff 	mov.w	r0, #4294967295	; 0xffffffff
 800029c:	f000 f8f5 	bl	800048a <HAL_NVIC_SetPriority>
    uwTickPrio = TickPriority;
 80002a0:	4a06      	ldr	r2, [pc, #24]	; (80002bc <HAL_InitTick+0x5c>)
 80002a2:	687b      	ldr	r3, [r7, #4]
 80002a4:	6013      	str	r3, [r2, #0]
  {
    return HAL_ERROR;
  }

  /* Return function status */
  return HAL_OK;
 80002a6:	2300      	movs	r3, #0
 80002a8:	e000      	b.n	80002ac <HAL_InitTick+0x4c>
    return HAL_ERROR;
 80002aa:	2301      	movs	r3, #1
}
 80002ac:	4618      	mov	r0, r3
 80002ae:	3708      	adds	r7, #8
 80002b0:	46bd      	mov	sp, r7
 80002b2:	bd80      	pop	{r7, pc}
 80002b4:	20000008 	andcs	r0, r0, r8
 80002b8:	20000004 	andcs	r0, r0, r4
 80002bc:	20000000 	andcs	r0, r0, r0

080002c0 <HAL_IncTick>:
 * @note This function is declared as __weak to be overwritten in case of other 
  *      implementations in user file.
  * @retval None
  */
__weak void HAL_IncTick(void)
{
 80002c0:	b480      	push	{r7}
 80002c2:	af00      	add	r7, sp, #0
  uwTick += uwTickFreq;
 80002c4:	4b06      	ldr	r3, [pc, #24]	; (80002e0 <HAL_IncTick+0x20>)
 80002c6:	781b      	ldrb	r3, [r3, #0]
 80002c8:	461a      	mov	r2, r3
 80002ca:	4b06      	ldr	r3, [pc, #24]	; (80002e4 <HAL_IncTick+0x24>)
 80002cc:	681b      	ldr	r3, [r3, #0]
 80002ce:	4413      	add	r3, r2
 80002d0:	4a04      	ldr	r2, [pc, #16]	; (80002e4 <HAL_IncTick+0x24>)
 80002d2:	6013      	str	r3, [r2, #0]
}
 80002d4:	bf00      	nop
 80002d6:	46bd      	mov	sp, r7
 80002d8:	f85d 7b04 	ldr.w	r7, [sp], #4
 80002dc:	4770      	bx	lr
 80002de:	bf00      	nop
 80002e0:	20000004 	andcs	r0, r0, r4
 80002e4:	20000624 	andcs	r0, r0, r4, lsr #12

080002e8 <HAL_GetTick>:
  * @note This function is declared as __weak to be overwritten in case of other 
  *       implementations in user file.
  * @retval tick value
  */
__weak uint32_t HAL_GetTick(void)
{
 80002e8:	b480      	push	{r7}
 80002ea:	af00      	add	r7, sp, #0
  return uwTick;
 80002ec:	4b03      	ldr	r3, [pc, #12]	; (80002fc <HAL_GetTick+0x14>)
 80002ee:	681b      	ldr	r3, [r3, #0]
}
 80002f0:	4618      	mov	r0, r3
 80002f2:	46bd      	mov	sp, r7
 80002f4:	f85d 7b04 	ldr.w	r7, [sp], #4
 80002f8:	4770      	bx	lr
 80002fa:	bf00      	nop
 80002fc:	20000624 	andcs	r0, r0, r4, lsr #12

08000300 <HAL_MspInit>:
  * @note   This function is called from HAL_Init() function to perform system
  *         level initialization (GPIOs, clock, DMA, interrupt).
  * @retval None
  */
void HAL_MspInit(void)
{
 8000300:	b480      	push	{r7}
 8000302:	af00      	add	r7, sp, #0

}
 8000304:	bf00      	nop
 8000306:	46bd      	mov	sp, r7
 8000308:	f85d 7b04 	ldr.w	r7, [sp], #4
 800030c:	4770      	bx	lr
	...

08000310 <__NVIC_SetPriorityGrouping>:
           In case of a conflict between priority grouping and available
           priority bits (__NVIC_PRIO_BITS), the smallest possible priority group is set.
  \param [in]      PriorityGroup  Priority grouping field.
 */
__STATIC_INLINE void __NVIC_SetPriorityGrouping(uint32_t PriorityGroup)
{
 8000310:	b480      	push	{r7}
 8000312:	b085      	sub	sp, #20
 8000314:	af00      	add	r7, sp, #0
 8000316:	6078      	str	r0, [r7, #4]
  uint32_t reg_value;
  uint32_t PriorityGroupTmp = (PriorityGroup & (uint32_t)0x07UL);             /* only values 0..7 are used          */
 8000318:	687b      	ldr	r3, [r7, #4]
 800031a:	f003 0307 	and.w	r3, r3, #7
 800031e:	60fb      	str	r3, [r7, #12]

  reg_value  =  SCB->AIRCR;                                                   /* read old register configuration    */
 8000320:	4b0c      	ldr	r3, [pc, #48]	; (8000354 <__NVIC_SetPriorityGrouping+0x44>)
 8000322:	68db      	ldr	r3, [r3, #12]
 8000324:	60bb      	str	r3, [r7, #8]
  reg_value &= ~((uint32_t)(SCB_AIRCR_VECTKEY_Msk | SCB_AIRCR_PRIGROUP_Msk)); /* clear bits to change               */
 8000326:	68ba      	ldr	r2, [r7, #8]
 8000328:	f64f 03ff 	movw	r3, #63743	; 0xf8ff
 800032c:	4013      	ands	r3, r2
 800032e:	60bb      	str	r3, [r7, #8]
  reg_value  =  (reg_value                                   |
                ((uint32_t)0x5FAUL << SCB_AIRCR_VECTKEY_Pos) |
                (PriorityGroupTmp << SCB_AIRCR_PRIGROUP_Pos)  );              /* Insert write key and priority group */
 8000330:	68fb      	ldr	r3, [r7, #12]
 8000332:	021a      	lsls	r2, r3, #8
                ((uint32_t)0x5FAUL << SCB_AIRCR_VECTKEY_Pos) |
 8000334:	68bb      	ldr	r3, [r7, #8]
 8000336:	4313      	orrs	r3, r2
  reg_value  =  (reg_value                                   |
 8000338:	f043 63bf 	orr.w	r3, r3, #100139008	; 0x5f80000
 800033c:	f443 3300 	orr.w	r3, r3, #131072	; 0x20000
 8000340:	60bb      	str	r3, [r7, #8]
  SCB->AIRCR =  reg_value;
 8000342:	4a04      	ldr	r2, [pc, #16]	; (8000354 <__NVIC_SetPriorityGrouping+0x44>)
 8000344:	68bb      	ldr	r3, [r7, #8]
 8000346:	60d3      	str	r3, [r2, #12]
}
 8000348:	bf00      	nop
 800034a:	3714      	adds	r7, #20
 800034c:	46bd      	mov	sp, r7
 800034e:	f85d 7b04 	ldr.w	r7, [sp], #4
 8000352:	4770      	bx	lr
 8000354:	e000ed00 	and	lr, r0, r0, lsl #26

08000358 <__NVIC_GetPriorityGrouping>:
  \brief   Get Priority Grouping
  \details Reads the priority grouping field from the NVIC Interrupt Controller.
  \return                Priority grouping field (SCB->AIRCR [10:8] PRIGROUP field).
 */
__STATIC_INLINE uint32_t __NVIC_GetPriorityGrouping(void)
{
 8000358:	b480      	push	{r7}
 800035a:	af00      	add	r7, sp, #0
  return ((uint32_t)((SCB->AIRCR & SCB_AIRCR_PRIGROUP_Msk) >> SCB_AIRCR_PRIGROUP_Pos));
 800035c:	4b04      	ldr	r3, [pc, #16]	; (8000370 <__NVIC_GetPriorityGrouping+0x18>)
 800035e:	68db      	ldr	r3, [r3, #12]
 8000360:	0a1b      	lsrs	r3, r3, #8
 8000362:	f003 0307 	and.w	r3, r3, #7
}
 8000366:	4618      	mov	r0, r3
 8000368:	46bd      	mov	sp, r7
 800036a:	f85d 7b04 	ldr.w	r7, [sp], #4
 800036e:	4770      	bx	lr
 8000370:	e000ed00 	and	lr, r0, r0, lsl #26

08000374 <__NVIC_SetPriority>:
  \param [in]      IRQn  Interrupt number.
  \param [in]  priority  Priority to set.
  \note    The priority cannot be set for every processor exception.
 */
__STATIC_INLINE void __NVIC_SetPriority(IRQn_Type IRQn, uint32_t priority)
{
 8000374:	b480      	push	{r7}
 8000376:	b083      	sub	sp, #12
 8000378:	af00      	add	r7, sp, #0
 800037a:	4603      	mov	r3, r0
 800037c:	6039      	str	r1, [r7, #0]
 800037e:	71fb      	strb	r3, [r7, #7]
  if ((int32_t)(IRQn) >= 0)
 8000380:	f997 3007 	ldrsb.w	r3, [r7, #7]
 8000384:	2b00      	cmp	r3, #0
 8000386:	db0a      	blt.n	800039e <__NVIC_SetPriority+0x2a>
  {
    NVIC->IP[((uint32_t)IRQn)]               = (uint8_t)((priority << (8U - __NVIC_PRIO_BITS)) & (uint32_t)0xFFUL);
 8000388:	683b      	ldr	r3, [r7, #0]
 800038a:	b2da      	uxtb	r2, r3
 800038c:	490c      	ldr	r1, [pc, #48]	; (80003c0 <__NVIC_SetPriority+0x4c>)
 800038e:	f997 3007 	ldrsb.w	r3, [r7, #7]
 8000392:	0112      	lsls	r2, r2, #4
 8000394:	b2d2      	uxtb	r2, r2
 8000396:	440b      	add	r3, r1
 8000398:	f883 2300 	strb.w	r2, [r3, #768]	; 0x300
  }
  else
  {
    SCB->SHP[(((uint32_t)IRQn) & 0xFUL)-4UL] = (uint8_t)((priority << (8U - __NVIC_PRIO_BITS)) & (uint32_t)0xFFUL);
  }
}
 800039c:	e00a      	b.n	80003b4 <__NVIC_SetPriority+0x40>
    SCB->SHP[(((uint32_t)IRQn) & 0xFUL)-4UL] = (uint8_t)((priority << (8U - __NVIC_PRIO_BITS)) & (uint32_t)0xFFUL);
 800039e:	683b      	ldr	r3, [r7, #0]
 80003a0:	b2da      	uxtb	r2, r3
 80003a2:	4908      	ldr	r1, [pc, #32]	; (80003c4 <__NVIC_SetPriority+0x50>)
 80003a4:	79fb      	ldrb	r3, [r7, #7]
 80003a6:	f003 030f 	and.w	r3, r3, #15
 80003aa:	3b04      	subs	r3, #4
 80003ac:	0112      	lsls	r2, r2, #4
 80003ae:	b2d2      	uxtb	r2, r2
 80003b0:	440b      	add	r3, r1
 80003b2:	761a      	strb	r2, [r3, #24]
}
 80003b4:	bf00      	nop
 80003b6:	370c      	adds	r7, #12
 80003b8:	46bd      	mov	sp, r7
 80003ba:	f85d 7b04 	ldr.w	r7, [sp], #4
 80003be:	4770      	bx	lr
 80003c0:	e000e100 	and	lr, r0, r0, lsl #2
 80003c4:	e000ed00 	and	lr, r0, r0, lsl #26

080003c8 <NVIC_EncodePriority>:
  \param [in]   PreemptPriority  Preemptive priority value (starting from 0).
  \param [in]       SubPriority  Subpriority value (starting from 0).
  \return                        Encoded priority. Value can be used in the function \ref NVIC_SetPriority().
 */
__STATIC_INLINE uint32_t NVIC_EncodePriority (uint32_t PriorityGroup, uint32_t PreemptPriority, uint32_t SubPriority)
{
 80003c8:	b480      	push	{r7}
 80003ca:	b089      	sub	sp, #36	; 0x24
 80003cc:	af00      	add	r7, sp, #0
 80003ce:	60f8      	str	r0, [r7, #12]
 80003d0:	60b9      	str	r1, [r7, #8]
 80003d2:	607a      	str	r2, [r7, #4]
  uint32_t PriorityGroupTmp = (PriorityGroup & (uint32_t)0x07UL);   /* only values 0..7 are used          */
 80003d4:	68fb      	ldr	r3, [r7, #12]
 80003d6:	f003 0307 	and.w	r3, r3, #7
 80003da:	61fb      	str	r3, [r7, #28]
  uint32_t PreemptPriorityBits;
  uint32_t SubPriorityBits;

  PreemptPriorityBits = ((7UL - PriorityGroupTmp) > (uint32_t)(__NVIC_PRIO_BITS)) ? (uint32_t)(__NVIC_PRIO_BITS) : (uint32_t)(7UL - PriorityGroupTmp);
 80003dc:	69fb      	ldr	r3, [r7, #28]
 80003de:	f1c3 0307 	rsb	r3, r3, #7
 80003e2:	2b04      	cmp	r3, #4
 80003e4:	bf28      	it	cs
 80003e6:	2304      	movcs	r3, #4
 80003e8:	61bb      	str	r3, [r7, #24]
  SubPriorityBits     = ((PriorityGroupTmp + (uint32_t)(__NVIC_PRIO_BITS)) < (uint32_t)7UL) ? (uint32_t)0UL : (uint32_t)((PriorityGroupTmp - 7UL) + (uint32_t)(__NVIC_PRIO_BITS));
 80003ea:	69fb      	ldr	r3, [r7, #28]
 80003ec:	3304      	adds	r3, #4
 80003ee:	2b06      	cmp	r3, #6
 80003f0:	d902      	bls.n	80003f8 <NVIC_EncodePriority+0x30>
 80003f2:	69fb      	ldr	r3, [r7, #28]
 80003f4:	3b03      	subs	r3, #3
 80003f6:	e000      	b.n	80003fa <NVIC_EncodePriority+0x32>
 80003f8:	2300      	movs	r3, #0
 80003fa:	617b      	str	r3, [r7, #20]

  return (
           ((PreemptPriority & (uint32_t)((1UL << (PreemptPriorityBits)) - 1UL)) << SubPriorityBits) |
 80003fc:	f04f 32ff 	mov.w	r2, #4294967295	; 0xffffffff
 8000400:	69bb      	ldr	r3, [r7, #24]
 8000402:	fa02 f303 	lsl.w	r3, r2, r3
 8000406:	43da      	mvns	r2, r3
 8000408:	68bb      	ldr	r3, [r7, #8]
 800040a:	401a      	ands	r2, r3
 800040c:	697b      	ldr	r3, [r7, #20]
 800040e:	409a      	lsls	r2, r3
           ((SubPriority     & (uint32_t)((1UL << (SubPriorityBits    )) - 1UL)))
 8000410:	f04f 31ff 	mov.w	r1, #4294967295	; 0xffffffff
 8000414:	697b      	ldr	r3, [r7, #20]
 8000416:	fa01 f303 	lsl.w	r3, r1, r3
 800041a:	43d9      	mvns	r1, r3
 800041c:	687b      	ldr	r3, [r7, #4]
 800041e:	400b      	ands	r3, r1
           ((PreemptPriority & (uint32_t)((1UL << (PreemptPriorityBits)) - 1UL)) << SubPriorityBits) |
 8000420:	4313      	orrs	r3, r2
         );
}
 8000422:	4618      	mov	r0, r3
 8000424:	3724      	adds	r7, #36	; 0x24
 8000426:	46bd      	mov	sp, r7
 8000428:	f85d 7b04 	ldr.w	r7, [sp], #4
 800042c:	4770      	bx	lr
	...

08000430 <SysTick_Config>:
  \note    When the variable <b>__Vendor_SysTickConfig</b> is set to 1, then the
           function <b>SysTick_Config</b> is not included. In this case, the file <b><i>device</i>.h</b>
           must contain a vendor-specific implementation of this function.
 */
__STATIC_INLINE uint32_t SysTick_Config(uint32_t ticks)
{
 8000430:	b580      	push	{r7, lr}
 8000432:	b082      	sub	sp, #8
 8000434:	af00      	add	r7, sp, #0
 8000436:	6078      	str	r0, [r7, #4]
  if ((ticks - 1UL) > SysTick_LOAD_RELOAD_Msk)
 8000438:	687b      	ldr	r3, [r7, #4]
 800043a:	3b01      	subs	r3, #1
 800043c:	f1b3 7f80 	cmp.w	r3, #16777216	; 0x1000000
 8000440:	d301      	bcc.n	8000446 <SysTick_Config+0x16>
  {
    return (1UL);                                                   /* Reload value impossible */
 8000442:	2301      	movs	r3, #1
 8000444:	e00f      	b.n	8000466 <SysTick_Config+0x36>
  }

  SysTick->LOAD  = (uint32_t)(ticks - 1UL);                         /* set reload register */
 8000446:	4a0a      	ldr	r2, [pc, #40]	; (8000470 <SysTick_Config+0x40>)
 8000448:	687b      	ldr	r3, [r7, #4]
 800044a:	3b01      	subs	r3, #1
 800044c:	6053      	str	r3, [r2, #4]
  NVIC_SetPriority (SysTick_IRQn, (1UL << __NVIC_PRIO_BITS) - 1UL); /* set Priority for Systick Interrupt */
 800044e:	210f      	movs	r1, #15
 8000450:	f04f 30ff 	mov.w	r0, #4294967295	; 0xffffffff
 8000454:	f7ff ff8e 	bl	8000374 <__NVIC_SetPriority>
  SysTick->VAL   = 0UL;                                             /* Load the SysTick Counter Value */
 8000458:	4b05      	ldr	r3, [pc, #20]	; (8000470 <SysTick_Config+0x40>)
 800045a:	2200      	movs	r2, #0
 800045c:	609a      	str	r2, [r3, #8]
  SysTick->CTRL  = SysTick_CTRL_CLKSOURCE_Msk |
 800045e:	4b04      	ldr	r3, [pc, #16]	; (8000470 <SysTick_Config+0x40>)
 8000460:	2207      	movs	r2, #7
 8000462:	601a      	str	r2, [r3, #0]
                   SysTick_CTRL_TICKINT_Msk   |
                   SysTick_CTRL_ENABLE_Msk;                         /* Enable SysTick IRQ and SysTick Timer */
  return (0UL);                                                     /* Function successful */
 8000464:	2300      	movs	r3, #0
}
 8000466:	4618      	mov	r0, r3
 8000468:	3708      	adds	r7, #8
 800046a:	46bd      	mov	sp, r7
 800046c:	bd80      	pop	{r7, pc}
 800046e:	bf00      	nop
 8000470:	e000e010 	and	lr, r0, r0, lsl r0

08000474 <HAL_NVIC_SetPriorityGrouping>:
  * @note   When the NVIC_PriorityGroup_0 is selected, IRQ preemption is no more possible. 
  *         The pending IRQ priority will be managed only by the subpriority. 
  * @retval None
  */
void HAL_NVIC_SetPriorityGrouping(uint32_t PriorityGroup)
{
 8000474:	b580      	push	{r7, lr}
 8000476:	b082      	sub	sp, #8
 8000478:	af00      	add	r7, sp, #0
 800047a:	6078      	str	r0, [r7, #4]
  /* Check the parameters */
  assert_param(IS_NVIC_PRIORITY_GROUP(PriorityGroup));
  
  /* Set the PRIGROUP[10:8] bits according to the PriorityGroup parameter value */
  NVIC_SetPriorityGrouping(PriorityGroup);
 800047c:	6878      	ldr	r0, [r7, #4]
 800047e:	f7ff ff47 	bl	8000310 <__NVIC_SetPriorityGrouping>
}
 8000482:	bf00      	nop
 8000484:	3708      	adds	r7, #8
 8000486:	46bd      	mov	sp, r7
 8000488:	bd80      	pop	{r7, pc}

0800048a <HAL_NVIC_SetPriority>:
  *         This parameter can be a value between 0 and 15
  *         A lower priority value indicates a higher priority.          
  * @retval None
  */
void HAL_NVIC_SetPriority(IRQn_Type IRQn, uint32_t PreemptPriority, uint32_t SubPriority)
{ 
 800048a:	b580      	push	{r7, lr}
 800048c:	b086      	sub	sp, #24
 800048e:	af00      	add	r7, sp, #0
 8000490:	4603      	mov	r3, r0
 8000492:	60b9      	str	r1, [r7, #8]
 8000494:	607a      	str	r2, [r7, #4]
 8000496:	73fb      	strb	r3, [r7, #15]
  uint32_t prioritygroup = 0x00U;
 8000498:	2300      	movs	r3, #0
 800049a:	617b      	str	r3, [r7, #20]
  
  /* Check the parameters */
  assert_param(IS_NVIC_SUB_PRIORITY(SubPriority));
  assert_param(IS_NVIC_PREEMPTION_PRIORITY(PreemptPriority));
  
  prioritygroup = NVIC_GetPriorityGrouping();
 800049c:	f7ff ff5c 	bl	8000358 <__NVIC_GetPriorityGrouping>
 80004a0:	6178      	str	r0, [r7, #20]
  
  NVIC_SetPriority(IRQn, NVIC_EncodePriority(prioritygroup, PreemptPriority, SubPriority));
 80004a2:	687a      	ldr	r2, [r7, #4]
 80004a4:	68b9      	ldr	r1, [r7, #8]
 80004a6:	6978      	ldr	r0, [r7, #20]
 80004a8:	f7ff ff8e 	bl	80003c8 <NVIC_EncodePriority>
 80004ac:	4602      	mov	r2, r0
 80004ae:	f997 300f 	ldrsb.w	r3, [r7, #15]
 80004b2:	4611      	mov	r1, r2
 80004b4:	4618      	mov	r0, r3
 80004b6:	f7ff ff5d 	bl	8000374 <__NVIC_SetPriority>
}
 80004ba:	bf00      	nop
 80004bc:	3718      	adds	r7, #24
 80004be:	46bd      	mov	sp, r7
 80004c0:	bd80      	pop	{r7, pc}

080004c2 <HAL_SYSTICK_Config>:
  * @param  TicksNumb Specifies the ticks Number of ticks between two interrupts.
  * @retval status:  - 0  Function succeeded.
  *                  - 1  Function failed.
  */
uint32_t HAL_SYSTICK_Config(uint32_t TicksNumb)
{
 80004c2:	b580      	push	{r7, lr}
 80004c4:	b082      	sub	sp, #8
 80004c6:	af00      	add	r7, sp, #0
 80004c8:	6078      	str	r0, [r7, #4]
   return SysTick_Config(TicksNumb);
 80004ca:	6878      	ldr	r0, [r7, #4]
 80004cc:	f7ff ffb0 	bl	8000430 <SysTick_Config>
 80004d0:	4603      	mov	r3, r0
}
 80004d2:	4618      	mov	r0, r3
 80004d4:	3708      	adds	r7, #8
 80004d6:	46bd      	mov	sp, r7
 80004d8:	bd80      	pop	{r7, pc}
	...

080004dc <HAL_RCC_OscConfig>:
  *         supported by this API. User should request a transition to HSE Off
  *         first and then HSE On or HSE Bypass.
  * @retval HAL status
  */
__weak HAL_StatusTypeDef HAL_RCC_OscConfig(RCC_OscInitTypeDef  *RCC_OscInitStruct)
{
 80004dc:	b580      	push	{r7, lr}
 80004de:	b086      	sub	sp, #24
 80004e0:	af00      	add	r7, sp, #0
 80004e2:	6078      	str	r0, [r7, #4]
  uint32_t tickstart, pll_config;

  /* Check Null pointer */
  if(RCC_OscInitStruct == NULL)
 80004e4:	687b      	ldr	r3, [r7, #4]
 80004e6:	2b00      	cmp	r3, #0
 80004e8:	d101      	bne.n	80004ee <HAL_RCC_OscConfig+0x12>
  {
    return HAL_ERROR;
 80004ea:	2301      	movs	r3, #1
 80004ec:	e264      	b.n	80009b8 <HAL_RCC_OscConfig+0x4dc>
  }

  /* Check the parameters */
  assert_param(IS_RCC_OSCILLATORTYPE(RCC_OscInitStruct->OscillatorType));
  /*------------------------------- HSE Configuration ------------------------*/
  if(((RCC_OscInitStruct->OscillatorType) & RCC_OSCILLATORTYPE_HSE) == RCC_OSCILLATORTYPE_HSE)
 80004ee:	687b      	ldr	r3, [r7, #4]
 80004f0:	681b      	ldr	r3, [r3, #0]
 80004f2:	f003 0301 	and.w	r3, r3, #1
 80004f6:	2b00      	cmp	r3, #0
 80004f8:	d075      	beq.n	80005e6 <HAL_RCC_OscConfig+0x10a>
  {
    /* Check the parameters */
    assert_param(IS_RCC_HSE(RCC_OscInitStruct->HSEState));
    /* When the HSE is used as system clock or clock source for PLL in these cases HSE will not disabled */
    if((__HAL_RCC_GET_SYSCLK_SOURCE() == RCC_CFGR_SWS_HSE) ||\
 80004fa:	4ba3      	ldr	r3, [pc, #652]	; (8000788 <HAL_RCC_OscConfig+0x2ac>)
 80004fc:	689b      	ldr	r3, [r3, #8]
 80004fe:	f003 030c 	and.w	r3, r3, #12
 8000502:	2b04      	cmp	r3, #4
 8000504:	d00c      	beq.n	8000520 <HAL_RCC_OscConfig+0x44>
      ((__HAL_RCC_GET_SYSCLK_SOURCE() == RCC_CFGR_SWS_PLL) && ((RCC->PLLCFGR & RCC_PLLCFGR_PLLSRC) == RCC_PLLCFGR_PLLSRC_HSE)))
 8000506:	4ba0      	ldr	r3, [pc, #640]	; (8000788 <HAL_RCC_OscConfig+0x2ac>)
 8000508:	689b      	ldr	r3, [r3, #8]
 800050a:	f003 030c 	and.w	r3, r3, #12
    if((__HAL_RCC_GET_SYSCLK_SOURCE() == RCC_CFGR_SWS_HSE) ||\
 800050e:	2b08      	cmp	r3, #8
 8000510:	d112      	bne.n	8000538 <HAL_RCC_OscConfig+0x5c>
      ((__HAL_RCC_GET_SYSCLK_SOURCE() == RCC_CFGR_SWS_PLL) && ((RCC->PLLCFGR & RCC_PLLCFGR_PLLSRC) == RCC_PLLCFGR_PLLSRC_HSE)))
 8000512:	4b9d      	ldr	r3, [pc, #628]	; (8000788 <HAL_RCC_OscConfig+0x2ac>)
 8000514:	685b      	ldr	r3, [r3, #4]
 8000516:	f403 0380 	and.w	r3, r3, #4194304	; 0x400000
 800051a:	f5b3 0f80 	cmp.w	r3, #4194304	; 0x400000
 800051e:	d10b      	bne.n	8000538 <HAL_RCC_OscConfig+0x5c>
    {
      if((__HAL_RCC_GET_FLAG(RCC_FLAG_HSERDY) != RESET) && (RCC_OscInitStruct->HSEState == RCC_HSE_OFF))
 8000520:	4b99      	ldr	r3, [pc, #612]	; (8000788 <HAL_RCC_OscConfig+0x2ac>)
 8000522:	681b      	ldr	r3, [r3, #0]
 8000524:	f403 3300 	and.w	r3, r3, #131072	; 0x20000
 8000528:	2b00      	cmp	r3, #0
 800052a:	d05b      	beq.n	80005e4 <HAL_RCC_OscConfig+0x108>
 800052c:	687b      	ldr	r3, [r7, #4]
 800052e:	685b      	ldr	r3, [r3, #4]
 8000530:	2b00      	cmp	r3, #0
 8000532:	d157      	bne.n	80005e4 <HAL_RCC_OscConfig+0x108>
      {
        return HAL_ERROR;
 8000534:	2301      	movs	r3, #1
 8000536:	e23f      	b.n	80009b8 <HAL_RCC_OscConfig+0x4dc>
      }
    }
    else
    {
      /* Set the new HSE configuration ---------------------------------------*/
      __HAL_RCC_HSE_CONFIG(RCC_OscInitStruct->HSEState);
 8000538:	687b      	ldr	r3, [r7, #4]
 800053a:	685b      	ldr	r3, [r3, #4]
 800053c:	f5b3 3f80 	cmp.w	r3, #65536	; 0x10000
 8000540:	d106      	bne.n	8000550 <HAL_RCC_OscConfig+0x74>
 8000542:	4b91      	ldr	r3, [pc, #580]	; (8000788 <HAL_RCC_OscConfig+0x2ac>)
 8000544:	681b      	ldr	r3, [r3, #0]
 8000546:	4a90      	ldr	r2, [pc, #576]	; (8000788 <HAL_RCC_OscConfig+0x2ac>)
 8000548:	f443 3380 	orr.w	r3, r3, #65536	; 0x10000
 800054c:	6013      	str	r3, [r2, #0]
 800054e:	e01d      	b.n	800058c <HAL_RCC_OscConfig+0xb0>
 8000550:	687b      	ldr	r3, [r7, #4]
 8000552:	685b      	ldr	r3, [r3, #4]
 8000554:	f5b3 2fa0 	cmp.w	r3, #327680	; 0x50000
 8000558:	d10c      	bne.n	8000574 <HAL_RCC_OscConfig+0x98>
 800055a:	4b8b      	ldr	r3, [pc, #556]	; (8000788 <HAL_RCC_OscConfig+0x2ac>)
 800055c:	681b      	ldr	r3, [r3, #0]
 800055e:	4a8a      	ldr	r2, [pc, #552]	; (8000788 <HAL_RCC_OscConfig+0x2ac>)
 8000560:	f443 2380 	orr.w	r3, r3, #262144	; 0x40000
 8000564:	6013      	str	r3, [r2, #0]
 8000566:	4b88      	ldr	r3, [pc, #544]	; (8000788 <HAL_RCC_OscConfig+0x2ac>)
 8000568:	681b      	ldr	r3, [r3, #0]
 800056a:	4a87      	ldr	r2, [pc, #540]	; (8000788 <HAL_RCC_OscConfig+0x2ac>)
 800056c:	f443 3380 	orr.w	r3, r3, #65536	; 0x10000
 8000570:	6013      	str	r3, [r2, #0]
 8000572:	e00b      	b.n	800058c <HAL_RCC_OscConfig+0xb0>
 8000574:	4b84      	ldr	r3, [pc, #528]	; (8000788 <HAL_RCC_OscConfig+0x2ac>)
 8000576:	681b      	ldr	r3, [r3, #0]
 8000578:	4a83      	ldr	r2, [pc, #524]	; (8000788 <HAL_RCC_OscConfig+0x2ac>)
 800057a:	f423 3380 	bic.w	r3, r3, #65536	; 0x10000
 800057e:	6013      	str	r3, [r2, #0]
 8000580:	4b81      	ldr	r3, [pc, #516]	; (8000788 <HAL_RCC_OscConfig+0x2ac>)
 8000582:	681b      	ldr	r3, [r3, #0]
 8000584:	4a80      	ldr	r2, [pc, #512]	; (8000788 <HAL_RCC_OscConfig+0x2ac>)
 8000586:	f423 2380 	bic.w	r3, r3, #262144	; 0x40000
 800058a:	6013      	str	r3, [r2, #0]

      /* Check the HSE State */
      if((RCC_OscInitStruct->HSEState) != RCC_HSE_OFF)
 800058c:	687b      	ldr	r3, [r7, #4]
 800058e:	685b      	ldr	r3, [r3, #4]
 8000590:	2b00      	cmp	r3, #0
 8000592:	d013      	beq.n	80005bc <HAL_RCC_OscConfig+0xe0>
      {
        /* Get Start Tick */
        tickstart = HAL_GetTick();
 8000594:	f7ff fea8 	bl	80002e8 <HAL_GetTick>
 8000598:	6138      	str	r0, [r7, #16]

        /* Wait till HSE is ready */
        while(__HAL_RCC_GET_FLAG(RCC_FLAG_HSERDY) == RESET)
 800059a:	e008      	b.n	80005ae <HAL_RCC_OscConfig+0xd2>
        {
          if((HAL_GetTick() - tickstart ) > HSE_TIMEOUT_VALUE)
 800059c:	f7ff fea4 	bl	80002e8 <HAL_GetTick>
 80005a0:	4602      	mov	r2, r0
 80005a2:	693b      	ldr	r3, [r7, #16]
 80005a4:	1ad3      	subs	r3, r2, r3
 80005a6:	2b64      	cmp	r3, #100	; 0x64
 80005a8:	d901      	bls.n	80005ae <HAL_RCC_OscConfig+0xd2>
          {
            return HAL_TIMEOUT;
 80005aa:	2303      	movs	r3, #3
 80005ac:	e204      	b.n	80009b8 <HAL_RCC_OscConfig+0x4dc>
        while(__HAL_RCC_GET_FLAG(RCC_FLAG_HSERDY) == RESET)
 80005ae:	4b76      	ldr	r3, [pc, #472]	; (8000788 <HAL_RCC_OscConfig+0x2ac>)
 80005b0:	681b      	ldr	r3, [r3, #0]
 80005b2:	f403 3300 	and.w	r3, r3, #131072	; 0x20000
 80005b6:	2b00      	cmp	r3, #0
 80005b8:	d0f0      	beq.n	800059c <HAL_RCC_OscConfig+0xc0>
 80005ba:	e014      	b.n	80005e6 <HAL_RCC_OscConfig+0x10a>
        }
      }
      else
      {
        /* Get Start Tick */
        tickstart = HAL_GetTick();
 80005bc:	f7ff fe94 	bl	80002e8 <HAL_GetTick>
 80005c0:	6138      	str	r0, [r7, #16]

        /* Wait till HSE is bypassed or disabled */
        while(__HAL_RCC_GET_FLAG(RCC_FLAG_HSERDY) != RESET)
 80005c2:	e008      	b.n	80005d6 <HAL_RCC_OscConfig+0xfa>
        {
          if((HAL_GetTick() - tickstart ) > HSE_TIMEOUT_VALUE)
 80005c4:	f7ff fe90 	bl	80002e8 <HAL_GetTick>
 80005c8:	4602      	mov	r2, r0
 80005ca:	693b      	ldr	r3, [r7, #16]
 80005cc:	1ad3      	subs	r3, r2, r3
 80005ce:	2b64      	cmp	r3, #100	; 0x64
 80005d0:	d901      	bls.n	80005d6 <HAL_RCC_OscConfig+0xfa>
          {
            return HAL_TIMEOUT;
 80005d2:	2303      	movs	r3, #3
 80005d4:	e1f0      	b.n	80009b8 <HAL_RCC_OscConfig+0x4dc>
        while(__HAL_RCC_GET_FLAG(RCC_FLAG_HSERDY) != RESET)
 80005d6:	4b6c      	ldr	r3, [pc, #432]	; (8000788 <HAL_RCC_OscConfig+0x2ac>)
 80005d8:	681b      	ldr	r3, [r3, #0]
 80005da:	f403 3300 	and.w	r3, r3, #131072	; 0x20000
 80005de:	2b00      	cmp	r3, #0
 80005e0:	d1f0      	bne.n	80005c4 <HAL_RCC_OscConfig+0xe8>
 80005e2:	e000      	b.n	80005e6 <HAL_RCC_OscConfig+0x10a>
      if((__HAL_RCC_GET_FLAG(RCC_FLAG_HSERDY) != RESET) && (RCC_OscInitStruct->HSEState == RCC_HSE_OFF))
 80005e4:	bf00      	nop
        }
      }
    }
  }
  /*----------------------------- HSI Configuration --------------------------*/
  if(((RCC_OscInitStruct->OscillatorType) & RCC_OSCILLATORTYPE_HSI) == RCC_OSCILLATORTYPE_HSI)
 80005e6:	687b      	ldr	r3, [r7, #4]
 80005e8:	681b      	ldr	r3, [r3, #0]
 80005ea:	f003 0302 	and.w	r3, r3, #2
 80005ee:	2b00      	cmp	r3, #0
 80005f0:	d063      	beq.n	80006ba <HAL_RCC_OscConfig+0x1de>
    /* Check the parameters */
    assert_param(IS_RCC_HSI(RCC_OscInitStruct->HSIState));
    assert_param(IS_RCC_CALIBRATION_VALUE(RCC_OscInitStruct->HSICalibrationValue));

    /* Check if HSI is used as system clock or as PLL source when PLL is selected as system clock */
    if((__HAL_RCC_GET_SYSCLK_SOURCE() == RCC_CFGR_SWS_HSI) ||\
 80005f2:	4b65      	ldr	r3, [pc, #404]	; (8000788 <HAL_RCC_OscConfig+0x2ac>)
 80005f4:	689b      	ldr	r3, [r3, #8]
 80005f6:	f003 030c 	and.w	r3, r3, #12
 80005fa:	2b00      	cmp	r3, #0
 80005fc:	d00b      	beq.n	8000616 <HAL_RCC_OscConfig+0x13a>
      ((__HAL_RCC_GET_SYSCLK_SOURCE() == RCC_CFGR_SWS_PLL) && ((RCC->PLLCFGR & RCC_PLLCFGR_PLLSRC) == RCC_PLLCFGR_PLLSRC_HSI)))
 80005fe:	4b62      	ldr	r3, [pc, #392]	; (8000788 <HAL_RCC_OscConfig+0x2ac>)
 8000600:	689b      	ldr	r3, [r3, #8]
 8000602:	f003 030c 	and.w	r3, r3, #12
    if((__HAL_RCC_GET_SYSCLK_SOURCE() == RCC_CFGR_SWS_HSI) ||\
 8000606:	2b08      	cmp	r3, #8
 8000608:	d11c      	bne.n	8000644 <HAL_RCC_OscConfig+0x168>
      ((__HAL_RCC_GET_SYSCLK_SOURCE() == RCC_CFGR_SWS_PLL) && ((RCC->PLLCFGR & RCC_PLLCFGR_PLLSRC) == RCC_PLLCFGR_PLLSRC_HSI)))
 800060a:	4b5f      	ldr	r3, [pc, #380]	; (8000788 <HAL_RCC_OscConfig+0x2ac>)
 800060c:	685b      	ldr	r3, [r3, #4]
 800060e:	f403 0380 	and.w	r3, r3, #4194304	; 0x400000
 8000612:	2b00      	cmp	r3, #0
 8000614:	d116      	bne.n	8000644 <HAL_RCC_OscConfig+0x168>
    {
      /* When HSI is used as system clock it will not disabled */
      if((__HAL_RCC_GET_FLAG(RCC_FLAG_HSIRDY) != RESET) && (RCC_OscInitStruct->HSIState != RCC_HSI_ON))
 8000616:	4b5c      	ldr	r3, [pc, #368]	; (8000788 <HAL_RCC_OscConfig+0x2ac>)
 8000618:	681b      	ldr	r3, [r3, #0]
 800061a:	f003 0302 	and.w	r3, r3, #2
 800061e:	2b00      	cmp	r3, #0
 8000620:	d005      	beq.n	800062e <HAL_RCC_OscConfig+0x152>
 8000622:	687b      	ldr	r3, [r7, #4]
 8000624:	68db      	ldr	r3, [r3, #12]
 8000626:	2b01      	cmp	r3, #1
 8000628:	d001      	beq.n	800062e <HAL_RCC_OscConfig+0x152>
      {
        return HAL_ERROR;
 800062a:	2301      	movs	r3, #1
 800062c:	e1c4      	b.n	80009b8 <HAL_RCC_OscConfig+0x4dc>
      }
      /* Otherwise, just the calibration is allowed */
      else
      {
        /* Adjusts the Internal High Speed oscillator (HSI) calibration value.*/
        __HAL_RCC_HSI_CALIBRATIONVALUE_ADJUST(RCC_OscInitStruct->HSICalibrationValue);
 800062e:	4b56      	ldr	r3, [pc, #344]	; (8000788 <HAL_RCC_OscConfig+0x2ac>)
 8000630:	681b      	ldr	r3, [r3, #0]
 8000632:	f023 02f8 	bic.w	r2, r3, #248	; 0xf8
 8000636:	687b      	ldr	r3, [r7, #4]
 8000638:	691b      	ldr	r3, [r3, #16]
 800063a:	00db      	lsls	r3, r3, #3
 800063c:	4952      	ldr	r1, [pc, #328]	; (8000788 <HAL_RCC_OscConfig+0x2ac>)
 800063e:	4313      	orrs	r3, r2
 8000640:	600b      	str	r3, [r1, #0]
      if((__HAL_RCC_GET_FLAG(RCC_FLAG_HSIRDY) != RESET) && (RCC_OscInitStruct->HSIState != RCC_HSI_ON))
 8000642:	e03a      	b.n	80006ba <HAL_RCC_OscConfig+0x1de>
      }
    }
    else
    {
      /* Check the HSI State */
      if((RCC_OscInitStruct->HSIState)!= RCC_HSI_OFF)
 8000644:	687b      	ldr	r3, [r7, #4]
 8000646:	68db      	ldr	r3, [r3, #12]
 8000648:	2b00      	cmp	r3, #0
 800064a:	d020      	beq.n	800068e <HAL_RCC_OscConfig+0x1b2>
      {
        /* Enable the Internal High Speed oscillator (HSI). */
        __HAL_RCC_HSI_ENABLE();
 800064c:	4b4f      	ldr	r3, [pc, #316]	; (800078c <HAL_RCC_OscConfig+0x2b0>)
 800064e:	2201      	movs	r2, #1
 8000650:	601a      	str	r2, [r3, #0]

        /* Get Start Tick*/
        tickstart = HAL_GetTick();
 8000652:	f7ff fe49 	bl	80002e8 <HAL_GetTick>
 8000656:	6138      	str	r0, [r7, #16]

        /* Wait till HSI is ready */
        while(__HAL_RCC_GET_FLAG(RCC_FLAG_HSIRDY) == RESET)
 8000658:	e008      	b.n	800066c <HAL_RCC_OscConfig+0x190>
        {
          if((HAL_GetTick() - tickstart ) > HSI_TIMEOUT_VALUE)
 800065a:	f7ff fe45 	bl	80002e8 <HAL_GetTick>
 800065e:	4602      	mov	r2, r0
 8000660:	693b      	ldr	r3, [r7, #16]
 8000662:	1ad3      	subs	r3, r2, r3
 8000664:	2b02      	cmp	r3, #2
 8000666:	d901      	bls.n	800066c <HAL_RCC_OscConfig+0x190>
          {
            return HAL_TIMEOUT;
 8000668:	2303      	movs	r3, #3
 800066a:	e1a5      	b.n	80009b8 <HAL_RCC_OscConfig+0x4dc>
        while(__HAL_RCC_GET_FLAG(RCC_FLAG_HSIRDY) == RESET)
 800066c:	4b46      	ldr	r3, [pc, #280]	; (8000788 <HAL_RCC_OscConfig+0x2ac>)
 800066e:	681b      	ldr	r3, [r3, #0]
 8000670:	f003 0302 	and.w	r3, r3, #2
 8000674:	2b00      	cmp	r3, #0
 8000676:	d0f0      	beq.n	800065a <HAL_RCC_OscConfig+0x17e>
          }
        }

        /* Adjusts the Internal High Speed oscillator (HSI) calibration value. */
        __HAL_RCC_HSI_CALIBRATIONVALUE_ADJUST(RCC_OscInitStruct->HSICalibrationValue);
 8000678:	4b43      	ldr	r3, [pc, #268]	; (8000788 <HAL_RCC_OscConfig+0x2ac>)
 800067a:	681b      	ldr	r3, [r3, #0]
 800067c:	f023 02f8 	bic.w	r2, r3, #248	; 0xf8
 8000680:	687b      	ldr	r3, [r7, #4]
 8000682:	691b      	ldr	r3, [r3, #16]
 8000684:	00db      	lsls	r3, r3, #3
 8000686:	4940      	ldr	r1, [pc, #256]	; (8000788 <HAL_RCC_OscConfig+0x2ac>)
 8000688:	4313      	orrs	r3, r2
 800068a:	600b      	str	r3, [r1, #0]
 800068c:	e015      	b.n	80006ba <HAL_RCC_OscConfig+0x1de>
      }
      else
      {
        /* Disable the Internal High Speed oscillator (HSI). */
        __HAL_RCC_HSI_DISABLE();
 800068e:	4b3f      	ldr	r3, [pc, #252]	; (800078c <HAL_RCC_OscConfig+0x2b0>)
 8000690:	2200      	movs	r2, #0
 8000692:	601a      	str	r2, [r3, #0]

        /* Get Start Tick*/
        tickstart = HAL_GetTick();
 8000694:	f7ff fe28 	bl	80002e8 <HAL_GetTick>
 8000698:	6138      	str	r0, [r7, #16]

        /* Wait till HSI is ready */
        while(__HAL_RCC_GET_FLAG(RCC_FLAG_HSIRDY) != RESET)
 800069a:	e008      	b.n	80006ae <HAL_RCC_OscConfig+0x1d2>
        {
          if((HAL_GetTick() - tickstart ) > HSI_TIMEOUT_VALUE)
 800069c:	f7ff fe24 	bl	80002e8 <HAL_GetTick>
 80006a0:	4602      	mov	r2, r0
 80006a2:	693b      	ldr	r3, [r7, #16]
 80006a4:	1ad3      	subs	r3, r2, r3
 80006a6:	2b02      	cmp	r3, #2
 80006a8:	d901      	bls.n	80006ae <HAL_RCC_OscConfig+0x1d2>
          {
            return HAL_TIMEOUT;
 80006aa:	2303      	movs	r3, #3
 80006ac:	e184      	b.n	80009b8 <HAL_RCC_OscConfig+0x4dc>
        while(__HAL_RCC_GET_FLAG(RCC_FLAG_HSIRDY) != RESET)
 80006ae:	4b36      	ldr	r3, [pc, #216]	; (8000788 <HAL_RCC_OscConfig+0x2ac>)
 80006b0:	681b      	ldr	r3, [r3, #0]
 80006b2:	f003 0302 	and.w	r3, r3, #2
 80006b6:	2b00      	cmp	r3, #0
 80006b8:	d1f0      	bne.n	800069c <HAL_RCC_OscConfig+0x1c0>
        }
      }
    }
  }
  /*------------------------------ LSI Configuration -------------------------*/
  if(((RCC_OscInitStruct->OscillatorType) & RCC_OSCILLATORTYPE_LSI) == RCC_OSCILLATORTYPE_LSI)
 80006ba:	687b      	ldr	r3, [r7, #4]
 80006bc:	681b      	ldr	r3, [r3, #0]
 80006be:	f003 0308 	and.w	r3, r3, #8
 80006c2:	2b00      	cmp	r3, #0
 80006c4:	d030      	beq.n	8000728 <HAL_RCC_OscConfig+0x24c>
  {
    /* Check the parameters */
    assert_param(IS_RCC_LSI(RCC_OscInitStruct->LSIState));

    /* Check the LSI State */
    if((RCC_OscInitStruct->LSIState)!= RCC_LSI_OFF)
 80006c6:	687b      	ldr	r3, [r7, #4]
 80006c8:	695b      	ldr	r3, [r3, #20]
 80006ca:	2b00      	cmp	r3, #0
 80006cc:	d016      	beq.n	80006fc <HAL_RCC_OscConfig+0x220>
    {
      /* Enable the Internal Low Speed oscillator (LSI). */
      __HAL_RCC_LSI_ENABLE();
 80006ce:	4b30      	ldr	r3, [pc, #192]	; (8000790 <HAL_RCC_OscConfig+0x2b4>)
 80006d0:	2201      	movs	r2, #1
 80006d2:	601a      	str	r2, [r3, #0]

      /* Get Start Tick*/
      tickstart = HAL_GetTick();
 80006d4:	f7ff fe08 	bl	80002e8 <HAL_GetTick>
 80006d8:	6138      	str	r0, [r7, #16]

      /* Wait till LSI is ready */
      while(__HAL_RCC_GET_FLAG(RCC_FLAG_LSIRDY) == RESET)
 80006da:	e008      	b.n	80006ee <HAL_RCC_OscConfig+0x212>
      {
        if((HAL_GetTick() - tickstart ) > LSI_TIMEOUT_VALUE)
 80006dc:	f7ff fe04 	bl	80002e8 <HAL_GetTick>
 80006e0:	4602      	mov	r2, r0
 80006e2:	693b      	ldr	r3, [r7, #16]
 80006e4:	1ad3      	subs	r3, r2, r3
 80006e6:	2b02      	cmp	r3, #2
 80006e8:	d901      	bls.n	80006ee <HAL_RCC_OscConfig+0x212>
        {
          return HAL_TIMEOUT;
 80006ea:	2303      	movs	r3, #3
 80006ec:	e164      	b.n	80009b8 <HAL_RCC_OscConfig+0x4dc>
      while(__HAL_RCC_GET_FLAG(RCC_FLAG_LSIRDY) == RESET)
 80006ee:	4b26      	ldr	r3, [pc, #152]	; (8000788 <HAL_RCC_OscConfig+0x2ac>)
 80006f0:	6f5b      	ldr	r3, [r3, #116]	; 0x74
 80006f2:	f003 0302 	and.w	r3, r3, #2
 80006f6:	2b00      	cmp	r3, #0
 80006f8:	d0f0      	beq.n	80006dc <HAL_RCC_OscConfig+0x200>
 80006fa:	e015      	b.n	8000728 <HAL_RCC_OscConfig+0x24c>
      }
    }
    else
    {
      /* Disable the Internal Low Speed oscillator (LSI). */
      __HAL_RCC_LSI_DISABLE();
 80006fc:	4b24      	ldr	r3, [pc, #144]	; (8000790 <HAL_RCC_OscConfig+0x2b4>)
 80006fe:	2200      	movs	r2, #0
 8000700:	601a      	str	r2, [r3, #0]

      /* Get Start Tick */
      tickstart = HAL_GetTick();
 8000702:	f7ff fdf1 	bl	80002e8 <HAL_GetTick>
 8000706:	6138      	str	r0, [r7, #16]

      /* Wait till LSI is ready */
      while(__HAL_RCC_GET_FLAG(RCC_FLAG_LSIRDY) != RESET)
 8000708:	e008      	b.n	800071c <HAL_RCC_OscConfig+0x240>
      {
        if((HAL_GetTick() - tickstart ) > LSI_TIMEOUT_VALUE)
 800070a:	f7ff fded 	bl	80002e8 <HAL_GetTick>
 800070e:	4602      	mov	r2, r0
 8000710:	693b      	ldr	r3, [r7, #16]
 8000712:	1ad3      	subs	r3, r2, r3
 8000714:	2b02      	cmp	r3, #2
 8000716:	d901      	bls.n	800071c <HAL_RCC_OscConfig+0x240>
        {
          return HAL_TIMEOUT;
 8000718:	2303      	movs	r3, #3
 800071a:	e14d      	b.n	80009b8 <HAL_RCC_OscConfig+0x4dc>
      while(__HAL_RCC_GET_FLAG(RCC_FLAG_LSIRDY) != RESET)
 800071c:	4b1a      	ldr	r3, [pc, #104]	; (8000788 <HAL_RCC_OscConfig+0x2ac>)
 800071e:	6f5b      	ldr	r3, [r3, #116]	; 0x74
 8000720:	f003 0302 	and.w	r3, r3, #2
 8000724:	2b00      	cmp	r3, #0
 8000726:	d1f0      	bne.n	800070a <HAL_RCC_OscConfig+0x22e>
        }
      }
    }
  }
  /*------------------------------ LSE Configuration -------------------------*/
  if(((RCC_OscInitStruct->OscillatorType) & RCC_OSCILLATORTYPE_LSE) == RCC_OSCILLATORTYPE_LSE)
 8000728:	687b      	ldr	r3, [r7, #4]
 800072a:	681b      	ldr	r3, [r3, #0]
 800072c:	f003 0304 	and.w	r3, r3, #4
 8000730:	2b00      	cmp	r3, #0
 8000732:	f000 80a0 	beq.w	8000876 <HAL_RCC_OscConfig+0x39a>
  {
    FlagStatus       pwrclkchanged = RESET;
 8000736:	2300      	movs	r3, #0
 8000738:	75fb      	strb	r3, [r7, #23]
    /* Check the parameters */
    assert_param(IS_RCC_LSE(RCC_OscInitStruct->LSEState));

    /* Update LSE configuration in Backup Domain control register    */
    /* Requires to enable write access to Backup Domain of necessary */
    if(__HAL_RCC_PWR_IS_CLK_DISABLED())
 800073a:	4b13      	ldr	r3, [pc, #76]	; (8000788 <HAL_RCC_OscConfig+0x2ac>)
 800073c:	6c1b      	ldr	r3, [r3, #64]	; 0x40
 800073e:	f003 5380 	and.w	r3, r3, #268435456	; 0x10000000
 8000742:	2b00      	cmp	r3, #0
 8000744:	d10f      	bne.n	8000766 <HAL_RCC_OscConfig+0x28a>
    {
      __HAL_RCC_PWR_CLK_ENABLE();
 8000746:	2300      	movs	r3, #0
 8000748:	60bb      	str	r3, [r7, #8]
 800074a:	4b0f      	ldr	r3, [pc, #60]	; (8000788 <HAL_RCC_OscConfig+0x2ac>)
 800074c:	6c1b      	ldr	r3, [r3, #64]	; 0x40
 800074e:	4a0e      	ldr	r2, [pc, #56]	; (8000788 <HAL_RCC_OscConfig+0x2ac>)
 8000750:	f043 5380 	orr.w	r3, r3, #268435456	; 0x10000000
 8000754:	6413      	str	r3, [r2, #64]	; 0x40
 8000756:	4b0c      	ldr	r3, [pc, #48]	; (8000788 <HAL_RCC_OscConfig+0x2ac>)
 8000758:	6c1b      	ldr	r3, [r3, #64]	; 0x40
 800075a:	f003 5380 	and.w	r3, r3, #268435456	; 0x10000000
 800075e:	60bb      	str	r3, [r7, #8]
 8000760:	68bb      	ldr	r3, [r7, #8]
      pwrclkchanged = SET;
 8000762:	2301      	movs	r3, #1
 8000764:	75fb      	strb	r3, [r7, #23]
    }

    if(HAL_IS_BIT_CLR(PWR->CR, PWR_CR_DBP))
 8000766:	4b0b      	ldr	r3, [pc, #44]	; (8000794 <HAL_RCC_OscConfig+0x2b8>)
 8000768:	681b      	ldr	r3, [r3, #0]
 800076a:	f403 7380 	and.w	r3, r3, #256	; 0x100
 800076e:	2b00      	cmp	r3, #0
 8000770:	d121      	bne.n	80007b6 <HAL_RCC_OscConfig+0x2da>
    {
      /* Enable write access to Backup domain */
      SET_BIT(PWR->CR, PWR_CR_DBP);
 8000772:	4b08      	ldr	r3, [pc, #32]	; (8000794 <HAL_RCC_OscConfig+0x2b8>)
 8000774:	681b      	ldr	r3, [r3, #0]
 8000776:	4a07      	ldr	r2, [pc, #28]	; (8000794 <HAL_RCC_OscConfig+0x2b8>)
 8000778:	f443 7380 	orr.w	r3, r3, #256	; 0x100
 800077c:	6013      	str	r3, [r2, #0]

      /* Wait for Backup domain Write protection disable */
      tickstart = HAL_GetTick();
 800077e:	f7ff fdb3 	bl	80002e8 <HAL_GetTick>
 8000782:	6138      	str	r0, [r7, #16]

      while(HAL_IS_BIT_CLR(PWR->CR, PWR_CR_DBP))
 8000784:	e011      	b.n	80007aa <HAL_RCC_OscConfig+0x2ce>
 8000786:	bf00      	nop
 8000788:	40023800 	andmi	r3, r2, r0, lsl #16
 800078c:	42470000 	submi	r0, r7, #0
 8000790:	42470e80 	submi	r0, r7, #128, 28	; 0x800
 8000794:	40007000 	andmi	r7, r0, r0
      {
        if((HAL_GetTick() - tickstart) > RCC_DBP_TIMEOUT_VALUE)
 8000798:	f7ff fda6 	bl	80002e8 <HAL_GetTick>
 800079c:	4602      	mov	r2, r0
 800079e:	693b      	ldr	r3, [r7, #16]
 80007a0:	1ad3      	subs	r3, r2, r3
 80007a2:	2b02      	cmp	r3, #2
 80007a4:	d901      	bls.n	80007aa <HAL_RCC_OscConfig+0x2ce>
        {
          return HAL_TIMEOUT;
 80007a6:	2303      	movs	r3, #3
 80007a8:	e106      	b.n	80009b8 <HAL_RCC_OscConfig+0x4dc>
      while(HAL_IS_BIT_CLR(PWR->CR, PWR_CR_DBP))
 80007aa:	4b85      	ldr	r3, [pc, #532]	; (80009c0 <HAL_RCC_OscConfig+0x4e4>)
 80007ac:	681b      	ldr	r3, [r3, #0]
 80007ae:	f403 7380 	and.w	r3, r3, #256	; 0x100
 80007b2:	2b00      	cmp	r3, #0
 80007b4:	d0f0      	beq.n	8000798 <HAL_RCC_OscConfig+0x2bc>
        }
      }
    }

    /* Set the new LSE configuration -----------------------------------------*/
    __HAL_RCC_LSE_CONFIG(RCC_OscInitStruct->LSEState);
 80007b6:	687b      	ldr	r3, [r7, #4]
 80007b8:	689b      	ldr	r3, [r3, #8]
 80007ba:	2b01      	cmp	r3, #1
 80007bc:	d106      	bne.n	80007cc <HAL_RCC_OscConfig+0x2f0>
 80007be:	4b81      	ldr	r3, [pc, #516]	; (80009c4 <HAL_RCC_OscConfig+0x4e8>)
 80007c0:	6f1b      	ldr	r3, [r3, #112]	; 0x70
 80007c2:	4a80      	ldr	r2, [pc, #512]	; (80009c4 <HAL_RCC_OscConfig+0x4e8>)
 80007c4:	f043 0301 	orr.w	r3, r3, #1
 80007c8:	6713      	str	r3, [r2, #112]	; 0x70
 80007ca:	e01c      	b.n	8000806 <HAL_RCC_OscConfig+0x32a>
 80007cc:	687b      	ldr	r3, [r7, #4]
 80007ce:	689b      	ldr	r3, [r3, #8]
 80007d0:	2b05      	cmp	r3, #5
 80007d2:	d10c      	bne.n	80007ee <HAL_RCC_OscConfig+0x312>
 80007d4:	4b7b      	ldr	r3, [pc, #492]	; (80009c4 <HAL_RCC_OscConfig+0x4e8>)
 80007d6:	6f1b      	ldr	r3, [r3, #112]	; 0x70
 80007d8:	4a7a      	ldr	r2, [pc, #488]	; (80009c4 <HAL_RCC_OscConfig+0x4e8>)
 80007da:	f043 0304 	orr.w	r3, r3, #4
 80007de:	6713      	str	r3, [r2, #112]	; 0x70
 80007e0:	4b78      	ldr	r3, [pc, #480]	; (80009c4 <HAL_RCC_OscConfig+0x4e8>)
 80007e2:	6f1b      	ldr	r3, [r3, #112]	; 0x70
 80007e4:	4a77      	ldr	r2, [pc, #476]	; (80009c4 <HAL_RCC_OscConfig+0x4e8>)
 80007e6:	f043 0301 	orr.w	r3, r3, #1
 80007ea:	6713      	str	r3, [r2, #112]	; 0x70
 80007ec:	e00b      	b.n	8000806 <HAL_RCC_OscConfig+0x32a>
 80007ee:	4b75      	ldr	r3, [pc, #468]	; (80009c4 <HAL_RCC_OscConfig+0x4e8>)
 80007f0:	6f1b      	ldr	r3, [r3, #112]	; 0x70
 80007f2:	4a74      	ldr	r2, [pc, #464]	; (80009c4 <HAL_RCC_OscConfig+0x4e8>)
 80007f4:	f023 0301 	bic.w	r3, r3, #1
 80007f8:	6713      	str	r3, [r2, #112]	; 0x70
 80007fa:	4b72      	ldr	r3, [pc, #456]	; (80009c4 <HAL_RCC_OscConfig+0x4e8>)
 80007fc:	6f1b      	ldr	r3, [r3, #112]	; 0x70
 80007fe:	4a71      	ldr	r2, [pc, #452]	; (80009c4 <HAL_RCC_OscConfig+0x4e8>)
 8000800:	f023 0304 	bic.w	r3, r3, #4
 8000804:	6713      	str	r3, [r2, #112]	; 0x70
    /* Check the LSE State */
    if((RCC_OscInitStruct->LSEState) != RCC_LSE_OFF)
 8000806:	687b      	ldr	r3, [r7, #4]
 8000808:	689b      	ldr	r3, [r3, #8]
 800080a:	2b00      	cmp	r3, #0
 800080c:	d015      	beq.n	800083a <HAL_RCC_OscConfig+0x35e>
    {
      /* Get Start Tick*/
      tickstart = HAL_GetTick();
 800080e:	f7ff fd6b 	bl	80002e8 <HAL_GetTick>
 8000812:	6138      	str	r0, [r7, #16]

      /* Wait till LSE is ready */
      while(__HAL_RCC_GET_FLAG(RCC_FLAG_LSERDY) == RESET)
 8000814:	e00a      	b.n	800082c <HAL_RCC_OscConfig+0x350>
      {
        if((HAL_GetTick() - tickstart ) > RCC_LSE_TIMEOUT_VALUE)
 8000816:	f7ff fd67 	bl	80002e8 <HAL_GetTick>
 800081a:	4602      	mov	r2, r0
 800081c:	693b      	ldr	r3, [r7, #16]
 800081e:	1ad3      	subs	r3, r2, r3
 8000820:	f241 3288 	movw	r2, #5000	; 0x1388
 8000824:	4293      	cmp	r3, r2
 8000826:	d901      	bls.n	800082c <HAL_RCC_OscConfig+0x350>
        {
          return HAL_TIMEOUT;
 8000828:	2303      	movs	r3, #3
 800082a:	e0c5      	b.n	80009b8 <HAL_RCC_OscConfig+0x4dc>
      while(__HAL_RCC_GET_FLAG(RCC_FLAG_LSERDY) == RESET)
 800082c:	4b65      	ldr	r3, [pc, #404]	; (80009c4 <HAL_RCC_OscConfig+0x4e8>)
 800082e:	6f1b      	ldr	r3, [r3, #112]	; 0x70
 8000830:	f003 0302 	and.w	r3, r3, #2
 8000834:	2b00      	cmp	r3, #0
 8000836:	d0ee      	beq.n	8000816 <HAL_RCC_OscConfig+0x33a>
 8000838:	e014      	b.n	8000864 <HAL_RCC_OscConfig+0x388>
      }
    }
    else
    {
      /* Get Start Tick */
      tickstart = HAL_GetTick();
 800083a:	f7ff fd55 	bl	80002e8 <HAL_GetTick>
 800083e:	6138      	str	r0, [r7, #16]

      /* Wait till LSE is ready */
      while(__HAL_RCC_GET_FLAG(RCC_FLAG_LSERDY) != RESET)
 8000840:	e00a      	b.n	8000858 <HAL_RCC_OscConfig+0x37c>
      {
        if((HAL_GetTick() - tickstart ) > RCC_LSE_TIMEOUT_VALUE)
 8000842:	f7ff fd51 	bl	80002e8 <HAL_GetTick>
 8000846:	4602      	mov	r2, r0
 8000848:	693b      	ldr	r3, [r7, #16]
 800084a:	1ad3      	subs	r3, r2, r3
 800084c:	f241 3288 	movw	r2, #5000	; 0x1388
 8000850:	4293      	cmp	r3, r2
 8000852:	d901      	bls.n	8000858 <HAL_RCC_OscConfig+0x37c>
        {
          return HAL_TIMEOUT;
 8000854:	2303      	movs	r3, #3
 8000856:	e0af      	b.n	80009b8 <HAL_RCC_OscConfig+0x4dc>
      while(__HAL_RCC_GET_FLAG(RCC_FLAG_LSERDY) != RESET)
 8000858:	4b5a      	ldr	r3, [pc, #360]	; (80009c4 <HAL_RCC_OscConfig+0x4e8>)
 800085a:	6f1b      	ldr	r3, [r3, #112]	; 0x70
 800085c:	f003 0302 	and.w	r3, r3, #2
 8000860:	2b00      	cmp	r3, #0
 8000862:	d1ee      	bne.n	8000842 <HAL_RCC_OscConfig+0x366>
        }
      }
    }

    /* Restore clock configuration if changed */
    if(pwrclkchanged == SET)
 8000864:	7dfb      	ldrb	r3, [r7, #23]
 8000866:	2b01      	cmp	r3, #1
 8000868:	d105      	bne.n	8000876 <HAL_RCC_OscConfig+0x39a>
    {
      __HAL_RCC_PWR_CLK_DISABLE();
 800086a:	4b56      	ldr	r3, [pc, #344]	; (80009c4 <HAL_RCC_OscConfig+0x4e8>)
 800086c:	6c1b      	ldr	r3, [r3, #64]	; 0x40
 800086e:	4a55      	ldr	r2, [pc, #340]	; (80009c4 <HAL_RCC_OscConfig+0x4e8>)
 8000870:	f023 5380 	bic.w	r3, r3, #268435456	; 0x10000000
 8000874:	6413      	str	r3, [r2, #64]	; 0x40
    }
  }
  /*-------------------------------- PLL Configuration -----------------------*/
  /* Check the parameters */
  assert_param(IS_RCC_PLL(RCC_OscInitStruct->PLL.PLLState));
  if ((RCC_OscInitStruct->PLL.PLLState) != RCC_PLL_NONE)
 8000876:	687b      	ldr	r3, [r7, #4]
 8000878:	699b      	ldr	r3, [r3, #24]
 800087a:	2b00      	cmp	r3, #0
 800087c:	f000 809b 	beq.w	80009b6 <HAL_RCC_OscConfig+0x4da>
  {
    /* Check if the PLL is used as system clock or not */
    if(__HAL_RCC_GET_SYSCLK_SOURCE() != RCC_CFGR_SWS_PLL)
 8000880:	4b50      	ldr	r3, [pc, #320]	; (80009c4 <HAL_RCC_OscConfig+0x4e8>)
 8000882:	689b      	ldr	r3, [r3, #8]
 8000884:	f003 030c 	and.w	r3, r3, #12
 8000888:	2b08      	cmp	r3, #8
 800088a:	d05c      	beq.n	8000946 <HAL_RCC_OscConfig+0x46a>
    {
      if((RCC_OscInitStruct->PLL.PLLState) == RCC_PLL_ON)
 800088c:	687b      	ldr	r3, [r7, #4]
 800088e:	699b      	ldr	r3, [r3, #24]
 8000890:	2b02      	cmp	r3, #2
 8000892:	d141      	bne.n	8000918 <HAL_RCC_OscConfig+0x43c>
        assert_param(IS_RCC_PLLN_VALUE(RCC_OscInitStruct->PLL.PLLN));
        assert_param(IS_RCC_PLLP_VALUE(RCC_OscInitStruct->PLL.PLLP));
        assert_param(IS_RCC_PLLQ_VALUE(RCC_OscInitStruct->PLL.PLLQ));

        /* Disable the main PLL. */
        __HAL_RCC_PLL_DISABLE();
 8000894:	4b4c      	ldr	r3, [pc, #304]	; (80009c8 <HAL_RCC_OscConfig+0x4ec>)
 8000896:	2200      	movs	r2, #0
 8000898:	601a      	str	r2, [r3, #0]

        /* Get Start Tick */
        tickstart = HAL_GetTick();
 800089a:	f7ff fd25 	bl	80002e8 <HAL_GetTick>
 800089e:	6138      	str	r0, [r7, #16]

        /* Wait till PLL is ready */
        while(__HAL_RCC_GET_FLAG(RCC_FLAG_PLLRDY) != RESET)
 80008a0:	e008      	b.n	80008b4 <HAL_RCC_OscConfig+0x3d8>
        {
          if((HAL_GetTick() - tickstart ) > PLL_TIMEOUT_VALUE)
 80008a2:	f7ff fd21 	bl	80002e8 <HAL_GetTick>
 80008a6:	4602      	mov	r2, r0
 80008a8:	693b      	ldr	r3, [r7, #16]
 80008aa:	1ad3      	subs	r3, r2, r3
 80008ac:	2b02      	cmp	r3, #2
 80008ae:	d901      	bls.n	80008b4 <HAL_RCC_OscConfig+0x3d8>
          {
            return HAL_TIMEOUT;
 80008b0:	2303      	movs	r3, #3
 80008b2:	e081      	b.n	80009b8 <HAL_RCC_OscConfig+0x4dc>
        while(__HAL_RCC_GET_FLAG(RCC_FLAG_PLLRDY) != RESET)
 80008b4:	4b43      	ldr	r3, [pc, #268]	; (80009c4 <HAL_RCC_OscConfig+0x4e8>)
 80008b6:	681b      	ldr	r3, [r3, #0]
 80008b8:	f003 7300 	and.w	r3, r3, #33554432	; 0x2000000
 80008bc:	2b00      	cmp	r3, #0
 80008be:	d1f0      	bne.n	80008a2 <HAL_RCC_OscConfig+0x3c6>
          }
        }

        /* Configure the main PLL clock source, multiplication and division factors. */
        WRITE_REG(RCC->PLLCFGR, (RCC_OscInitStruct->PLL.PLLSource                                            | \
 80008c0:	687b      	ldr	r3, [r7, #4]
 80008c2:	69da      	ldr	r2, [r3, #28]
 80008c4:	687b      	ldr	r3, [r7, #4]
 80008c6:	6a1b      	ldr	r3, [r3, #32]
 80008c8:	431a      	orrs	r2, r3
 80008ca:	687b      	ldr	r3, [r7, #4]
 80008cc:	6a5b      	ldr	r3, [r3, #36]	; 0x24
 80008ce:	019b      	lsls	r3, r3, #6
 80008d0:	431a      	orrs	r2, r3
 80008d2:	687b      	ldr	r3, [r7, #4]
 80008d4:	6a9b      	ldr	r3, [r3, #40]	; 0x28
 80008d6:	085b      	lsrs	r3, r3, #1
 80008d8:	3b01      	subs	r3, #1
 80008da:	041b      	lsls	r3, r3, #16
 80008dc:	431a      	orrs	r2, r3
 80008de:	687b      	ldr	r3, [r7, #4]
 80008e0:	6adb      	ldr	r3, [r3, #44]	; 0x2c
 80008e2:	061b      	lsls	r3, r3, #24
 80008e4:	4937      	ldr	r1, [pc, #220]	; (80009c4 <HAL_RCC_OscConfig+0x4e8>)
 80008e6:	4313      	orrs	r3, r2
 80008e8:	604b      	str	r3, [r1, #4]
                                 RCC_OscInitStruct->PLL.PLLM                                                 | \
                                 (RCC_OscInitStruct->PLL.PLLN << RCC_PLLCFGR_PLLN_Pos)             | \
                                 (((RCC_OscInitStruct->PLL.PLLP >> 1U) - 1U) << RCC_PLLCFGR_PLLP_Pos) | \
                                 (RCC_OscInitStruct->PLL.PLLQ << RCC_PLLCFGR_PLLQ_Pos)));
        /* Enable the main PLL. */
        __HAL_RCC_PLL_ENABLE();
 80008ea:	4b37      	ldr	r3, [pc, #220]	; (80009c8 <HAL_RCC_OscConfig+0x4ec>)
 80008ec:	2201      	movs	r2, #1
 80008ee:	601a      	str	r2, [r3, #0]

        /* Get Start Tick */
        tickstart = HAL_GetTick();
 80008f0:	f7ff fcfa 	bl	80002e8 <HAL_GetTick>
 80008f4:	6138      	str	r0, [r7, #16]

        /* Wait till PLL is ready */
        while(__HAL_RCC_GET_FLAG(RCC_FLAG_PLLRDY) == RESET)
 80008f6:	e008      	b.n	800090a <HAL_RCC_OscConfig+0x42e>
        {
          if((HAL_GetTick() - tickstart ) > PLL_TIMEOUT_VALUE)
 80008f8:	f7ff fcf6 	bl	80002e8 <HAL_GetTick>
 80008fc:	4602      	mov	r2, r0
 80008fe:	693b      	ldr	r3, [r7, #16]
 8000900:	1ad3      	subs	r3, r2, r3
 8000902:	2b02      	cmp	r3, #2
 8000904:	d901      	bls.n	800090a <HAL_RCC_OscConfig+0x42e>
          {
            return HAL_TIMEOUT;
 8000906:	2303      	movs	r3, #3
 8000908:	e056      	b.n	80009b8 <HAL_RCC_OscConfig+0x4dc>
        while(__HAL_RCC_GET_FLAG(RCC_FLAG_PLLRDY) == RESET)
 800090a:	4b2e      	ldr	r3, [pc, #184]	; (80009c4 <HAL_RCC_OscConfig+0x4e8>)
 800090c:	681b      	ldr	r3, [r3, #0]
 800090e:	f003 7300 	and.w	r3, r3, #33554432	; 0x2000000
 8000912:	2b00      	cmp	r3, #0
 8000914:	d0f0      	beq.n	80008f8 <HAL_RCC_OscConfig+0x41c>
 8000916:	e04e      	b.n	80009b6 <HAL_RCC_OscConfig+0x4da>
        }
      }
      else
      {
        /* Disable the main PLL. */
        __HAL_RCC_PLL_DISABLE();
 8000918:	4b2b      	ldr	r3, [pc, #172]	; (80009c8 <HAL_RCC_OscConfig+0x4ec>)
 800091a:	2200      	movs	r2, #0
 800091c:	601a      	str	r2, [r3, #0]

        /* Get Start Tick */
        tickstart = HAL_GetTick();
 800091e:	f7ff fce3 	bl	80002e8 <HAL_GetTick>
 8000922:	6138      	str	r0, [r7, #16]

        /* Wait till PLL is ready */
        while(__HAL_RCC_GET_FLAG(RCC_FLAG_PLLRDY) != RESET)
 8000924:	e008      	b.n	8000938 <HAL_RCC_OscConfig+0x45c>
        {
          if((HAL_GetTick() - tickstart ) > PLL_TIMEOUT_VALUE)
 8000926:	f7ff fcdf 	bl	80002e8 <HAL_GetTick>
 800092a:	4602      	mov	r2, r0
 800092c:	693b      	ldr	r3, [r7, #16]
 800092e:	1ad3      	subs	r3, r2, r3
 8000930:	2b02      	cmp	r3, #2
 8000932:	d901      	bls.n	8000938 <HAL_RCC_OscConfig+0x45c>
          {
            return HAL_TIMEOUT;
 8000934:	2303      	movs	r3, #3
 8000936:	e03f      	b.n	80009b8 <HAL_RCC_OscConfig+0x4dc>
        while(__HAL_RCC_GET_FLAG(RCC_FLAG_PLLRDY) != RESET)
 8000938:	4b22      	ldr	r3, [pc, #136]	; (80009c4 <HAL_RCC_OscConfig+0x4e8>)
 800093a:	681b      	ldr	r3, [r3, #0]
 800093c:	f003 7300 	and.w	r3, r3, #33554432	; 0x2000000
 8000940:	2b00      	cmp	r3, #0
 8000942:	d1f0      	bne.n	8000926 <HAL_RCC_OscConfig+0x44a>
 8000944:	e037      	b.n	80009b6 <HAL_RCC_OscConfig+0x4da>
      }
    }
    else
    {
      /* Check if there is a request to disable the PLL used as System clock source */
      if((RCC_OscInitStruct->PLL.PLLState) == RCC_PLL_OFF)
 8000946:	687b      	ldr	r3, [r7, #4]
 8000948:	699b      	ldr	r3, [r3, #24]
 800094a:	2b01      	cmp	r3, #1
 800094c:	d101      	bne.n	8000952 <HAL_RCC_OscConfig+0x476>
      {
        return HAL_ERROR;
 800094e:	2301      	movs	r3, #1
 8000950:	e032      	b.n	80009b8 <HAL_RCC_OscConfig+0x4dc>
      }
      else
      {
        /* Do not return HAL_ERROR if request repeats the current configuration */
        pll_config = RCC->PLLCFGR;
 8000952:	4b1c      	ldr	r3, [pc, #112]	; (80009c4 <HAL_RCC_OscConfig+0x4e8>)
 8000954:	685b      	ldr	r3, [r3, #4]
 8000956:	60fb      	str	r3, [r7, #12]
            (READ_BIT(pll_config, RCC_PLLCFGR_PLLN) != (RCC_OscInitStruct->PLL.PLLN) << RCC_PLLCFGR_PLLN_Pos) ||
            (READ_BIT(pll_config, RCC_PLLCFGR_PLLP) != (((RCC_OscInitStruct->PLL.PLLP >> 1U) - 1U)) << RCC_PLLCFGR_PLLP_Pos) ||
            (READ_BIT(pll_config, RCC_PLLCFGR_PLLQ) != (RCC_OscInitStruct->PLL.PLLQ << RCC_PLLCFGR_PLLQ_Pos)) ||
            (READ_BIT(pll_config, RCC_PLLCFGR_PLLR) != (RCC_OscInitStruct->PLL.PLLR << RCC_PLLCFGR_PLLR_Pos)))
#else
        if (((RCC_OscInitStruct->PLL.PLLState) == RCC_PLL_OFF) ||
 8000958:	687b      	ldr	r3, [r7, #4]
 800095a:	699b      	ldr	r3, [r3, #24]
 800095c:	2b01      	cmp	r3, #1
 800095e:	d028      	beq.n	80009b2 <HAL_RCC_OscConfig+0x4d6>
            (READ_BIT(pll_config, RCC_PLLCFGR_PLLSRC) != RCC_OscInitStruct->PLL.PLLSource) ||
 8000960:	68fb      	ldr	r3, [r7, #12]
 8000962:	f403 0280 	and.w	r2, r3, #4194304	; 0x400000
 8000966:	687b      	ldr	r3, [r7, #4]
 8000968:	69db      	ldr	r3, [r3, #28]
        if (((RCC_OscInitStruct->PLL.PLLState) == RCC_PLL_OFF) ||
 800096a:	429a      	cmp	r2, r3
 800096c:	d121      	bne.n	80009b2 <HAL_RCC_OscConfig+0x4d6>
            (READ_BIT(pll_config, RCC_PLLCFGR_PLLM) != (RCC_OscInitStruct->PLL.PLLM) << RCC_PLLCFGR_PLLM_Pos) ||
 800096e:	68fb      	ldr	r3, [r7, #12]
 8000970:	f003 023f 	and.w	r2, r3, #63	; 0x3f
 8000974:	687b      	ldr	r3, [r7, #4]
 8000976:	6a1b      	ldr	r3, [r3, #32]
            (READ_BIT(pll_config, RCC_PLLCFGR_PLLSRC) != RCC_OscInitStruct->PLL.PLLSource) ||
 8000978:	429a      	cmp	r2, r3
 800097a:	d11a      	bne.n	80009b2 <HAL_RCC_OscConfig+0x4d6>
            (READ_BIT(pll_config, RCC_PLLCFGR_PLLN) != (RCC_OscInitStruct->PLL.PLLN) << RCC_PLLCFGR_PLLN_Pos) ||
 800097c:	68fa      	ldr	r2, [r7, #12]
 800097e:	f647 73c0 	movw	r3, #32704	; 0x7fc0
 8000982:	4013      	ands	r3, r2
 8000984:	687a      	ldr	r2, [r7, #4]
 8000986:	6a52      	ldr	r2, [r2, #36]	; 0x24
 8000988:	0192      	lsls	r2, r2, #6
            (READ_BIT(pll_config, RCC_PLLCFGR_PLLM) != (RCC_OscInitStruct->PLL.PLLM) << RCC_PLLCFGR_PLLM_Pos) ||
 800098a:	4293      	cmp	r3, r2
 800098c:	d111      	bne.n	80009b2 <HAL_RCC_OscConfig+0x4d6>
            (READ_BIT(pll_config, RCC_PLLCFGR_PLLP) != (((RCC_OscInitStruct->PLL.PLLP >> 1U) - 1U)) << RCC_PLLCFGR_PLLP_Pos) ||
 800098e:	68fb      	ldr	r3, [r7, #12]
 8000990:	f403 3240 	and.w	r2, r3, #196608	; 0x30000
 8000994:	687b      	ldr	r3, [r7, #4]
 8000996:	6a9b      	ldr	r3, [r3, #40]	; 0x28
 8000998:	085b      	lsrs	r3, r3, #1
 800099a:	3b01      	subs	r3, #1
 800099c:	041b      	lsls	r3, r3, #16
            (READ_BIT(pll_config, RCC_PLLCFGR_PLLN) != (RCC_OscInitStruct->PLL.PLLN) << RCC_PLLCFGR_PLLN_Pos) ||
 800099e:	429a      	cmp	r2, r3
 80009a0:	d107      	bne.n	80009b2 <HAL_RCC_OscConfig+0x4d6>
            (READ_BIT(pll_config, RCC_PLLCFGR_PLLQ) != (RCC_OscInitStruct->PLL.PLLQ << RCC_PLLCFGR_PLLQ_Pos)))
 80009a2:	68fb      	ldr	r3, [r7, #12]
 80009a4:	f003 6270 	and.w	r2, r3, #251658240	; 0xf000000
 80009a8:	687b      	ldr	r3, [r7, #4]
 80009aa:	6adb      	ldr	r3, [r3, #44]	; 0x2c
 80009ac:	061b      	lsls	r3, r3, #24
            (READ_BIT(pll_config, RCC_PLLCFGR_PLLP) != (((RCC_OscInitStruct->PLL.PLLP >> 1U) - 1U)) << RCC_PLLCFGR_PLLP_Pos) ||
 80009ae:	429a      	cmp	r2, r3
 80009b0:	d001      	beq.n	80009b6 <HAL_RCC_OscConfig+0x4da>
#endif
        {
          return HAL_ERROR;
 80009b2:	2301      	movs	r3, #1
 80009b4:	e000      	b.n	80009b8 <HAL_RCC_OscConfig+0x4dc>
        }
      }
    }
  }
  return HAL_OK;
 80009b6:	2300      	movs	r3, #0
}
 80009b8:	4618      	mov	r0, r3
 80009ba:	3718      	adds	r7, #24
 80009bc:	46bd      	mov	sp, r7
 80009be:	bd80      	pop	{r7, pc}
 80009c0:	40007000 	andmi	r7, r0, r0
 80009c4:	40023800 	andmi	r3, r2, r0, lsl #16
 80009c8:	42470060 	submi	r0, r7, #96	; 0x60

080009cc <HAL_RCC_ClockConfig>:
  *         HPRE[3:0] bits to ensure that HCLK not exceed the maximum allowed frequency
  *         (for more details refer to section above "Initialization/de-initialization functions")
  * @retval None
  */
HAL_StatusTypeDef HAL_RCC_ClockConfig(RCC_ClkInitTypeDef  *RCC_ClkInitStruct, uint32_t FLatency)
{
 80009cc:	b580      	push	{r7, lr}
 80009ce:	b084      	sub	sp, #16
 80009d0:	af00      	add	r7, sp, #0
 80009d2:	6078      	str	r0, [r7, #4]
 80009d4:	6039      	str	r1, [r7, #0]
  uint32_t tickstart;

  /* Check Null pointer */
  if(RCC_ClkInitStruct == NULL)
 80009d6:	687b      	ldr	r3, [r7, #4]
 80009d8:	2b00      	cmp	r3, #0
 80009da:	d101      	bne.n	80009e0 <HAL_RCC_ClockConfig+0x14>
  {
    return HAL_ERROR;
 80009dc:	2301      	movs	r3, #1
 80009de:	e0cc      	b.n	8000b7a <HAL_RCC_ClockConfig+0x1ae>
  /* To correctly read data from FLASH memory, the number of wait states (LATENCY)
    must be correctly programmed according to the frequency of the CPU clock
    (HCLK) and the supply voltage of the device. */

  /* Increasing the number of wait states because of higher CPU frequency */
  if(FLatency > __HAL_FLASH_GET_LATENCY())
 80009e0:	4b68      	ldr	r3, [pc, #416]	; (8000b84 <HAL_RCC_ClockConfig+0x1b8>)
 80009e2:	681b      	ldr	r3, [r3, #0]
 80009e4:	f003 0307 	and.w	r3, r3, #7
 80009e8:	683a      	ldr	r2, [r7, #0]
 80009ea:	429a      	cmp	r2, r3
 80009ec:	d90c      	bls.n	8000a08 <HAL_RCC_ClockConfig+0x3c>
  {
    /* Program the new number of wait states to the LATENCY bits in the FLASH_ACR register */
    __HAL_FLASH_SET_LATENCY(FLatency);
 80009ee:	4b65      	ldr	r3, [pc, #404]	; (8000b84 <HAL_RCC_ClockConfig+0x1b8>)
 80009f0:	683a      	ldr	r2, [r7, #0]
 80009f2:	b2d2      	uxtb	r2, r2
 80009f4:	701a      	strb	r2, [r3, #0]

    /* Check that the new number of wait states is taken into account to access the Flash
    memory by reading the FLASH_ACR register */
    if(__HAL_FLASH_GET_LATENCY() != FLatency)
 80009f6:	4b63      	ldr	r3, [pc, #396]	; (8000b84 <HAL_RCC_ClockConfig+0x1b8>)
 80009f8:	681b      	ldr	r3, [r3, #0]
 80009fa:	f003 0307 	and.w	r3, r3, #7
 80009fe:	683a      	ldr	r2, [r7, #0]
 8000a00:	429a      	cmp	r2, r3
 8000a02:	d001      	beq.n	8000a08 <HAL_RCC_ClockConfig+0x3c>
    {
      return HAL_ERROR;
 8000a04:	2301      	movs	r3, #1
 8000a06:	e0b8      	b.n	8000b7a <HAL_RCC_ClockConfig+0x1ae>
    }
  }

  /*-------------------------- HCLK Configuration --------------------------*/
  if(((RCC_ClkInitStruct->ClockType) & RCC_CLOCKTYPE_HCLK) == RCC_CLOCKTYPE_HCLK)
 8000a08:	687b      	ldr	r3, [r7, #4]
 8000a0a:	681b      	ldr	r3, [r3, #0]
 8000a0c:	f003 0302 	and.w	r3, r3, #2
 8000a10:	2b00      	cmp	r3, #0
 8000a12:	d020      	beq.n	8000a56 <HAL_RCC_ClockConfig+0x8a>
  {
    /* Set the highest APBx dividers in order to ensure that we do not go through
       a non-spec phase whatever we decrease or increase HCLK. */
    if(((RCC_ClkInitStruct->ClockType) & RCC_CLOCKTYPE_PCLK1) == RCC_CLOCKTYPE_PCLK1)
 8000a14:	687b      	ldr	r3, [r7, #4]
 8000a16:	681b      	ldr	r3, [r3, #0]
 8000a18:	f003 0304 	and.w	r3, r3, #4
 8000a1c:	2b00      	cmp	r3, #0
 8000a1e:	d005      	beq.n	8000a2c <HAL_RCC_ClockConfig+0x60>
    {
      MODIFY_REG(RCC->CFGR, RCC_CFGR_PPRE1, RCC_HCLK_DIV16);
 8000a20:	4b59      	ldr	r3, [pc, #356]	; (8000b88 <HAL_RCC_ClockConfig+0x1bc>)
 8000a22:	689b      	ldr	r3, [r3, #8]
 8000a24:	4a58      	ldr	r2, [pc, #352]	; (8000b88 <HAL_RCC_ClockConfig+0x1bc>)
 8000a26:	f443 53e0 	orr.w	r3, r3, #7168	; 0x1c00
 8000a2a:	6093      	str	r3, [r2, #8]
    }

    if(((RCC_ClkInitStruct->ClockType) & RCC_CLOCKTYPE_PCLK2) == RCC_CLOCKTYPE_PCLK2)
 8000a2c:	687b      	ldr	r3, [r7, #4]
 8000a2e:	681b      	ldr	r3, [r3, #0]
 8000a30:	f003 0308 	and.w	r3, r3, #8
 8000a34:	2b00      	cmp	r3, #0
 8000a36:	d005      	beq.n	8000a44 <HAL_RCC_ClockConfig+0x78>
    {
      MODIFY_REG(RCC->CFGR, RCC_CFGR_PPRE2, (RCC_HCLK_DIV16 << 3));
 8000a38:	4b53      	ldr	r3, [pc, #332]	; (8000b88 <HAL_RCC_ClockConfig+0x1bc>)
 8000a3a:	689b      	ldr	r3, [r3, #8]
 8000a3c:	4a52      	ldr	r2, [pc, #328]	; (8000b88 <HAL_RCC_ClockConfig+0x1bc>)
 8000a3e:	f443 4360 	orr.w	r3, r3, #57344	; 0xe000
 8000a42:	6093      	str	r3, [r2, #8]
    }

    assert_param(IS_RCC_HCLK(RCC_ClkInitStruct->AHBCLKDivider));
    MODIFY_REG(RCC->CFGR, RCC_CFGR_HPRE, RCC_ClkInitStruct->AHBCLKDivider);
 8000a44:	4b50      	ldr	r3, [pc, #320]	; (8000b88 <HAL_RCC_ClockConfig+0x1bc>)
 8000a46:	689b      	ldr	r3, [r3, #8]
 8000a48:	f023 02f0 	bic.w	r2, r3, #240	; 0xf0
 8000a4c:	687b      	ldr	r3, [r7, #4]
 8000a4e:	689b      	ldr	r3, [r3, #8]
 8000a50:	494d      	ldr	r1, [pc, #308]	; (8000b88 <HAL_RCC_ClockConfig+0x1bc>)
 8000a52:	4313      	orrs	r3, r2
 8000a54:	608b      	str	r3, [r1, #8]
  }

  /*------------------------- SYSCLK Configuration ---------------------------*/
  if(((RCC_ClkInitStruct->ClockType) & RCC_CLOCKTYPE_SYSCLK) == RCC_CLOCKTYPE_SYSCLK)
 8000a56:	687b      	ldr	r3, [r7, #4]
 8000a58:	681b      	ldr	r3, [r3, #0]
 8000a5a:	f003 0301 	and.w	r3, r3, #1
 8000a5e:	2b00      	cmp	r3, #0
 8000a60:	d044      	beq.n	8000aec <HAL_RCC_ClockConfig+0x120>
  {
    assert_param(IS_RCC_SYSCLKSOURCE(RCC_ClkInitStruct->SYSCLKSource));

    /* HSE is selected as System Clock Source */
    if(RCC_ClkInitStruct->SYSCLKSource == RCC_SYSCLKSOURCE_HSE)
 8000a62:	687b      	ldr	r3, [r7, #4]
 8000a64:	685b      	ldr	r3, [r3, #4]
 8000a66:	2b01      	cmp	r3, #1
 8000a68:	d107      	bne.n	8000a7a <HAL_RCC_ClockConfig+0xae>
    {
      /* Check the HSE ready flag */
      if(__HAL_RCC_GET_FLAG(RCC_FLAG_HSERDY) == RESET)
 8000a6a:	4b47      	ldr	r3, [pc, #284]	; (8000b88 <HAL_RCC_ClockConfig+0x1bc>)
 8000a6c:	681b      	ldr	r3, [r3, #0]
 8000a6e:	f403 3300 	and.w	r3, r3, #131072	; 0x20000
 8000a72:	2b00      	cmp	r3, #0
 8000a74:	d119      	bne.n	8000aaa <HAL_RCC_ClockConfig+0xde>
      {
        return HAL_ERROR;
 8000a76:	2301      	movs	r3, #1
 8000a78:	e07f      	b.n	8000b7a <HAL_RCC_ClockConfig+0x1ae>
      }
    }
    /* PLL is selected as System Clock Source */
    else if((RCC_ClkInitStruct->SYSCLKSource == RCC_SYSCLKSOURCE_PLLCLK)   ||
 8000a7a:	687b      	ldr	r3, [r7, #4]
 8000a7c:	685b      	ldr	r3, [r3, #4]
 8000a7e:	2b02      	cmp	r3, #2
 8000a80:	d003      	beq.n	8000a8a <HAL_RCC_ClockConfig+0xbe>
            (RCC_ClkInitStruct->SYSCLKSource == RCC_SYSCLKSOURCE_PLLRCLK))
 8000a82:	687b      	ldr	r3, [r7, #4]
 8000a84:	685b      	ldr	r3, [r3, #4]
    else if((RCC_ClkInitStruct->SYSCLKSource == RCC_SYSCLKSOURCE_PLLCLK)   ||
 8000a86:	2b03      	cmp	r3, #3
 8000a88:	d107      	bne.n	8000a9a <HAL_RCC_ClockConfig+0xce>
    {
      /* Check the PLL ready flag */
      if(__HAL_RCC_GET_FLAG(RCC_FLAG_PLLRDY) == RESET)
 8000a8a:	4b3f      	ldr	r3, [pc, #252]	; (8000b88 <HAL_RCC_ClockConfig+0x1bc>)
 8000a8c:	681b      	ldr	r3, [r3, #0]
 8000a8e:	f003 7300 	and.w	r3, r3, #33554432	; 0x2000000
 8000a92:	2b00      	cmp	r3, #0
 8000a94:	d109      	bne.n	8000aaa <HAL_RCC_ClockConfig+0xde>
      {
        return HAL_ERROR;
 8000a96:	2301      	movs	r3, #1
 8000a98:	e06f      	b.n	8000b7a <HAL_RCC_ClockConfig+0x1ae>
    }
    /* HSI is selected as System Clock Source */
    else
    {
      /* Check the HSI ready flag */
      if(__HAL_RCC_GET_FLAG(RCC_FLAG_HSIRDY) == RESET)
 8000a9a:	4b3b      	ldr	r3, [pc, #236]	; (8000b88 <HAL_RCC_ClockConfig+0x1bc>)
 8000a9c:	681b      	ldr	r3, [r3, #0]
 8000a9e:	f003 0302 	and.w	r3, r3, #2
 8000aa2:	2b00      	cmp	r3, #0
 8000aa4:	d101      	bne.n	8000aaa <HAL_RCC_ClockConfig+0xde>
      {
        return HAL_ERROR;
 8000aa6:	2301      	movs	r3, #1
 8000aa8:	e067      	b.n	8000b7a <HAL_RCC_ClockConfig+0x1ae>
      }
    }

    __HAL_RCC_SYSCLK_CONFIG(RCC_ClkInitStruct->SYSCLKSource);
 8000aaa:	4b37      	ldr	r3, [pc, #220]	; (8000b88 <HAL_RCC_ClockConfig+0x1bc>)
 8000aac:	689b      	ldr	r3, [r3, #8]
 8000aae:	f023 0203 	bic.w	r2, r3, #3
 8000ab2:	687b      	ldr	r3, [r7, #4]
 8000ab4:	685b      	ldr	r3, [r3, #4]
 8000ab6:	4934      	ldr	r1, [pc, #208]	; (8000b88 <HAL_RCC_ClockConfig+0x1bc>)
 8000ab8:	4313      	orrs	r3, r2
 8000aba:	608b      	str	r3, [r1, #8]

    /* Get Start Tick */
    tickstart = HAL_GetTick();
 8000abc:	f7ff fc14 	bl	80002e8 <HAL_GetTick>
 8000ac0:	60f8      	str	r0, [r7, #12]

    while (__HAL_RCC_GET_SYSCLK_SOURCE() != (RCC_ClkInitStruct->SYSCLKSource << RCC_CFGR_SWS_Pos))
 8000ac2:	e00a      	b.n	8000ada <HAL_RCC_ClockConfig+0x10e>
    {
      if ((HAL_GetTick() - tickstart) > CLOCKSWITCH_TIMEOUT_VALUE)
 8000ac4:	f7ff fc10 	bl	80002e8 <HAL_GetTick>
 8000ac8:	4602      	mov	r2, r0
 8000aca:	68fb      	ldr	r3, [r7, #12]
 8000acc:	1ad3      	subs	r3, r2, r3
 8000ace:	f241 3288 	movw	r2, #5000	; 0x1388
 8000ad2:	4293      	cmp	r3, r2
 8000ad4:	d901      	bls.n	8000ada <HAL_RCC_ClockConfig+0x10e>
      {
        return HAL_TIMEOUT;
 8000ad6:	2303      	movs	r3, #3
 8000ad8:	e04f      	b.n	8000b7a <HAL_RCC_ClockConfig+0x1ae>
    while (__HAL_RCC_GET_SYSCLK_SOURCE() != (RCC_ClkInitStruct->SYSCLKSource << RCC_CFGR_SWS_Pos))
 8000ada:	4b2b      	ldr	r3, [pc, #172]	; (8000b88 <HAL_RCC_ClockConfig+0x1bc>)
 8000adc:	689b      	ldr	r3, [r3, #8]
 8000ade:	f003 020c 	and.w	r2, r3, #12
 8000ae2:	687b      	ldr	r3, [r7, #4]
 8000ae4:	685b      	ldr	r3, [r3, #4]
 8000ae6:	009b      	lsls	r3, r3, #2
 8000ae8:	429a      	cmp	r2, r3
 8000aea:	d1eb      	bne.n	8000ac4 <HAL_RCC_ClockConfig+0xf8>
      }
    }
  }

  /* Decreasing the number of wait states because of lower CPU frequency */
  if(FLatency < __HAL_FLASH_GET_LATENCY())
 8000aec:	4b25      	ldr	r3, [pc, #148]	; (8000b84 <HAL_RCC_ClockConfig+0x1b8>)
 8000aee:	681b      	ldr	r3, [r3, #0]
 8000af0:	f003 0307 	and.w	r3, r3, #7
 8000af4:	683a      	ldr	r2, [r7, #0]
 8000af6:	429a      	cmp	r2, r3
 8000af8:	d20c      	bcs.n	8000b14 <HAL_RCC_ClockConfig+0x148>
  {
     /* Program the new number of wait states to the LATENCY bits in the FLASH_ACR register */
    __HAL_FLASH_SET_LATENCY(FLatency);
 8000afa:	4b22      	ldr	r3, [pc, #136]	; (8000b84 <HAL_RCC_ClockConfig+0x1b8>)
 8000afc:	683a      	ldr	r2, [r7, #0]
 8000afe:	b2d2      	uxtb	r2, r2
 8000b00:	701a      	strb	r2, [r3, #0]

    /* Check that the new number of wait states is taken into account to access the Flash
    memory by reading the FLASH_ACR register */
    if(__HAL_FLASH_GET_LATENCY() != FLatency)
 8000b02:	4b20      	ldr	r3, [pc, #128]	; (8000b84 <HAL_RCC_ClockConfig+0x1b8>)
 8000b04:	681b      	ldr	r3, [r3, #0]
 8000b06:	f003 0307 	and.w	r3, r3, #7
 8000b0a:	683a      	ldr	r2, [r7, #0]
 8000b0c:	429a      	cmp	r2, r3
 8000b0e:	d001      	beq.n	8000b14 <HAL_RCC_ClockConfig+0x148>
    {
      return HAL_ERROR;
 8000b10:	2301      	movs	r3, #1
 8000b12:	e032      	b.n	8000b7a <HAL_RCC_ClockConfig+0x1ae>
    }
  }

  /*-------------------------- PCLK1 Configuration ---------------------------*/
  if(((RCC_ClkInitStruct->ClockType) & RCC_CLOCKTYPE_PCLK1) == RCC_CLOCKTYPE_PCLK1)
 8000b14:	687b      	ldr	r3, [r7, #4]
 8000b16:	681b      	ldr	r3, [r3, #0]
 8000b18:	f003 0304 	and.w	r3, r3, #4
 8000b1c:	2b00      	cmp	r3, #0
 8000b1e:	d008      	beq.n	8000b32 <HAL_RCC_ClockConfig+0x166>
  {
    assert_param(IS_RCC_PCLK(RCC_ClkInitStruct->APB1CLKDivider));
    MODIFY_REG(RCC->CFGR, RCC_CFGR_PPRE1, RCC_ClkInitStruct->APB1CLKDivider);
 8000b20:	4b19      	ldr	r3, [pc, #100]	; (8000b88 <HAL_RCC_ClockConfig+0x1bc>)
 8000b22:	689b      	ldr	r3, [r3, #8]
 8000b24:	f423 52e0 	bic.w	r2, r3, #7168	; 0x1c00
 8000b28:	687b      	ldr	r3, [r7, #4]
 8000b2a:	68db      	ldr	r3, [r3, #12]
 8000b2c:	4916      	ldr	r1, [pc, #88]	; (8000b88 <HAL_RCC_ClockConfig+0x1bc>)
 8000b2e:	4313      	orrs	r3, r2
 8000b30:	608b      	str	r3, [r1, #8]
  }

  /*-------------------------- PCLK2 Configuration ---------------------------*/
  if(((RCC_ClkInitStruct->ClockType) & RCC_CLOCKTYPE_PCLK2) == RCC_CLOCKTYPE_PCLK2)
 8000b32:	687b      	ldr	r3, [r7, #4]
 8000b34:	681b      	ldr	r3, [r3, #0]
 8000b36:	f003 0308 	and.w	r3, r3, #8
 8000b3a:	2b00      	cmp	r3, #0
 8000b3c:	d009      	beq.n	8000b52 <HAL_RCC_ClockConfig+0x186>
  {
    assert_param(IS_RCC_PCLK(RCC_ClkInitStruct->APB2CLKDivider));
    MODIFY_REG(RCC->CFGR, RCC_CFGR_PPRE2, ((RCC_ClkInitStruct->APB2CLKDivider) << 3U));
 8000b3e:	4b12      	ldr	r3, [pc, #72]	; (8000b88 <HAL_RCC_ClockConfig+0x1bc>)
 8000b40:	689b      	ldr	r3, [r3, #8]
 8000b42:	f423 4260 	bic.w	r2, r3, #57344	; 0xe000
 8000b46:	687b      	ldr	r3, [r7, #4]
 8000b48:	691b      	ldr	r3, [r3, #16]
 8000b4a:	00db      	lsls	r3, r3, #3
 8000b4c:	490e      	ldr	r1, [pc, #56]	; (8000b88 <HAL_RCC_ClockConfig+0x1bc>)
 8000b4e:	4313      	orrs	r3, r2
 8000b50:	608b      	str	r3, [r1, #8]
  }

  /* Update the SystemCoreClock global variable */
  SystemCoreClock = HAL_RCC_GetSysClockFreq() >> AHBPrescTable[(RCC->CFGR & RCC_CFGR_HPRE)>> RCC_CFGR_HPRE_Pos];
 8000b52:	f000 f821 	bl	8000b98 <HAL_RCC_GetSysClockFreq>
 8000b56:	4601      	mov	r1, r0
 8000b58:	4b0b      	ldr	r3, [pc, #44]	; (8000b88 <HAL_RCC_ClockConfig+0x1bc>)
 8000b5a:	689b      	ldr	r3, [r3, #8]
 8000b5c:	091b      	lsrs	r3, r3, #4
 8000b5e:	f003 030f 	and.w	r3, r3, #15
 8000b62:	4a0a      	ldr	r2, [pc, #40]	; (8000b8c <HAL_RCC_ClockConfig+0x1c0>)
 8000b64:	5cd3      	ldrb	r3, [r2, r3]
 8000b66:	fa21 f303 	lsr.w	r3, r1, r3
 8000b6a:	4a09      	ldr	r2, [pc, #36]	; (8000b90 <HAL_RCC_ClockConfig+0x1c4>)
 8000b6c:	6013      	str	r3, [r2, #0]

  /* Configure the source of time base considering new system clocks settings */
  HAL_InitTick (uwTickPrio);
 8000b6e:	4b09      	ldr	r3, [pc, #36]	; (8000b94 <HAL_RCC_ClockConfig+0x1c8>)
 8000b70:	681b      	ldr	r3, [r3, #0]
 8000b72:	4618      	mov	r0, r3
 8000b74:	f7ff fb74 	bl	8000260 <HAL_InitTick>

  return HAL_OK;
 8000b78:	2300      	movs	r3, #0
}
 8000b7a:	4618      	mov	r0, r3
 8000b7c:	3710      	adds	r7, #16
 8000b7e:	46bd      	mov	sp, r7
 8000b80:	bd80      	pop	{r7, pc}
 8000b82:	bf00      	nop
 8000b84:	40023c00 	andmi	r3, r2, r0, lsl #24
 8000b88:	40023800 	andmi	r3, r2, r0, lsl #16
 8000b8c:	0800440c 	stmdaeq	r0, {r2, r3, sl, lr}
 8000b90:	20000008 	andcs	r0, r0, r8
 8000b94:	20000000 	andcs	r0, r0, r0

08000b98 <HAL_RCC_GetSysClockFreq>:
  *
  *
  * @retval SYSCLK frequency
  */
__weak uint32_t HAL_RCC_GetSysClockFreq(void)
{
 8000b98:	e92d 43f0 	stmdb	sp!, {r4, r5, r6, r7, r8, r9, lr}
 8000b9c:	b085      	sub	sp, #20
 8000b9e:	af00      	add	r7, sp, #0
  uint32_t pllm = 0U, pllvco = 0U, pllp = 0U;
 8000ba0:	2300      	movs	r3, #0
 8000ba2:	607b      	str	r3, [r7, #4]
 8000ba4:	2300      	movs	r3, #0
 8000ba6:	60fb      	str	r3, [r7, #12]
 8000ba8:	2300      	movs	r3, #0
 8000baa:	603b      	str	r3, [r7, #0]
  uint32_t sysclockfreq = 0U;
 8000bac:	2300      	movs	r3, #0
 8000bae:	60bb      	str	r3, [r7, #8]

  /* Get SYSCLK source -------------------------------------------------------*/
  switch (RCC->CFGR & RCC_CFGR_SWS)
 8000bb0:	4b64      	ldr	r3, [pc, #400]	; (8000d44 <HAL_RCC_GetSysClockFreq+0x1ac>)
 8000bb2:	689b      	ldr	r3, [r3, #8]
 8000bb4:	f003 030c 	and.w	r3, r3, #12
 8000bb8:	2b04      	cmp	r3, #4
 8000bba:	d007      	beq.n	8000bcc <HAL_RCC_GetSysClockFreq+0x34>
 8000bbc:	2b08      	cmp	r3, #8
 8000bbe:	d008      	beq.n	8000bd2 <HAL_RCC_GetSysClockFreq+0x3a>
 8000bc0:	2b00      	cmp	r3, #0
 8000bc2:	f040 80b6 	bne.w	8000d32 <HAL_RCC_GetSysClockFreq+0x19a>
  {
    case RCC_CFGR_SWS_HSI:  /* HSI used as system clock source */
    {
      sysclockfreq = HSI_VALUE;
 8000bc6:	4b60      	ldr	r3, [pc, #384]	; (8000d48 <HAL_RCC_GetSysClockFreq+0x1b0>)
 8000bc8:	60bb      	str	r3, [r7, #8]
       break;
 8000bca:	e0b5      	b.n	8000d38 <HAL_RCC_GetSysClockFreq+0x1a0>
    }
    case RCC_CFGR_SWS_HSE:  /* HSE used as system clock  source */
    {
      sysclockfreq = HSE_VALUE;
 8000bcc:	4b5f      	ldr	r3, [pc, #380]	; (8000d4c <HAL_RCC_GetSysClockFreq+0x1b4>)
 8000bce:	60bb      	str	r3, [r7, #8]
      break;
 8000bd0:	e0b2      	b.n	8000d38 <HAL_RCC_GetSysClockFreq+0x1a0>
    }
    case RCC_CFGR_SWS_PLL:  /* PLL used as system clock  source */
    {
      /* PLL_VCO = (HSE_VALUE or HSI_VALUE / PLLM) * PLLN
      SYSCLK = PLL_VCO / PLLP */
      pllm = RCC->PLLCFGR & RCC_PLLCFGR_PLLM;
 8000bd2:	4b5c      	ldr	r3, [pc, #368]	; (8000d44 <HAL_RCC_GetSysClockFreq+0x1ac>)
 8000bd4:	685b      	ldr	r3, [r3, #4]
 8000bd6:	f003 033f 	and.w	r3, r3, #63	; 0x3f
 8000bda:	607b      	str	r3, [r7, #4]
      if(__HAL_RCC_GET_PLL_OSCSOURCE() != RCC_PLLSOURCE_HSI)
 8000bdc:	4b59      	ldr	r3, [pc, #356]	; (8000d44 <HAL_RCC_GetSysClockFreq+0x1ac>)
 8000bde:	685b      	ldr	r3, [r3, #4]
 8000be0:	f403 0380 	and.w	r3, r3, #4194304	; 0x400000
 8000be4:	2b00      	cmp	r3, #0
 8000be6:	d04c      	beq.n	8000c82 <HAL_RCC_GetSysClockFreq+0xea>
      {
        /* HSE used as PLL clock source */
        pllvco = (uint32_t) ((((uint64_t) HSE_VALUE * ((uint64_t) ((RCC->PLLCFGR & RCC_PLLCFGR_PLLN) >> RCC_PLLCFGR_PLLN_Pos)))) / (uint64_t)pllm);
 8000be8:	4b56      	ldr	r3, [pc, #344]	; (8000d44 <HAL_RCC_GetSysClockFreq+0x1ac>)
 8000bea:	685b      	ldr	r3, [r3, #4]
 8000bec:	099b      	lsrs	r3, r3, #6
 8000bee:	f04f 0400 	mov.w	r4, #0
 8000bf2:	f240 11ff 	movw	r1, #511	; 0x1ff
 8000bf6:	f04f 0200 	mov.w	r2, #0
 8000bfa:	ea03 0801 	and.w	r8, r3, r1
 8000bfe:	ea04 0902 	and.w	r9, r4, r2
 8000c02:	4641      	mov	r1, r8
 8000c04:	464a      	mov	r2, r9
 8000c06:	f04f 0300 	mov.w	r3, #0
 8000c0a:	f04f 0400 	mov.w	r4, #0
 8000c0e:	0154      	lsls	r4, r2, #5
 8000c10:	ea44 64d1 	orr.w	r4, r4, r1, lsr #27
 8000c14:	014b      	lsls	r3, r1, #5
 8000c16:	4619      	mov	r1, r3
 8000c18:	4622      	mov	r2, r4
 8000c1a:	ebb1 0108 	subs.w	r1, r1, r8
 8000c1e:	eb62 0209 	sbc.w	r2, r2, r9
 8000c22:	f04f 0300 	mov.w	r3, #0
 8000c26:	f04f 0400 	mov.w	r4, #0
 8000c2a:	0194      	lsls	r4, r2, #6
 8000c2c:	ea44 6491 	orr.w	r4, r4, r1, lsr #26
 8000c30:	018b      	lsls	r3, r1, #6
 8000c32:	1a5b      	subs	r3, r3, r1
 8000c34:	eb64 0402 	sbc.w	r4, r4, r2
 8000c38:	f04f 0100 	mov.w	r1, #0
 8000c3c:	f04f 0200 	mov.w	r2, #0
 8000c40:	00e2      	lsls	r2, r4, #3
 8000c42:	ea42 7253 	orr.w	r2, r2, r3, lsr #29
 8000c46:	00d9      	lsls	r1, r3, #3
 8000c48:	460b      	mov	r3, r1
 8000c4a:	4614      	mov	r4, r2
 8000c4c:	eb13 0308 	adds.w	r3, r3, r8
 8000c50:	eb44 0409 	adc.w	r4, r4, r9
 8000c54:	f04f 0100 	mov.w	r1, #0
 8000c58:	f04f 0200 	mov.w	r2, #0
 8000c5c:	0262      	lsls	r2, r4, #9
 8000c5e:	ea42 52d3 	orr.w	r2, r2, r3, lsr #23
 8000c62:	0259      	lsls	r1, r3, #9
 8000c64:	460b      	mov	r3, r1
 8000c66:	4614      	mov	r4, r2
 8000c68:	4618      	mov	r0, r3
 8000c6a:	4621      	mov	r1, r4
 8000c6c:	687b      	ldr	r3, [r7, #4]
 8000c6e:	f04f 0400 	mov.w	r4, #0
 8000c72:	461a      	mov	r2, r3
 8000c74:	4623      	mov	r3, r4
 8000c76:	f003 f8a3 	bl	8003dc0 <__aeabi_uldivmod>
 8000c7a:	4603      	mov	r3, r0
 8000c7c:	460c      	mov	r4, r1
 8000c7e:	60fb      	str	r3, [r7, #12]
 8000c80:	e049      	b.n	8000d16 <HAL_RCC_GetSysClockFreq+0x17e>
      }
      else
      {
        /* HSI used as PLL clock source */
        pllvco = (uint32_t) ((((uint64_t) HSI_VALUE * ((uint64_t) ((RCC->PLLCFGR & RCC_PLLCFGR_PLLN) >> RCC_PLLCFGR_PLLN_Pos)))) / (uint64_t)pllm);
 8000c82:	4b30      	ldr	r3, [pc, #192]	; (8000d44 <HAL_RCC_GetSysClockFreq+0x1ac>)
 8000c84:	685b      	ldr	r3, [r3, #4]
 8000c86:	099b      	lsrs	r3, r3, #6
 8000c88:	f04f 0400 	mov.w	r4, #0
 8000c8c:	f240 11ff 	movw	r1, #511	; 0x1ff
 8000c90:	f04f 0200 	mov.w	r2, #0
 8000c94:	ea03 0501 	and.w	r5, r3, r1
 8000c98:	ea04 0602 	and.w	r6, r4, r2
 8000c9c:	4629      	mov	r1, r5
 8000c9e:	4632      	mov	r2, r6
 8000ca0:	f04f 0300 	mov.w	r3, #0
 8000ca4:	f04f 0400 	mov.w	r4, #0
 8000ca8:	0154      	lsls	r4, r2, #5
 8000caa:	ea44 64d1 	orr.w	r4, r4, r1, lsr #27
 8000cae:	014b      	lsls	r3, r1, #5
 8000cb0:	4619      	mov	r1, r3
 8000cb2:	4622      	mov	r2, r4
 8000cb4:	1b49      	subs	r1, r1, r5
 8000cb6:	eb62 0206 	sbc.w	r2, r2, r6
 8000cba:	f04f 0300 	mov.w	r3, #0
 8000cbe:	f04f 0400 	mov.w	r4, #0
 8000cc2:	0194      	lsls	r4, r2, #6
 8000cc4:	ea44 6491 	orr.w	r4, r4, r1, lsr #26
 8000cc8:	018b      	lsls	r3, r1, #6
 8000cca:	1a5b      	subs	r3, r3, r1
 8000ccc:	eb64 0402 	sbc.w	r4, r4, r2
 8000cd0:	f04f 0100 	mov.w	r1, #0
 8000cd4:	f04f 0200 	mov.w	r2, #0
 8000cd8:	00e2      	lsls	r2, r4, #3
 8000cda:	ea42 7253 	orr.w	r2, r2, r3, lsr #29
 8000cde:	00d9      	lsls	r1, r3, #3
 8000ce0:	460b      	mov	r3, r1
 8000ce2:	4614      	mov	r4, r2
 8000ce4:	195b      	adds	r3, r3, r5
 8000ce6:	eb46 0404 	adc.w	r4, r6, r4
 8000cea:	f04f 0100 	mov.w	r1, #0
 8000cee:	f04f 0200 	mov.w	r2, #0
 8000cf2:	02a2      	lsls	r2, r4, #10
 8000cf4:	ea42 5293 	orr.w	r2, r2, r3, lsr #22
 8000cf8:	0299      	lsls	r1, r3, #10
 8000cfa:	460b      	mov	r3, r1
 8000cfc:	4614      	mov	r4, r2
 8000cfe:	4618      	mov	r0, r3
 8000d00:	4621      	mov	r1, r4
 8000d02:	687b      	ldr	r3, [r7, #4]
 8000d04:	f04f 0400 	mov.w	r4, #0
 8000d08:	461a      	mov	r2, r3
 8000d0a:	4623      	mov	r3, r4
 8000d0c:	f003 f858 	bl	8003dc0 <__aeabi_uldivmod>
 8000d10:	4603      	mov	r3, r0
 8000d12:	460c      	mov	r4, r1
 8000d14:	60fb      	str	r3, [r7, #12]
      }
      pllp = ((((RCC->PLLCFGR & RCC_PLLCFGR_PLLP) >> RCC_PLLCFGR_PLLP_Pos) + 1U) *2U);
 8000d16:	4b0b      	ldr	r3, [pc, #44]	; (8000d44 <HAL_RCC_GetSysClockFreq+0x1ac>)
 8000d18:	685b      	ldr	r3, [r3, #4]
 8000d1a:	0c1b      	lsrs	r3, r3, #16
 8000d1c:	f003 0303 	and.w	r3, r3, #3
 8000d20:	3301      	adds	r3, #1
 8000d22:	005b      	lsls	r3, r3, #1
 8000d24:	603b      	str	r3, [r7, #0]

      sysclockfreq = pllvco/pllp;
 8000d26:	68fa      	ldr	r2, [r7, #12]
 8000d28:	683b      	ldr	r3, [r7, #0]
 8000d2a:	fbb2 f3f3 	udiv	r3, r2, r3
 8000d2e:	60bb      	str	r3, [r7, #8]
      break;
 8000d30:	e002      	b.n	8000d38 <HAL_RCC_GetSysClockFreq+0x1a0>
    }
    default:
    {
      sysclockfreq = HSI_VALUE;
 8000d32:	4b05      	ldr	r3, [pc, #20]	; (8000d48 <HAL_RCC_GetSysClockFreq+0x1b0>)
 8000d34:	60bb      	str	r3, [r7, #8]
      break;
 8000d36:	bf00      	nop
    }
  }
  return sysclockfreq;
 8000d38:	68bb      	ldr	r3, [r7, #8]
}
 8000d3a:	4618      	mov	r0, r3
 8000d3c:	3714      	adds	r7, #20
 8000d3e:	46bd      	mov	sp, r7
 8000d40:	e8bd 83f0 	ldmia.w	sp!, {r4, r5, r6, r7, r8, r9, pc}
 8000d44:	40023800 	andmi	r3, r2, r0, lsl #16
 8000d48:	00f42400 	rscseq	r2, r4, r0, lsl #8
 8000d4c:	007a1200 	rsbseq	r1, sl, r0, lsl #4

08000d50 <HAL_RCC_GetHCLKFreq>:
  * @note   The SystemCoreClock CMSIS variable is used to store System Clock Frequency
  *         and updated within this function
  * @retval HCLK frequency
  */
uint32_t HAL_RCC_GetHCLKFreq(void)
{
 8000d50:	b480      	push	{r7}
 8000d52:	af00      	add	r7, sp, #0
  return SystemCoreClock;
 8000d54:	4b03      	ldr	r3, [pc, #12]	; (8000d64 <HAL_RCC_GetHCLKFreq+0x14>)
 8000d56:	681b      	ldr	r3, [r3, #0]
}
 8000d58:	4618      	mov	r0, r3
 8000d5a:	46bd      	mov	sp, r7
 8000d5c:	f85d 7b04 	ldr.w	r7, [sp], #4
 8000d60:	4770      	bx	lr
 8000d62:	bf00      	nop
 8000d64:	20000008 	andcs	r0, r0, r8

08000d68 <HAL_RCC_GetPCLK1Freq>:
  * @note   Each time PCLK1 changes, this function must be called to update the
  *         right PCLK1 value. Otherwise, any configuration based on this function will be incorrect.
  * @retval PCLK1 frequency
  */
uint32_t HAL_RCC_GetPCLK1Freq(void)
{
 8000d68:	b580      	push	{r7, lr}
 8000d6a:	af00      	add	r7, sp, #0
  /* Get HCLK source and Compute PCLK1 frequency ---------------------------*/
  return (HAL_RCC_GetHCLKFreq() >> APBPrescTable[(RCC->CFGR & RCC_CFGR_PPRE1)>> RCC_CFGR_PPRE1_Pos]);
 8000d6c:	f7ff fff0 	bl	8000d50 <HAL_RCC_GetHCLKFreq>
 8000d70:	4601      	mov	r1, r0
 8000d72:	4b05      	ldr	r3, [pc, #20]	; (8000d88 <HAL_RCC_GetPCLK1Freq+0x20>)
 8000d74:	689b      	ldr	r3, [r3, #8]
 8000d76:	0a9b      	lsrs	r3, r3, #10
 8000d78:	f003 0307 	and.w	r3, r3, #7
 8000d7c:	4a03      	ldr	r2, [pc, #12]	; (8000d8c <HAL_RCC_GetPCLK1Freq+0x24>)
 8000d7e:	5cd3      	ldrb	r3, [r2, r3]
 8000d80:	fa21 f303 	lsr.w	r3, r1, r3
}
 8000d84:	4618      	mov	r0, r3
 8000d86:	bd80      	pop	{r7, pc}
 8000d88:	40023800 	andmi	r3, r2, r0, lsl #16
 8000d8c:	0800441c 	stmdaeq	r0, {r2, r3, r4, sl, lr}

08000d90 <HAL_RCC_GetPCLK2Freq>:
  * @note   Each time PCLK2 changes, this function must be called to update the
  *         right PCLK2 value. Otherwise, any configuration based on this function will be incorrect.
  * @retval PCLK2 frequency
  */
uint32_t HAL_RCC_GetPCLK2Freq(void)
{
 8000d90:	b580      	push	{r7, lr}
 8000d92:	af00      	add	r7, sp, #0
  /* Get HCLK source and Compute PCLK2 frequency ---------------------------*/
  return (HAL_RCC_GetHCLKFreq()>> APBPrescTable[(RCC->CFGR & RCC_CFGR_PPRE2)>> RCC_CFGR_PPRE2_Pos]);
 8000d94:	f7ff ffdc 	bl	8000d50 <HAL_RCC_GetHCLKFreq>
 8000d98:	4601      	mov	r1, r0
 8000d9a:	4b05      	ldr	r3, [pc, #20]	; (8000db0 <HAL_RCC_GetPCLK2Freq+0x20>)
 8000d9c:	689b      	ldr	r3, [r3, #8]
 8000d9e:	0b5b      	lsrs	r3, r3, #13
 8000da0:	f003 0307 	and.w	r3, r3, #7
 8000da4:	4a03      	ldr	r2, [pc, #12]	; (8000db4 <HAL_RCC_GetPCLK2Freq+0x24>)
 8000da6:	5cd3      	ldrb	r3, [r2, r3]
 8000da8:	fa21 f303 	lsr.w	r3, r1, r3
}
 8000dac:	4618      	mov	r0, r3
 8000dae:	bd80      	pop	{r7, pc}
 8000db0:	40023800 	andmi	r3, r2, r0, lsl #16
 8000db4:	0800441c 	stmdaeq	r0, {r2, r3, r4, sl, lr}

08000db8 <HAL_GPIO_Init>:
  * @param  GPIO_Init pointer to a GPIO_InitTypeDef structure that contains
  *         the configuration information for the specified GPIO peripheral.
  * @retval None
  */
void HAL_GPIO_Init(GPIO_TypeDef  *GPIOx, GPIO_InitTypeDef *GPIO_Init)
{
 8000db8:	b480      	push	{r7}
 8000dba:	b089      	sub	sp, #36	; 0x24
 8000dbc:	af00      	add	r7, sp, #0
 8000dbe:	6078      	str	r0, [r7, #4]
 8000dc0:	6039      	str	r1, [r7, #0]
  uint32_t position;
  uint32_t ioposition = 0x00U;
 8000dc2:	2300      	movs	r3, #0
 8000dc4:	617b      	str	r3, [r7, #20]
  uint32_t iocurrent = 0x00U;
 8000dc6:	2300      	movs	r3, #0
 8000dc8:	613b      	str	r3, [r7, #16]
  uint32_t temp = 0x00U;
 8000dca:	2300      	movs	r3, #0
 8000dcc:	61bb      	str	r3, [r7, #24]
  assert_param(IS_GPIO_PIN(GPIO_Init->Pin));
  assert_param(IS_GPIO_MODE(GPIO_Init->Mode));
  assert_param(IS_GPIO_PULL(GPIO_Init->Pull));

  /* Configure the port pins */
  for(position = 0U; position < GPIO_NUMBER; position++)
 8000dce:	2300      	movs	r3, #0
 8000dd0:	61fb      	str	r3, [r7, #28]
 8000dd2:	e159      	b.n	8001088 <HAL_GPIO_Init+0x2d0>
  {
    /* Get the IO position */
    ioposition = 0x01U << position;
 8000dd4:	2201      	movs	r2, #1
 8000dd6:	69fb      	ldr	r3, [r7, #28]
 8000dd8:	fa02 f303 	lsl.w	r3, r2, r3
 8000ddc:	617b      	str	r3, [r7, #20]
    /* Get the current IO position */
    iocurrent = (uint32_t)(GPIO_Init->Pin) & ioposition;
 8000dde:	683b      	ldr	r3, [r7, #0]
 8000de0:	681b      	ldr	r3, [r3, #0]
 8000de2:	697a      	ldr	r2, [r7, #20]
 8000de4:	4013      	ands	r3, r2
 8000de6:	613b      	str	r3, [r7, #16]

    if(iocurrent == ioposition)
 8000de8:	693a      	ldr	r2, [r7, #16]
 8000dea:	697b      	ldr	r3, [r7, #20]
 8000dec:	429a      	cmp	r2, r3
 8000dee:	f040 8148 	bne.w	8001082 <HAL_GPIO_Init+0x2ca>
    {
      /*--------------------- GPIO Mode Configuration ------------------------*/
      /* In case of Output or Alternate function mode selection */
      if(((GPIO_Init->Mode & GPIO_MODE) == MODE_OUTPUT) || \
 8000df2:	683b      	ldr	r3, [r7, #0]
 8000df4:	685b      	ldr	r3, [r3, #4]
 8000df6:	f003 0303 	and.w	r3, r3, #3
 8000dfa:	2b01      	cmp	r3, #1
 8000dfc:	d005      	beq.n	8000e0a <HAL_GPIO_Init+0x52>
          (GPIO_Init->Mode & GPIO_MODE) == MODE_AF)
 8000dfe:	683b      	ldr	r3, [r7, #0]
 8000e00:	685b      	ldr	r3, [r3, #4]
 8000e02:	f003 0303 	and.w	r3, r3, #3
      if(((GPIO_Init->Mode & GPIO_MODE) == MODE_OUTPUT) || \
 8000e06:	2b02      	cmp	r3, #2
 8000e08:	d130      	bne.n	8000e6c <HAL_GPIO_Init+0xb4>
      {
        /* Check the Speed parameter */
        assert_param(IS_GPIO_SPEED(GPIO_Init->Speed));
        /* Configure the IO Speed */
        temp = GPIOx->OSPEEDR; 
 8000e0a:	687b      	ldr	r3, [r7, #4]
 8000e0c:	689b      	ldr	r3, [r3, #8]
 8000e0e:	61bb      	str	r3, [r7, #24]
        temp &= ~(GPIO_OSPEEDER_OSPEEDR0 << (position * 2U));
 8000e10:	69fb      	ldr	r3, [r7, #28]
 8000e12:	005b      	lsls	r3, r3, #1
 8000e14:	2203      	movs	r2, #3
 8000e16:	fa02 f303 	lsl.w	r3, r2, r3
 8000e1a:	43db      	mvns	r3, r3
 8000e1c:	69ba      	ldr	r2, [r7, #24]
 8000e1e:	4013      	ands	r3, r2
 8000e20:	61bb      	str	r3, [r7, #24]
        temp |= (GPIO_Init->Speed << (position * 2U));
 8000e22:	683b      	ldr	r3, [r7, #0]
 8000e24:	68da      	ldr	r2, [r3, #12]
 8000e26:	69fb      	ldr	r3, [r7, #28]
 8000e28:	005b      	lsls	r3, r3, #1
 8000e2a:	fa02 f303 	lsl.w	r3, r2, r3
 8000e2e:	69ba      	ldr	r2, [r7, #24]
 8000e30:	4313      	orrs	r3, r2
 8000e32:	61bb      	str	r3, [r7, #24]
        GPIOx->OSPEEDR = temp;
 8000e34:	687b      	ldr	r3, [r7, #4]
 8000e36:	69ba      	ldr	r2, [r7, #24]
 8000e38:	609a      	str	r2, [r3, #8]

        /* Configure the IO Output Type */
        temp = GPIOx->OTYPER;
 8000e3a:	687b      	ldr	r3, [r7, #4]
 8000e3c:	685b      	ldr	r3, [r3, #4]
 8000e3e:	61bb      	str	r3, [r7, #24]
        temp &= ~(GPIO_OTYPER_OT_0 << position) ;
 8000e40:	2201      	movs	r2, #1
 8000e42:	69fb      	ldr	r3, [r7, #28]
 8000e44:	fa02 f303 	lsl.w	r3, r2, r3
 8000e48:	43db      	mvns	r3, r3
 8000e4a:	69ba      	ldr	r2, [r7, #24]
 8000e4c:	4013      	ands	r3, r2
 8000e4e:	61bb      	str	r3, [r7, #24]
        temp |= (((GPIO_Init->Mode & GPIO_OUTPUT_TYPE) >> 4U) << position);
 8000e50:	683b      	ldr	r3, [r7, #0]
 8000e52:	685b      	ldr	r3, [r3, #4]
 8000e54:	091b      	lsrs	r3, r3, #4
 8000e56:	f003 0201 	and.w	r2, r3, #1
 8000e5a:	69fb      	ldr	r3, [r7, #28]
 8000e5c:	fa02 f303 	lsl.w	r3, r2, r3
 8000e60:	69ba      	ldr	r2, [r7, #24]
 8000e62:	4313      	orrs	r3, r2
 8000e64:	61bb      	str	r3, [r7, #24]
        GPIOx->OTYPER = temp;
 8000e66:	687b      	ldr	r3, [r7, #4]
 8000e68:	69ba      	ldr	r2, [r7, #24]
 8000e6a:	605a      	str	r2, [r3, #4]
       }

      if((GPIO_Init->Mode & GPIO_MODE) != MODE_ANALOG)
 8000e6c:	683b      	ldr	r3, [r7, #0]
 8000e6e:	685b      	ldr	r3, [r3, #4]
 8000e70:	f003 0303 	and.w	r3, r3, #3
 8000e74:	2b03      	cmp	r3, #3
 8000e76:	d017      	beq.n	8000ea8 <HAL_GPIO_Init+0xf0>
      {
        /* Activate the Pull-up or Pull down resistor for the current IO */
        temp = GPIOx->PUPDR;
 8000e78:	687b      	ldr	r3, [r7, #4]
 8000e7a:	68db      	ldr	r3, [r3, #12]
 8000e7c:	61bb      	str	r3, [r7, #24]
        temp &= ~(GPIO_PUPDR_PUPDR0 << (position * 2U));
 8000e7e:	69fb      	ldr	r3, [r7, #28]
 8000e80:	005b      	lsls	r3, r3, #1
 8000e82:	2203      	movs	r2, #3
 8000e84:	fa02 f303 	lsl.w	r3, r2, r3
 8000e88:	43db      	mvns	r3, r3
 8000e8a:	69ba      	ldr	r2, [r7, #24]
 8000e8c:	4013      	ands	r3, r2
 8000e8e:	61bb      	str	r3, [r7, #24]
        temp |= ((GPIO_Init->Pull) << (position * 2U));
 8000e90:	683b      	ldr	r3, [r7, #0]
 8000e92:	689a      	ldr	r2, [r3, #8]
 8000e94:	69fb      	ldr	r3, [r7, #28]
 8000e96:	005b      	lsls	r3, r3, #1
 8000e98:	fa02 f303 	lsl.w	r3, r2, r3
 8000e9c:	69ba      	ldr	r2, [r7, #24]
 8000e9e:	4313      	orrs	r3, r2
 8000ea0:	61bb      	str	r3, [r7, #24]
        GPIOx->PUPDR = temp;
 8000ea2:	687b      	ldr	r3, [r7, #4]
 8000ea4:	69ba      	ldr	r2, [r7, #24]
 8000ea6:	60da      	str	r2, [r3, #12]
      }

      /* In case of Alternate function mode selection */
      if((GPIO_Init->Mode & GPIO_MODE) == MODE_AF)
 8000ea8:	683b      	ldr	r3, [r7, #0]
 8000eaa:	685b      	ldr	r3, [r3, #4]
 8000eac:	f003 0303 	and.w	r3, r3, #3
 8000eb0:	2b02      	cmp	r3, #2
 8000eb2:	d123      	bne.n	8000efc <HAL_GPIO_Init+0x144>
      {
        /* Check the Alternate function parameter */
        assert_param(IS_GPIO_AF(GPIO_Init->Alternate));
        /* Configure Alternate function mapped with the current IO */
        temp = GPIOx->AFR[position >> 3U];
 8000eb4:	69fb      	ldr	r3, [r7, #28]
 8000eb6:	08da      	lsrs	r2, r3, #3
 8000eb8:	687b      	ldr	r3, [r7, #4]
 8000eba:	3208      	adds	r2, #8
 8000ebc:	f853 3022 	ldr.w	r3, [r3, r2, lsl #2]
 8000ec0:	61bb      	str	r3, [r7, #24]
        temp &= ~(0xFU << ((uint32_t)(position & 0x07U) * 4U)) ;
 8000ec2:	69fb      	ldr	r3, [r7, #28]
 8000ec4:	f003 0307 	and.w	r3, r3, #7
 8000ec8:	009b      	lsls	r3, r3, #2
 8000eca:	220f      	movs	r2, #15
 8000ecc:	fa02 f303 	lsl.w	r3, r2, r3
 8000ed0:	43db      	mvns	r3, r3
 8000ed2:	69ba      	ldr	r2, [r7, #24]
 8000ed4:	4013      	ands	r3, r2
 8000ed6:	61bb      	str	r3, [r7, #24]
        temp |= ((uint32_t)(GPIO_Init->Alternate) << (((uint32_t)position & 0x07U) * 4U));
 8000ed8:	683b      	ldr	r3, [r7, #0]
 8000eda:	691a      	ldr	r2, [r3, #16]
 8000edc:	69fb      	ldr	r3, [r7, #28]
 8000ede:	f003 0307 	and.w	r3, r3, #7
 8000ee2:	009b      	lsls	r3, r3, #2
 8000ee4:	fa02 f303 	lsl.w	r3, r2, r3
 8000ee8:	69ba      	ldr	r2, [r7, #24]
 8000eea:	4313      	orrs	r3, r2
 8000eec:	61bb      	str	r3, [r7, #24]
        GPIOx->AFR[position >> 3U] = temp;
 8000eee:	69fb      	ldr	r3, [r7, #28]
 8000ef0:	08da      	lsrs	r2, r3, #3
 8000ef2:	687b      	ldr	r3, [r7, #4]
 8000ef4:	3208      	adds	r2, #8
 8000ef6:	69b9      	ldr	r1, [r7, #24]
 8000ef8:	f843 1022 	str.w	r1, [r3, r2, lsl #2]
      }

      /* Configure IO Direction mode (Input, Output, Alternate or Analog) */
      temp = GPIOx->MODER;
 8000efc:	687b      	ldr	r3, [r7, #4]
 8000efe:	681b      	ldr	r3, [r3, #0]
 8000f00:	61bb      	str	r3, [r7, #24]
      temp &= ~(GPIO_MODER_MODER0 << (position * 2U));
 8000f02:	69fb      	ldr	r3, [r7, #28]
 8000f04:	005b      	lsls	r3, r3, #1
 8000f06:	2203      	movs	r2, #3
 8000f08:	fa02 f303 	lsl.w	r3, r2, r3
 8000f0c:	43db      	mvns	r3, r3
 8000f0e:	69ba      	ldr	r2, [r7, #24]
 8000f10:	4013      	ands	r3, r2
 8000f12:	61bb      	str	r3, [r7, #24]
      temp |= ((GPIO_Init->Mode & GPIO_MODE) << (position * 2U));
 8000f14:	683b      	ldr	r3, [r7, #0]
 8000f16:	685b      	ldr	r3, [r3, #4]
 8000f18:	f003 0203 	and.w	r2, r3, #3
 8000f1c:	69fb      	ldr	r3, [r7, #28]
 8000f1e:	005b      	lsls	r3, r3, #1
 8000f20:	fa02 f303 	lsl.w	r3, r2, r3
 8000f24:	69ba      	ldr	r2, [r7, #24]
 8000f26:	4313      	orrs	r3, r2
 8000f28:	61bb      	str	r3, [r7, #24]
      GPIOx->MODER = temp;
 8000f2a:	687b      	ldr	r3, [r7, #4]
 8000f2c:	69ba      	ldr	r2, [r7, #24]
 8000f2e:	601a      	str	r2, [r3, #0]

      /*--------------------- EXTI Mode Configuration ------------------------*/
      /* Configure the External Interrupt or event for the current IO */
      if((GPIO_Init->Mode & EXTI_MODE) == EXTI_MODE)
 8000f30:	683b      	ldr	r3, [r7, #0]
 8000f32:	685b      	ldr	r3, [r3, #4]
 8000f34:	f003 5380 	and.w	r3, r3, #268435456	; 0x10000000
 8000f38:	2b00      	cmp	r3, #0
 8000f3a:	f000 80a2 	beq.w	8001082 <HAL_GPIO_Init+0x2ca>
      {
        /* Enable SYSCFG Clock */
        __HAL_RCC_SYSCFG_CLK_ENABLE();
 8000f3e:	2300      	movs	r3, #0
 8000f40:	60fb      	str	r3, [r7, #12]
 8000f42:	4b56      	ldr	r3, [pc, #344]	; (800109c <HAL_GPIO_Init+0x2e4>)
 8000f44:	6c5b      	ldr	r3, [r3, #68]	; 0x44
 8000f46:	4a55      	ldr	r2, [pc, #340]	; (800109c <HAL_GPIO_Init+0x2e4>)
 8000f48:	f443 4380 	orr.w	r3, r3, #16384	; 0x4000
 8000f4c:	6453      	str	r3, [r2, #68]	; 0x44
 8000f4e:	4b53      	ldr	r3, [pc, #332]	; (800109c <HAL_GPIO_Init+0x2e4>)
 8000f50:	6c5b      	ldr	r3, [r3, #68]	; 0x44
 8000f52:	f403 4380 	and.w	r3, r3, #16384	; 0x4000
 8000f56:	60fb      	str	r3, [r7, #12]
 8000f58:	68fb      	ldr	r3, [r7, #12]

        temp = SYSCFG->EXTICR[position >> 2U];
 8000f5a:	4a51      	ldr	r2, [pc, #324]	; (80010a0 <HAL_GPIO_Init+0x2e8>)
 8000f5c:	69fb      	ldr	r3, [r7, #28]
 8000f5e:	089b      	lsrs	r3, r3, #2
 8000f60:	3302      	adds	r3, #2
 8000f62:	f852 3023 	ldr.w	r3, [r2, r3, lsl #2]
 8000f66:	61bb      	str	r3, [r7, #24]
        temp &= ~(0x0FU << (4U * (position & 0x03U)));
 8000f68:	69fb      	ldr	r3, [r7, #28]
 8000f6a:	f003 0303 	and.w	r3, r3, #3
 8000f6e:	009b      	lsls	r3, r3, #2
 8000f70:	220f      	movs	r2, #15
 8000f72:	fa02 f303 	lsl.w	r3, r2, r3
 8000f76:	43db      	mvns	r3, r3
 8000f78:	69ba      	ldr	r2, [r7, #24]
 8000f7a:	4013      	ands	r3, r2
 8000f7c:	61bb      	str	r3, [r7, #24]
        temp |= ((uint32_t)(GPIO_GET_INDEX(GPIOx)) << (4U * (position & 0x03U)));
 8000f7e:	687b      	ldr	r3, [r7, #4]
 8000f80:	4a48      	ldr	r2, [pc, #288]	; (80010a4 <HAL_GPIO_Init+0x2ec>)
 8000f82:	4293      	cmp	r3, r2
 8000f84:	d019      	beq.n	8000fba <HAL_GPIO_Init+0x202>
 8000f86:	687b      	ldr	r3, [r7, #4]
 8000f88:	4a47      	ldr	r2, [pc, #284]	; (80010a8 <HAL_GPIO_Init+0x2f0>)
 8000f8a:	4293      	cmp	r3, r2
 8000f8c:	d013      	beq.n	8000fb6 <HAL_GPIO_Init+0x1fe>
 8000f8e:	687b      	ldr	r3, [r7, #4]
 8000f90:	4a46      	ldr	r2, [pc, #280]	; (80010ac <HAL_GPIO_Init+0x2f4>)
 8000f92:	4293      	cmp	r3, r2
 8000f94:	d00d      	beq.n	8000fb2 <HAL_GPIO_Init+0x1fa>
 8000f96:	687b      	ldr	r3, [r7, #4]
 8000f98:	4a45      	ldr	r2, [pc, #276]	; (80010b0 <HAL_GPIO_Init+0x2f8>)
 8000f9a:	4293      	cmp	r3, r2
 8000f9c:	d007      	beq.n	8000fae <HAL_GPIO_Init+0x1f6>
 8000f9e:	687b      	ldr	r3, [r7, #4]
 8000fa0:	4a44      	ldr	r2, [pc, #272]	; (80010b4 <HAL_GPIO_Init+0x2fc>)
 8000fa2:	4293      	cmp	r3, r2
 8000fa4:	d101      	bne.n	8000faa <HAL_GPIO_Init+0x1f2>
 8000fa6:	2304      	movs	r3, #4
 8000fa8:	e008      	b.n	8000fbc <HAL_GPIO_Init+0x204>
 8000faa:	2307      	movs	r3, #7
 8000fac:	e006      	b.n	8000fbc <HAL_GPIO_Init+0x204>
 8000fae:	2303      	movs	r3, #3
 8000fb0:	e004      	b.n	8000fbc <HAL_GPIO_Init+0x204>
 8000fb2:	2302      	movs	r3, #2
 8000fb4:	e002      	b.n	8000fbc <HAL_GPIO_Init+0x204>
 8000fb6:	2301      	movs	r3, #1
 8000fb8:	e000      	b.n	8000fbc <HAL_GPIO_Init+0x204>
 8000fba:	2300      	movs	r3, #0
 8000fbc:	69fa      	ldr	r2, [r7, #28]
 8000fbe:	f002 0203 	and.w	r2, r2, #3
 8000fc2:	0092      	lsls	r2, r2, #2
 8000fc4:	4093      	lsls	r3, r2
 8000fc6:	69ba      	ldr	r2, [r7, #24]
 8000fc8:	4313      	orrs	r3, r2
 8000fca:	61bb      	str	r3, [r7, #24]
        SYSCFG->EXTICR[position >> 2U] = temp;
 8000fcc:	4934      	ldr	r1, [pc, #208]	; (80010a0 <HAL_GPIO_Init+0x2e8>)
 8000fce:	69fb      	ldr	r3, [r7, #28]
 8000fd0:	089b      	lsrs	r3, r3, #2
 8000fd2:	3302      	adds	r3, #2
 8000fd4:	69ba      	ldr	r2, [r7, #24]
 8000fd6:	f841 2023 	str.w	r2, [r1, r3, lsl #2]

        /* Clear EXTI line configuration */
        temp = EXTI->IMR;
 8000fda:	4b37      	ldr	r3, [pc, #220]	; (80010b8 <HAL_GPIO_Init+0x300>)
 8000fdc:	681b      	ldr	r3, [r3, #0]
 8000fde:	61bb      	str	r3, [r7, #24]
        temp &= ~((uint32_t)iocurrent);
 8000fe0:	693b      	ldr	r3, [r7, #16]
 8000fe2:	43db      	mvns	r3, r3
 8000fe4:	69ba      	ldr	r2, [r7, #24]
 8000fe6:	4013      	ands	r3, r2
 8000fe8:	61bb      	str	r3, [r7, #24]
        if((GPIO_Init->Mode & GPIO_MODE_IT) == GPIO_MODE_IT)
 8000fea:	683b      	ldr	r3, [r7, #0]
 8000fec:	685b      	ldr	r3, [r3, #4]
 8000fee:	f403 3380 	and.w	r3, r3, #65536	; 0x10000
 8000ff2:	2b00      	cmp	r3, #0
 8000ff4:	d003      	beq.n	8000ffe <HAL_GPIO_Init+0x246>
        {
          temp |= iocurrent;
 8000ff6:	69ba      	ldr	r2, [r7, #24]
 8000ff8:	693b      	ldr	r3, [r7, #16]
 8000ffa:	4313      	orrs	r3, r2
 8000ffc:	61bb      	str	r3, [r7, #24]
        }
        EXTI->IMR = temp;
 8000ffe:	4a2e      	ldr	r2, [pc, #184]	; (80010b8 <HAL_GPIO_Init+0x300>)
 8001000:	69bb      	ldr	r3, [r7, #24]
 8001002:	6013      	str	r3, [r2, #0]

        temp = EXTI->EMR;
 8001004:	4b2c      	ldr	r3, [pc, #176]	; (80010b8 <HAL_GPIO_Init+0x300>)
 8001006:	685b      	ldr	r3, [r3, #4]
 8001008:	61bb      	str	r3, [r7, #24]
        temp &= ~((uint32_t)iocurrent);
 800100a:	693b      	ldr	r3, [r7, #16]
 800100c:	43db      	mvns	r3, r3
 800100e:	69ba      	ldr	r2, [r7, #24]
 8001010:	4013      	ands	r3, r2
 8001012:	61bb      	str	r3, [r7, #24]
        if((GPIO_Init->Mode & GPIO_MODE_EVT) == GPIO_MODE_EVT)
 8001014:	683b      	ldr	r3, [r7, #0]
 8001016:	685b      	ldr	r3, [r3, #4]
 8001018:	f403 3300 	and.w	r3, r3, #131072	; 0x20000
 800101c:	2b00      	cmp	r3, #0
 800101e:	d003      	beq.n	8001028 <HAL_GPIO_Init+0x270>
        {
          temp |= iocurrent;
 8001020:	69ba      	ldr	r2, [r7, #24]
 8001022:	693b      	ldr	r3, [r7, #16]
 8001024:	4313      	orrs	r3, r2
 8001026:	61bb      	str	r3, [r7, #24]
        }
        EXTI->EMR = temp;
 8001028:	4a23      	ldr	r2, [pc, #140]	; (80010b8 <HAL_GPIO_Init+0x300>)
 800102a:	69bb      	ldr	r3, [r7, #24]
 800102c:	6053      	str	r3, [r2, #4]

        /* Clear Rising Falling edge configuration */
        temp = EXTI->RTSR;
 800102e:	4b22      	ldr	r3, [pc, #136]	; (80010b8 <HAL_GPIO_Init+0x300>)
 8001030:	689b      	ldr	r3, [r3, #8]
 8001032:	61bb      	str	r3, [r7, #24]
        temp &= ~((uint32_t)iocurrent);
 8001034:	693b      	ldr	r3, [r7, #16]
 8001036:	43db      	mvns	r3, r3
 8001038:	69ba      	ldr	r2, [r7, #24]
 800103a:	4013      	ands	r3, r2
 800103c:	61bb      	str	r3, [r7, #24]
        if((GPIO_Init->Mode & RISING_EDGE) == RISING_EDGE)
 800103e:	683b      	ldr	r3, [r7, #0]
 8001040:	685b      	ldr	r3, [r3, #4]
 8001042:	f403 1380 	and.w	r3, r3, #1048576	; 0x100000
 8001046:	2b00      	cmp	r3, #0
 8001048:	d003      	beq.n	8001052 <HAL_GPIO_Init+0x29a>
        {
          temp |= iocurrent;
 800104a:	69ba      	ldr	r2, [r7, #24]
 800104c:	693b      	ldr	r3, [r7, #16]
 800104e:	4313      	orrs	r3, r2
 8001050:	61bb      	str	r3, [r7, #24]
        }
        EXTI->RTSR = temp;
 8001052:	4a19      	ldr	r2, [pc, #100]	; (80010b8 <HAL_GPIO_Init+0x300>)
 8001054:	69bb      	ldr	r3, [r7, #24]
 8001056:	6093      	str	r3, [r2, #8]

        temp = EXTI->FTSR;
 8001058:	4b17      	ldr	r3, [pc, #92]	; (80010b8 <HAL_GPIO_Init+0x300>)
 800105a:	68db      	ldr	r3, [r3, #12]
 800105c:	61bb      	str	r3, [r7, #24]
        temp &= ~((uint32_t)iocurrent);
 800105e:	693b      	ldr	r3, [r7, #16]
 8001060:	43db      	mvns	r3, r3
 8001062:	69ba      	ldr	r2, [r7, #24]
 8001064:	4013      	ands	r3, r2
 8001066:	61bb      	str	r3, [r7, #24]
        if((GPIO_Init->Mode & FALLING_EDGE) == FALLING_EDGE)
 8001068:	683b      	ldr	r3, [r7, #0]
 800106a:	685b      	ldr	r3, [r3, #4]
 800106c:	f403 1300 	and.w	r3, r3, #2097152	; 0x200000
 8001070:	2b00      	cmp	r3, #0
 8001072:	d003      	beq.n	800107c <HAL_GPIO_Init+0x2c4>
        {
          temp |= iocurrent;
 8001074:	69ba      	ldr	r2, [r7, #24]
 8001076:	693b      	ldr	r3, [r7, #16]
 8001078:	4313      	orrs	r3, r2
 800107a:	61bb      	str	r3, [r7, #24]
        }
        EXTI->FTSR = temp;
 800107c:	4a0e      	ldr	r2, [pc, #56]	; (80010b8 <HAL_GPIO_Init+0x300>)
 800107e:	69bb      	ldr	r3, [r7, #24]
 8001080:	60d3      	str	r3, [r2, #12]
  for(position = 0U; position < GPIO_NUMBER; position++)
 8001082:	69fb      	ldr	r3, [r7, #28]
 8001084:	3301      	adds	r3, #1
 8001086:	61fb      	str	r3, [r7, #28]
 8001088:	69fb      	ldr	r3, [r7, #28]
 800108a:	2b0f      	cmp	r3, #15
 800108c:	f67f aea2 	bls.w	8000dd4 <HAL_GPIO_Init+0x1c>
      }
    }
  }
}
 8001090:	bf00      	nop
 8001092:	3724      	adds	r7, #36	; 0x24
 8001094:	46bd      	mov	sp, r7
 8001096:	f85d 7b04 	ldr.w	r7, [sp], #4
 800109a:	4770      	bx	lr
 800109c:	40023800 	andmi	r3, r2, r0, lsl #16
 80010a0:	40013800 	andmi	r3, r1, r0, lsl #16
 80010a4:	40020000 	andmi	r0, r2, r0
 80010a8:	40020400 	andmi	r0, r2, r0, lsl #8
 80010ac:	40020800 	andmi	r0, r2, r0, lsl #16
 80010b0:	40020c00 	andmi	r0, r2, r0, lsl #24
 80010b4:	40021000 	andmi	r1, r2, r0
 80010b8:	40013c00 	andmi	r3, r1, r0, lsl #24

080010bc <HAL_GPIO_WritePin>:
  *            @arg GPIO_PIN_RESET: to clear the port pin
  *            @arg GPIO_PIN_SET: to set the port pin
  * @retval None
  */
void HAL_GPIO_WritePin(GPIO_TypeDef* GPIOx, uint16_t GPIO_Pin, GPIO_PinState PinState)
{
 80010bc:	b480      	push	{r7}
 80010be:	b083      	sub	sp, #12
 80010c0:	af00      	add	r7, sp, #0
 80010c2:	6078      	str	r0, [r7, #4]
 80010c4:	460b      	mov	r3, r1
 80010c6:	807b      	strh	r3, [r7, #2]
 80010c8:	4613      	mov	r3, r2
 80010ca:	707b      	strb	r3, [r7, #1]
  /* Check the parameters */
  assert_param(IS_GPIO_PIN(GPIO_Pin));
  assert_param(IS_GPIO_PIN_ACTION(PinState));

  if(PinState != GPIO_PIN_RESET)
 80010cc:	787b      	ldrb	r3, [r7, #1]
 80010ce:	2b00      	cmp	r3, #0
 80010d0:	d003      	beq.n	80010da <HAL_GPIO_WritePin+0x1e>
  {
    GPIOx->BSRR = GPIO_Pin;
 80010d2:	887a      	ldrh	r2, [r7, #2]
 80010d4:	687b      	ldr	r3, [r7, #4]
 80010d6:	619a      	str	r2, [r3, #24]
  }
  else
  {
    GPIOx->BSRR = (uint32_t)GPIO_Pin << 16U;
  }
}
 80010d8:	e003      	b.n	80010e2 <HAL_GPIO_WritePin+0x26>
    GPIOx->BSRR = (uint32_t)GPIO_Pin << 16U;
 80010da:	887b      	ldrh	r3, [r7, #2]
 80010dc:	041a      	lsls	r2, r3, #16
 80010de:	687b      	ldr	r3, [r7, #4]
 80010e0:	619a      	str	r2, [r3, #24]
}
 80010e2:	bf00      	nop
 80010e4:	370c      	adds	r7, #12
 80010e6:	46bd      	mov	sp, r7
 80010e8:	f85d 7b04 	ldr.w	r7, [sp], #4
 80010ec:	4770      	bx	lr

080010ee <HAL_UART_Init>:
  * @param  huart  Pointer to a UART_HandleTypeDef structure that contains
  *                the configuration information for the specified UART module.
  * @retval HAL status
  */
HAL_StatusTypeDef HAL_UART_Init(UART_HandleTypeDef *huart)
{
 80010ee:	b580      	push	{r7, lr}
 80010f0:	b082      	sub	sp, #8
 80010f2:	af00      	add	r7, sp, #0
 80010f4:	6078      	str	r0, [r7, #4]
  /* Check the UART handle allocation */
  if (huart == NULL)
 80010f6:	687b      	ldr	r3, [r7, #4]
 80010f8:	2b00      	cmp	r3, #0
 80010fa:	d101      	bne.n	8001100 <HAL_UART_Init+0x12>
  {
    return HAL_ERROR;
 80010fc:	2301      	movs	r3, #1
 80010fe:	e03f      	b.n	8001180 <HAL_UART_Init+0x92>
    assert_param(IS_UART_INSTANCE(huart->Instance));
  }
  assert_param(IS_UART_WORD_LENGTH(huart->Init.WordLength));
  assert_param(IS_UART_OVERSAMPLING(huart->Init.OverSampling));

  if (huart->gState == HAL_UART_STATE_RESET)
 8001100:	687b      	ldr	r3, [r7, #4]
 8001102:	f893 303d 	ldrb.w	r3, [r3, #61]	; 0x3d
 8001106:	b2db      	uxtb	r3, r3
 8001108:	2b00      	cmp	r3, #0
 800110a:	d106      	bne.n	800111a <HAL_UART_Init+0x2c>
  {
    /* Allocate lock resource and initialize it */
    huart->Lock = HAL_UNLOCKED;
 800110c:	687b      	ldr	r3, [r7, #4]
 800110e:	2200      	movs	r2, #0
 8001110:	f883 203c 	strb.w	r2, [r3, #60]	; 0x3c

    /* Init the low level hardware */
    huart->MspInitCallback(huart);
#else
    /* Init the low level hardware : GPIO, CLOCK */
    HAL_UART_MspInit(huart);
 8001114:	6878      	ldr	r0, [r7, #4]
 8001116:	f002 f8af 	bl	8003278 <HAL_UART_MspInit>
#endif /* (USE_HAL_UART_REGISTER_CALLBACKS) */
  }

  huart->gState = HAL_UART_STATE_BUSY;
 800111a:	687b      	ldr	r3, [r7, #4]
 800111c:	2224      	movs	r2, #36	; 0x24
 800111e:	f883 203d 	strb.w	r2, [r3, #61]	; 0x3d

  /* Disable the peripheral */
  __HAL_UART_DISABLE(huart);
 8001122:	687b      	ldr	r3, [r7, #4]
 8001124:	681b      	ldr	r3, [r3, #0]
 8001126:	68da      	ldr	r2, [r3, #12]
 8001128:	687b      	ldr	r3, [r7, #4]
 800112a:	681b      	ldr	r3, [r3, #0]
 800112c:	f422 5200 	bic.w	r2, r2, #8192	; 0x2000
 8001130:	60da      	str	r2, [r3, #12]

  /* Set the UART Communication parameters */
  UART_SetConfig(huart);
 8001132:	6878      	ldr	r0, [r7, #4]
 8001134:	f000 f904 	bl	8001340 <UART_SetConfig>

  /* In asynchronous mode, the following bits must be kept cleared:
     - LINEN and CLKEN bits in the USART_CR2 register,
     - SCEN, HDSEL and IREN  bits in the USART_CR3 register.*/
  CLEAR_BIT(huart->Instance->CR2, (USART_CR2_LINEN | USART_CR2_CLKEN));
 8001138:	687b      	ldr	r3, [r7, #4]
 800113a:	681b      	ldr	r3, [r3, #0]
 800113c:	691a      	ldr	r2, [r3, #16]
 800113e:	687b      	ldr	r3, [r7, #4]
 8001140:	681b      	ldr	r3, [r3, #0]
 8001142:	f422 4290 	bic.w	r2, r2, #18432	; 0x4800
 8001146:	611a      	str	r2, [r3, #16]
  CLEAR_BIT(huart->Instance->CR3, (USART_CR3_SCEN | USART_CR3_HDSEL | USART_CR3_IREN));
 8001148:	687b      	ldr	r3, [r7, #4]
 800114a:	681b      	ldr	r3, [r3, #0]
 800114c:	695a      	ldr	r2, [r3, #20]
 800114e:	687b      	ldr	r3, [r7, #4]
 8001150:	681b      	ldr	r3, [r3, #0]
 8001152:	f022 022a 	bic.w	r2, r2, #42	; 0x2a
 8001156:	615a      	str	r2, [r3, #20]

  /* Enable the peripheral */
  __HAL_UART_ENABLE(huart);
 8001158:	687b      	ldr	r3, [r7, #4]
 800115a:	681b      	ldr	r3, [r3, #0]
 800115c:	68da      	ldr	r2, [r3, #12]
 800115e:	687b      	ldr	r3, [r7, #4]
 8001160:	681b      	ldr	r3, [r3, #0]
 8001162:	f442 5200 	orr.w	r2, r2, #8192	; 0x2000
 8001166:	60da      	str	r2, [r3, #12]

  /* Initialize the UART state */
  huart->ErrorCode = HAL_UART_ERROR_NONE;
 8001168:	687b      	ldr	r3, [r7, #4]
 800116a:	2200      	movs	r2, #0
 800116c:	641a      	str	r2, [r3, #64]	; 0x40
  huart->gState = HAL_UART_STATE_READY;
 800116e:	687b      	ldr	r3, [r7, #4]
 8001170:	2220      	movs	r2, #32
 8001172:	f883 203d 	strb.w	r2, [r3, #61]	; 0x3d
  huart->RxState = HAL_UART_STATE_READY;
 8001176:	687b      	ldr	r3, [r7, #4]
 8001178:	2220      	movs	r2, #32
 800117a:	f883 203e 	strb.w	r2, [r3, #62]	; 0x3e

  return HAL_OK;
 800117e:	2300      	movs	r3, #0
}
 8001180:	4618      	mov	r0, r3
 8001182:	3708      	adds	r7, #8
 8001184:	46bd      	mov	sp, r7
 8001186:	bd80      	pop	{r7, pc}

08001188 <HAL_UART_Transmit>:
  * @param  Size  Amount of data elements (u8 or u16) to be sent
  * @param  Timeout Timeout duration
  * @retval HAL status
  */
HAL_StatusTypeDef HAL_UART_Transmit(UART_HandleTypeDef *huart, uint8_t *pData, uint16_t Size, uint32_t Timeout)
{
 8001188:	b580      	push	{r7, lr}
 800118a:	b08a      	sub	sp, #40	; 0x28
 800118c:	af02      	add	r7, sp, #8
 800118e:	60f8      	str	r0, [r7, #12]
 8001190:	60b9      	str	r1, [r7, #8]
 8001192:	603b      	str	r3, [r7, #0]
 8001194:	4613      	mov	r3, r2
 8001196:	80fb      	strh	r3, [r7, #6]
  uint8_t  *pdata8bits;
  uint16_t *pdata16bits;
  uint32_t tickstart = 0U;
 8001198:	2300      	movs	r3, #0
 800119a:	617b      	str	r3, [r7, #20]

  /* Check that a Tx process is not already ongoing */
  if (huart->gState == HAL_UART_STATE_READY)
 800119c:	68fb      	ldr	r3, [r7, #12]
 800119e:	f893 303d 	ldrb.w	r3, [r3, #61]	; 0x3d
 80011a2:	b2db      	uxtb	r3, r3
 80011a4:	2b20      	cmp	r3, #32
 80011a6:	d17c      	bne.n	80012a2 <HAL_UART_Transmit+0x11a>
  {
    if ((pData == NULL) || (Size == 0U))
 80011a8:	68bb      	ldr	r3, [r7, #8]
 80011aa:	2b00      	cmp	r3, #0
 80011ac:	d002      	beq.n	80011b4 <HAL_UART_Transmit+0x2c>
 80011ae:	88fb      	ldrh	r3, [r7, #6]
 80011b0:	2b00      	cmp	r3, #0
 80011b2:	d101      	bne.n	80011b8 <HAL_UART_Transmit+0x30>
    {
      return  HAL_ERROR;
 80011b4:	2301      	movs	r3, #1
 80011b6:	e075      	b.n	80012a4 <HAL_UART_Transmit+0x11c>
    }

    /* Process Locked */
    __HAL_LOCK(huart);
 80011b8:	68fb      	ldr	r3, [r7, #12]
 80011ba:	f893 303c 	ldrb.w	r3, [r3, #60]	; 0x3c
 80011be:	2b01      	cmp	r3, #1
 80011c0:	d101      	bne.n	80011c6 <HAL_UART_Transmit+0x3e>
 80011c2:	2302      	movs	r3, #2
 80011c4:	e06e      	b.n	80012a4 <HAL_UART_Transmit+0x11c>
 80011c6:	68fb      	ldr	r3, [r7, #12]
 80011c8:	2201      	movs	r2, #1
 80011ca:	f883 203c 	strb.w	r2, [r3, #60]	; 0x3c

    huart->ErrorCode = HAL_UART_ERROR_NONE;
 80011ce:	68fb      	ldr	r3, [r7, #12]
 80011d0:	2200      	movs	r2, #0
 80011d2:	641a      	str	r2, [r3, #64]	; 0x40
    huart->gState = HAL_UART_STATE_BUSY_TX;
 80011d4:	68fb      	ldr	r3, [r7, #12]
 80011d6:	2221      	movs	r2, #33	; 0x21
 80011d8:	f883 203d 	strb.w	r2, [r3, #61]	; 0x3d

    /* Init tickstart for timeout management */
    tickstart = HAL_GetTick();
 80011dc:	f7ff f884 	bl	80002e8 <HAL_GetTick>
 80011e0:	6178      	str	r0, [r7, #20]

    huart->TxXferSize = Size;
 80011e2:	68fb      	ldr	r3, [r7, #12]
 80011e4:	88fa      	ldrh	r2, [r7, #6]
 80011e6:	849a      	strh	r2, [r3, #36]	; 0x24
    huart->TxXferCount = Size;
 80011e8:	68fb      	ldr	r3, [r7, #12]
 80011ea:	88fa      	ldrh	r2, [r7, #6]
 80011ec:	84da      	strh	r2, [r3, #38]	; 0x26

    /* In case of 9bits/No Parity transfer, pData needs to be handled as a uint16_t pointer */
    if ((huart->Init.WordLength == UART_WORDLENGTH_9B) && (huart->Init.Parity == UART_PARITY_NONE))
 80011ee:	68fb      	ldr	r3, [r7, #12]
 80011f0:	689b      	ldr	r3, [r3, #8]
 80011f2:	f5b3 5f80 	cmp.w	r3, #4096	; 0x1000
 80011f6:	d108      	bne.n	800120a <HAL_UART_Transmit+0x82>
 80011f8:	68fb      	ldr	r3, [r7, #12]
 80011fa:	691b      	ldr	r3, [r3, #16]
 80011fc:	2b00      	cmp	r3, #0
 80011fe:	d104      	bne.n	800120a <HAL_UART_Transmit+0x82>
    {
      pdata8bits  = NULL;
 8001200:	2300      	movs	r3, #0
 8001202:	61fb      	str	r3, [r7, #28]
      pdata16bits = (uint16_t *) pData;
 8001204:	68bb      	ldr	r3, [r7, #8]
 8001206:	61bb      	str	r3, [r7, #24]
 8001208:	e003      	b.n	8001212 <HAL_UART_Transmit+0x8a>
    }
    else
    {
      pdata8bits  = pData;
 800120a:	68bb      	ldr	r3, [r7, #8]
 800120c:	61fb      	str	r3, [r7, #28]
      pdata16bits = NULL;
 800120e:	2300      	movs	r3, #0
 8001210:	61bb      	str	r3, [r7, #24]
    }

    /* Process Unlocked */
    __HAL_UNLOCK(huart);
 8001212:	68fb      	ldr	r3, [r7, #12]
 8001214:	2200      	movs	r2, #0
 8001216:	f883 203c 	strb.w	r2, [r3, #60]	; 0x3c

    while (huart->TxXferCount > 0U)
 800121a:	e02a      	b.n	8001272 <HAL_UART_Transmit+0xea>
    {
      if (UART_WaitOnFlagUntilTimeout(huart, UART_FLAG_TXE, RESET, tickstart, Timeout) != HAL_OK)
 800121c:	683b      	ldr	r3, [r7, #0]
 800121e:	9300      	str	r3, [sp, #0]
 8001220:	697b      	ldr	r3, [r7, #20]
 8001222:	2200      	movs	r2, #0
 8001224:	2180      	movs	r1, #128	; 0x80
 8001226:	68f8      	ldr	r0, [r7, #12]
 8001228:	f000 f840 	bl	80012ac <UART_WaitOnFlagUntilTimeout>
 800122c:	4603      	mov	r3, r0
 800122e:	2b00      	cmp	r3, #0
 8001230:	d001      	beq.n	8001236 <HAL_UART_Transmit+0xae>
      {
        return HAL_TIMEOUT;
 8001232:	2303      	movs	r3, #3
 8001234:	e036      	b.n	80012a4 <HAL_UART_Transmit+0x11c>
      }
      if (pdata8bits == NULL)
 8001236:	69fb      	ldr	r3, [r7, #28]
 8001238:	2b00      	cmp	r3, #0
 800123a:	d10b      	bne.n	8001254 <HAL_UART_Transmit+0xcc>
      {
        huart->Instance->DR = (uint16_t)(*pdata16bits & 0x01FFU);
 800123c:	69bb      	ldr	r3, [r7, #24]
 800123e:	881b      	ldrh	r3, [r3, #0]
 8001240:	461a      	mov	r2, r3
 8001242:	68fb      	ldr	r3, [r7, #12]
 8001244:	681b      	ldr	r3, [r3, #0]
 8001246:	f3c2 0208 	ubfx	r2, r2, #0, #9
 800124a:	605a      	str	r2, [r3, #4]
        pdata16bits++;
 800124c:	69bb      	ldr	r3, [r7, #24]
 800124e:	3302      	adds	r3, #2
 8001250:	61bb      	str	r3, [r7, #24]
 8001252:	e007      	b.n	8001264 <HAL_UART_Transmit+0xdc>
      }
      else
      {
        huart->Instance->DR = (uint8_t)(*pdata8bits & 0xFFU);
 8001254:	69fb      	ldr	r3, [r7, #28]
 8001256:	781a      	ldrb	r2, [r3, #0]
 8001258:	68fb      	ldr	r3, [r7, #12]
 800125a:	681b      	ldr	r3, [r3, #0]
 800125c:	605a      	str	r2, [r3, #4]
        pdata8bits++;
 800125e:	69fb      	ldr	r3, [r7, #28]
 8001260:	3301      	adds	r3, #1
 8001262:	61fb      	str	r3, [r7, #28]
      }
      huart->TxXferCount--;
 8001264:	68fb      	ldr	r3, [r7, #12]
 8001266:	8cdb      	ldrh	r3, [r3, #38]	; 0x26
 8001268:	b29b      	uxth	r3, r3
 800126a:	3b01      	subs	r3, #1
 800126c:	b29a      	uxth	r2, r3
 800126e:	68fb      	ldr	r3, [r7, #12]
 8001270:	84da      	strh	r2, [r3, #38]	; 0x26
    while (huart->TxXferCount > 0U)
 8001272:	68fb      	ldr	r3, [r7, #12]
 8001274:	8cdb      	ldrh	r3, [r3, #38]	; 0x26
 8001276:	b29b      	uxth	r3, r3
 8001278:	2b00      	cmp	r3, #0
 800127a:	d1cf      	bne.n	800121c <HAL_UART_Transmit+0x94>
    }

    if (UART_WaitOnFlagUntilTimeout(huart, UART_FLAG_TC, RESET, tickstart, Timeout) != HAL_OK)
 800127c:	683b      	ldr	r3, [r7, #0]
 800127e:	9300      	str	r3, [sp, #0]
 8001280:	697b      	ldr	r3, [r7, #20]
 8001282:	2200      	movs	r2, #0
 8001284:	2140      	movs	r1, #64	; 0x40
 8001286:	68f8      	ldr	r0, [r7, #12]
 8001288:	f000 f810 	bl	80012ac <UART_WaitOnFlagUntilTimeout>
 800128c:	4603      	mov	r3, r0
 800128e:	2b00      	cmp	r3, #0
 8001290:	d001      	beq.n	8001296 <HAL_UART_Transmit+0x10e>
    {
      return HAL_TIMEOUT;
 8001292:	2303      	movs	r3, #3
 8001294:	e006      	b.n	80012a4 <HAL_UART_Transmit+0x11c>
    }

    /* At end of Tx process, restore huart->gState to Ready */
    huart->gState = HAL_UART_STATE_READY;
 8001296:	68fb      	ldr	r3, [r7, #12]
 8001298:	2220      	movs	r2, #32
 800129a:	f883 203d 	strb.w	r2, [r3, #61]	; 0x3d

    return HAL_OK;
 800129e:	2300      	movs	r3, #0
 80012a0:	e000      	b.n	80012a4 <HAL_UART_Transmit+0x11c>
  }
  else
  {
    return HAL_BUSY;
 80012a2:	2302      	movs	r3, #2
  }
}
 80012a4:	4618      	mov	r0, r3
 80012a6:	3720      	adds	r7, #32
 80012a8:	46bd      	mov	sp, r7
 80012aa:	bd80      	pop	{r7, pc}

080012ac <UART_WaitOnFlagUntilTimeout>:
  * @param  Tickstart Tick start value
  * @param  Timeout Timeout duration
  * @retval HAL status
  */
static HAL_StatusTypeDef UART_WaitOnFlagUntilTimeout(UART_HandleTypeDef *huart, uint32_t Flag, FlagStatus Status, uint32_t Tickstart, uint32_t Timeout)
{
 80012ac:	b580      	push	{r7, lr}
 80012ae:	b084      	sub	sp, #16
 80012b0:	af00      	add	r7, sp, #0
 80012b2:	60f8      	str	r0, [r7, #12]
 80012b4:	60b9      	str	r1, [r7, #8]
 80012b6:	603b      	str	r3, [r7, #0]
 80012b8:	4613      	mov	r3, r2
 80012ba:	71fb      	strb	r3, [r7, #7]
  /* Wait until flag is set */
  while ((__HAL_UART_GET_FLAG(huart, Flag) ? SET : RESET) == Status)
 80012bc:	e02c      	b.n	8001318 <UART_WaitOnFlagUntilTimeout+0x6c>
  {
    /* Check for the Timeout */
    if (Timeout != HAL_MAX_DELAY)
 80012be:	69bb      	ldr	r3, [r7, #24]
 80012c0:	f1b3 3fff 	cmp.w	r3, #4294967295	; 0xffffffff
 80012c4:	d028      	beq.n	8001318 <UART_WaitOnFlagUntilTimeout+0x6c>
    {
      if ((Timeout == 0U) || ((HAL_GetTick() - Tickstart) > Timeout))
 80012c6:	69bb      	ldr	r3, [r7, #24]
 80012c8:	2b00      	cmp	r3, #0
 80012ca:	d007      	beq.n	80012dc <UART_WaitOnFlagUntilTimeout+0x30>
 80012cc:	f7ff f80c 	bl	80002e8 <HAL_GetTick>
 80012d0:	4602      	mov	r2, r0
 80012d2:	683b      	ldr	r3, [r7, #0]
 80012d4:	1ad3      	subs	r3, r2, r3
 80012d6:	69ba      	ldr	r2, [r7, #24]
 80012d8:	429a      	cmp	r2, r3
 80012da:	d21d      	bcs.n	8001318 <UART_WaitOnFlagUntilTimeout+0x6c>
      {
        /* Disable TXE, RXNE, PE and ERR (Frame error, noise error, overrun error) interrupts for the interrupt process */
        CLEAR_BIT(huart->Instance->CR1, (USART_CR1_RXNEIE | USART_CR1_PEIE | USART_CR1_TXEIE));
 80012dc:	68fb      	ldr	r3, [r7, #12]
 80012de:	681b      	ldr	r3, [r3, #0]
 80012e0:	68da      	ldr	r2, [r3, #12]
 80012e2:	68fb      	ldr	r3, [r7, #12]
 80012e4:	681b      	ldr	r3, [r3, #0]
 80012e6:	f422 72d0 	bic.w	r2, r2, #416	; 0x1a0
 80012ea:	60da      	str	r2, [r3, #12]
        CLEAR_BIT(huart->Instance->CR3, USART_CR3_EIE);
 80012ec:	68fb      	ldr	r3, [r7, #12]
 80012ee:	681b      	ldr	r3, [r3, #0]
 80012f0:	695a      	ldr	r2, [r3, #20]
 80012f2:	68fb      	ldr	r3, [r7, #12]
 80012f4:	681b      	ldr	r3, [r3, #0]
 80012f6:	f022 0201 	bic.w	r2, r2, #1
 80012fa:	615a      	str	r2, [r3, #20]

        huart->gState  = HAL_UART_STATE_READY;
 80012fc:	68fb      	ldr	r3, [r7, #12]
 80012fe:	2220      	movs	r2, #32
 8001300:	f883 203d 	strb.w	r2, [r3, #61]	; 0x3d
        huart->RxState = HAL_UART_STATE_READY;
 8001304:	68fb      	ldr	r3, [r7, #12]
 8001306:	2220      	movs	r2, #32
 8001308:	f883 203e 	strb.w	r2, [r3, #62]	; 0x3e

        /* Process Unlocked */
        __HAL_UNLOCK(huart);
 800130c:	68fb      	ldr	r3, [r7, #12]
 800130e:	2200      	movs	r2, #0
 8001310:	f883 203c 	strb.w	r2, [r3, #60]	; 0x3c

        return HAL_TIMEOUT;
 8001314:	2303      	movs	r3, #3
 8001316:	e00f      	b.n	8001338 <UART_WaitOnFlagUntilTimeout+0x8c>
  while ((__HAL_UART_GET_FLAG(huart, Flag) ? SET : RESET) == Status)
 8001318:	68fb      	ldr	r3, [r7, #12]
 800131a:	681b      	ldr	r3, [r3, #0]
 800131c:	681a      	ldr	r2, [r3, #0]
 800131e:	68bb      	ldr	r3, [r7, #8]
 8001320:	4013      	ands	r3, r2
 8001322:	68ba      	ldr	r2, [r7, #8]
 8001324:	429a      	cmp	r2, r3
 8001326:	bf0c      	ite	eq
 8001328:	2301      	moveq	r3, #1
 800132a:	2300      	movne	r3, #0
 800132c:	b2db      	uxtb	r3, r3
 800132e:	461a      	mov	r2, r3
 8001330:	79fb      	ldrb	r3, [r7, #7]
 8001332:	429a      	cmp	r2, r3
 8001334:	d0c3      	beq.n	80012be <UART_WaitOnFlagUntilTimeout+0x12>
      }
    }
  }
  return HAL_OK;
 8001336:	2300      	movs	r3, #0
}
 8001338:	4618      	mov	r0, r3
 800133a:	3710      	adds	r7, #16
 800133c:	46bd      	mov	sp, r7
 800133e:	bd80      	pop	{r7, pc}

08001340 <UART_SetConfig>:
  * @param  huart  Pointer to a UART_HandleTypeDef structure that contains
  *                the configuration information for the specified UART module.
  * @retval None
  */
static void UART_SetConfig(UART_HandleTypeDef *huart)
{
 8001340:	e92d 4ff0 	stmdb	sp!, {r4, r5, r6, r7, r8, r9, sl, fp, lr}
 8001344:	b09f      	sub	sp, #124	; 0x7c
 8001346:	af00      	add	r7, sp, #0
 8001348:	66f8      	str	r0, [r7, #108]	; 0x6c
  assert_param(IS_UART_MODE(huart->Init.Mode));

  /*-------------------------- USART CR2 Configuration -----------------------*/
  /* Configure the UART Stop Bits: Set STOP[13:12] bits
     according to huart->Init.StopBits value */
  MODIFY_REG(huart->Instance->CR2, USART_CR2_STOP, huart->Init.StopBits);
 800134a:	6efb      	ldr	r3, [r7, #108]	; 0x6c
 800134c:	681b      	ldr	r3, [r3, #0]
 800134e:	691b      	ldr	r3, [r3, #16]
 8001350:	f423 5040 	bic.w	r0, r3, #12288	; 0x3000
 8001354:	6efb      	ldr	r3, [r7, #108]	; 0x6c
 8001356:	68d9      	ldr	r1, [r3, #12]
 8001358:	6efb      	ldr	r3, [r7, #108]	; 0x6c
 800135a:	681a      	ldr	r2, [r3, #0]
 800135c:	ea40 0301 	orr.w	r3, r0, r1
 8001360:	6113      	str	r3, [r2, #16]
     Set the M bits according to huart->Init.WordLength value
     Set PCE and PS bits according to huart->Init.Parity value
     Set TE and RE bits according to huart->Init.Mode value
     Set OVER8 bit according to huart->Init.OverSampling value */

  tmpreg = (uint32_t)huart->Init.WordLength | huart->Init.Parity | huart->Init.Mode | huart->Init.OverSampling;
 8001362:	6efb      	ldr	r3, [r7, #108]	; 0x6c
 8001364:	689a      	ldr	r2, [r3, #8]
 8001366:	6efb      	ldr	r3, [r7, #108]	; 0x6c
 8001368:	691b      	ldr	r3, [r3, #16]
 800136a:	431a      	orrs	r2, r3
 800136c:	6efb      	ldr	r3, [r7, #108]	; 0x6c
 800136e:	695b      	ldr	r3, [r3, #20]
 8001370:	431a      	orrs	r2, r3
 8001372:	6efb      	ldr	r3, [r7, #108]	; 0x6c
 8001374:	69db      	ldr	r3, [r3, #28]
 8001376:	4313      	orrs	r3, r2
 8001378:	673b      	str	r3, [r7, #112]	; 0x70
  MODIFY_REG(huart->Instance->CR1,
 800137a:	6efb      	ldr	r3, [r7, #108]	; 0x6c
 800137c:	681b      	ldr	r3, [r3, #0]
 800137e:	68db      	ldr	r3, [r3, #12]
 8001380:	f423 4116 	bic.w	r1, r3, #38400	; 0x9600
 8001384:	f021 010c 	bic.w	r1, r1, #12
 8001388:	6efb      	ldr	r3, [r7, #108]	; 0x6c
 800138a:	681a      	ldr	r2, [r3, #0]
 800138c:	6f3b      	ldr	r3, [r7, #112]	; 0x70
 800138e:	430b      	orrs	r3, r1
 8001390:	60d3      	str	r3, [r2, #12]
             (uint32_t)(USART_CR1_M | USART_CR1_PCE | USART_CR1_PS | USART_CR1_TE | USART_CR1_RE | USART_CR1_OVER8),
             tmpreg);

  /*-------------------------- USART CR3 Configuration -----------------------*/
  /* Configure the UART HFC: Set CTSE and RTSE bits according to huart->Init.HwFlowCtl value */
  MODIFY_REG(huart->Instance->CR3, (USART_CR3_RTSE | USART_CR3_CTSE), huart->Init.HwFlowCtl);
 8001392:	6efb      	ldr	r3, [r7, #108]	; 0x6c
 8001394:	681b      	ldr	r3, [r3, #0]
 8001396:	695b      	ldr	r3, [r3, #20]
 8001398:	f423 7040 	bic.w	r0, r3, #768	; 0x300
 800139c:	6efb      	ldr	r3, [r7, #108]	; 0x6c
 800139e:	6999      	ldr	r1, [r3, #24]
 80013a0:	6efb      	ldr	r3, [r7, #108]	; 0x6c
 80013a2:	681a      	ldr	r2, [r3, #0]
 80013a4:	ea40 0301 	orr.w	r3, r0, r1
 80013a8:	6153      	str	r3, [r2, #20]
    if ((huart->Instance == USART1) || (huart->Instance == USART6) || (huart->Instance == UART9) || (huart->Instance == UART10))
    {
      pclk = HAL_RCC_GetPCLK2Freq();
    }
#elif defined(USART6)
    if ((huart->Instance == USART1) || (huart->Instance == USART6))
 80013aa:	6efb      	ldr	r3, [r7, #108]	; 0x6c
 80013ac:	681a      	ldr	r2, [r3, #0]
 80013ae:	4b6d      	ldr	r3, [pc, #436]	; (8001564 <UART_SetConfig+0x224>)
 80013b0:	429a      	cmp	r2, r3
 80013b2:	d004      	beq.n	80013be <UART_SetConfig+0x7e>
 80013b4:	6efb      	ldr	r3, [r7, #108]	; 0x6c
 80013b6:	681a      	ldr	r2, [r3, #0]
 80013b8:	4b6b      	ldr	r3, [pc, #428]	; (8001568 <UART_SetConfig+0x228>)
 80013ba:	429a      	cmp	r2, r3
 80013bc:	d103      	bne.n	80013c6 <UART_SetConfig+0x86>
    {
      pclk = HAL_RCC_GetPCLK2Freq();
 80013be:	f7ff fce7 	bl	8000d90 <HAL_RCC_GetPCLK2Freq>
 80013c2:	6778      	str	r0, [r7, #116]	; 0x74
 80013c4:	e002      	b.n	80013cc <UART_SetConfig+0x8c>
      pclk = HAL_RCC_GetPCLK2Freq();
    }
#endif /* USART6 */
    else
    {
      pclk = HAL_RCC_GetPCLK1Freq();
 80013c6:	f7ff fccf 	bl	8000d68 <HAL_RCC_GetPCLK1Freq>
 80013ca:	6778      	str	r0, [r7, #116]	; 0x74
    }
  /*-------------------------- USART BRR Configuration ---------------------*/
  if (huart->Init.OverSampling == UART_OVERSAMPLING_8)
 80013cc:	6efb      	ldr	r3, [r7, #108]	; 0x6c
 80013ce:	69db      	ldr	r3, [r3, #28]
 80013d0:	f5b3 4f00 	cmp.w	r3, #32768	; 0x8000
 80013d4:	f040 80cc 	bne.w	8001570 <UART_SetConfig+0x230>
  {
    huart->Instance->BRR = UART_BRR_SAMPLING8(pclk, huart->Init.BaudRate);
 80013d8:	6f7b      	ldr	r3, [r7, #116]	; 0x74
 80013da:	461d      	mov	r5, r3
 80013dc:	f04f 0600 	mov.w	r6, #0
 80013e0:	462b      	mov	r3, r5
 80013e2:	4634      	mov	r4, r6
 80013e4:	eb13 0a03 	adds.w	sl, r3, r3
 80013e8:	eb44 0b04 	adc.w	fp, r4, r4
 80013ec:	4653      	mov	r3, sl
 80013ee:	465c      	mov	r4, fp
 80013f0:	195b      	adds	r3, r3, r5
 80013f2:	eb46 0404 	adc.w	r4, r6, r4
 80013f6:	f04f 0100 	mov.w	r1, #0
 80013fa:	f04f 0200 	mov.w	r2, #0
 80013fe:	00e2      	lsls	r2, r4, #3
 8001400:	ea42 7253 	orr.w	r2, r2, r3, lsr #29
 8001404:	00d9      	lsls	r1, r3, #3
 8001406:	460b      	mov	r3, r1
 8001408:	4614      	mov	r4, r2
 800140a:	195a      	adds	r2, r3, r5
 800140c:	663a      	str	r2, [r7, #96]	; 0x60
 800140e:	eb44 0306 	adc.w	r3, r4, r6
 8001412:	667b      	str	r3, [r7, #100]	; 0x64
 8001414:	6efb      	ldr	r3, [r7, #108]	; 0x6c
 8001416:	685b      	ldr	r3, [r3, #4]
 8001418:	f04f 0400 	mov.w	r4, #0
 800141c:	18da      	adds	r2, r3, r3
 800141e:	633a      	str	r2, [r7, #48]	; 0x30
 8001420:	eb44 0304 	adc.w	r3, r4, r4
 8001424:	637b      	str	r3, [r7, #52]	; 0x34
 8001426:	e9d7 340c 	ldrd	r3, r4, [r7, #48]	; 0x30
 800142a:	461a      	mov	r2, r3
 800142c:	4623      	mov	r3, r4
 800142e:	e9d7 0118 	ldrd	r0, r1, [r7, #96]	; 0x60
 8001432:	f002 fcc5 	bl	8003dc0 <__aeabi_uldivmod>
 8001436:	4603      	mov	r3, r0
 8001438:	460c      	mov	r4, r1
 800143a:	461a      	mov	r2, r3
 800143c:	4b4b      	ldr	r3, [pc, #300]	; (800156c <UART_SetConfig+0x22c>)
 800143e:	fba3 2302 	umull	r2, r3, r3, r2
 8001442:	095b      	lsrs	r3, r3, #5
 8001444:	ea4f 1803 	mov.w	r8, r3, lsl #4
 8001448:	6f7b      	ldr	r3, [r7, #116]	; 0x74
 800144a:	461d      	mov	r5, r3
 800144c:	f04f 0600 	mov.w	r6, #0
 8001450:	462b      	mov	r3, r5
 8001452:	4634      	mov	r4, r6
 8001454:	18da      	adds	r2, r3, r3
 8001456:	62ba      	str	r2, [r7, #40]	; 0x28
 8001458:	eb44 0304 	adc.w	r3, r4, r4
 800145c:	62fb      	str	r3, [r7, #44]	; 0x2c
 800145e:	e9d7 340a 	ldrd	r3, r4, [r7, #40]	; 0x28
 8001462:	195b      	adds	r3, r3, r5
 8001464:	eb46 0404 	adc.w	r4, r6, r4
 8001468:	f04f 0100 	mov.w	r1, #0
 800146c:	f04f 0200 	mov.w	r2, #0
 8001470:	00e2      	lsls	r2, r4, #3
 8001472:	ea42 7253 	orr.w	r2, r2, r3, lsr #29
 8001476:	00d9      	lsls	r1, r3, #3
 8001478:	460b      	mov	r3, r1
 800147a:	4614      	mov	r4, r2
 800147c:	195a      	adds	r2, r3, r5
 800147e:	65ba      	str	r2, [r7, #88]	; 0x58
 8001480:	eb44 0306 	adc.w	r3, r4, r6
 8001484:	65fb      	str	r3, [r7, #92]	; 0x5c
 8001486:	6efb      	ldr	r3, [r7, #108]	; 0x6c
 8001488:	685b      	ldr	r3, [r3, #4]
 800148a:	f04f 0400 	mov.w	r4, #0
 800148e:	18da      	adds	r2, r3, r3
 8001490:	623a      	str	r2, [r7, #32]
 8001492:	eb44 0304 	adc.w	r3, r4, r4
 8001496:	627b      	str	r3, [r7, #36]	; 0x24
 8001498:	e9d7 3408 	ldrd	r3, r4, [r7, #32]
 800149c:	461a      	mov	r2, r3
 800149e:	4623      	mov	r3, r4
 80014a0:	e9d7 0116 	ldrd	r0, r1, [r7, #88]	; 0x58
 80014a4:	f002 fc8c 	bl	8003dc0 <__aeabi_uldivmod>
 80014a8:	4603      	mov	r3, r0
 80014aa:	460c      	mov	r4, r1
 80014ac:	461a      	mov	r2, r3
 80014ae:	4b2f      	ldr	r3, [pc, #188]	; (800156c <UART_SetConfig+0x22c>)
 80014b0:	fba3 1302 	umull	r1, r3, r3, r2
 80014b4:	095b      	lsrs	r3, r3, #5
 80014b6:	2164      	movs	r1, #100	; 0x64
 80014b8:	fb01 f303 	mul.w	r3, r1, r3
 80014bc:	1ad3      	subs	r3, r2, r3
 80014be:	00db      	lsls	r3, r3, #3
 80014c0:	3332      	adds	r3, #50	; 0x32
 80014c2:	4a2a      	ldr	r2, [pc, #168]	; (800156c <UART_SetConfig+0x22c>)
 80014c4:	fba2 2303 	umull	r2, r3, r2, r3
 80014c8:	095b      	lsrs	r3, r3, #5
 80014ca:	005b      	lsls	r3, r3, #1
 80014cc:	f403 73f8 	and.w	r3, r3, #496	; 0x1f0
 80014d0:	4498      	add	r8, r3
 80014d2:	6f7b      	ldr	r3, [r7, #116]	; 0x74
 80014d4:	4619      	mov	r1, r3
 80014d6:	f04f 0200 	mov.w	r2, #0
 80014da:	460b      	mov	r3, r1
 80014dc:	4614      	mov	r4, r2
 80014de:	18d8      	adds	r0, r3, r3
 80014e0:	61b8      	str	r0, [r7, #24]
 80014e2:	eb44 0304 	adc.w	r3, r4, r4
 80014e6:	61fb      	str	r3, [r7, #28]
 80014e8:	e9d7 3406 	ldrd	r3, r4, [r7, #24]
 80014ec:	185b      	adds	r3, r3, r1
 80014ee:	eb42 0404 	adc.w	r4, r2, r4
 80014f2:	f04f 0500 	mov.w	r5, #0
 80014f6:	f04f 0600 	mov.w	r6, #0
 80014fa:	00e6      	lsls	r6, r4, #3
 80014fc:	ea46 7653 	orr.w	r6, r6, r3, lsr #29
 8001500:	00dd      	lsls	r5, r3, #3
 8001502:	462b      	mov	r3, r5
 8001504:	4634      	mov	r4, r6
 8001506:	1858      	adds	r0, r3, r1
 8001508:	6538      	str	r0, [r7, #80]	; 0x50
 800150a:	eb44 0302 	adc.w	r3, r4, r2
 800150e:	657b      	str	r3, [r7, #84]	; 0x54
 8001510:	6efb      	ldr	r3, [r7, #108]	; 0x6c
 8001512:	685b      	ldr	r3, [r3, #4]
 8001514:	f04f 0400 	mov.w	r4, #0
 8001518:	18da      	adds	r2, r3, r3
 800151a:	613a      	str	r2, [r7, #16]
 800151c:	eb44 0304 	adc.w	r3, r4, r4
 8001520:	617b      	str	r3, [r7, #20]
 8001522:	e9d7 3404 	ldrd	r3, r4, [r7, #16]
 8001526:	461a      	mov	r2, r3
 8001528:	4623      	mov	r3, r4
 800152a:	e9d7 0114 	ldrd	r0, r1, [r7, #80]	; 0x50
 800152e:	f002 fc47 	bl	8003dc0 <__aeabi_uldivmod>
 8001532:	4603      	mov	r3, r0
 8001534:	460c      	mov	r4, r1
 8001536:	461a      	mov	r2, r3
 8001538:	4b0c      	ldr	r3, [pc, #48]	; (800156c <UART_SetConfig+0x22c>)
 800153a:	fba3 1302 	umull	r1, r3, r3, r2
 800153e:	095b      	lsrs	r3, r3, #5
 8001540:	2164      	movs	r1, #100	; 0x64
 8001542:	fb01 f303 	mul.w	r3, r1, r3
 8001546:	1ad3      	subs	r3, r2, r3
 8001548:	00db      	lsls	r3, r3, #3
 800154a:	3332      	adds	r3, #50	; 0x32
 800154c:	4a07      	ldr	r2, [pc, #28]	; (800156c <UART_SetConfig+0x22c>)
 800154e:	fba2 2303 	umull	r2, r3, r2, r3
 8001552:	095b      	lsrs	r3, r3, #5
 8001554:	f003 0207 	and.w	r2, r3, #7
 8001558:	6efb      	ldr	r3, [r7, #108]	; 0x6c
 800155a:	681b      	ldr	r3, [r3, #0]
 800155c:	4442      	add	r2, r8
 800155e:	609a      	str	r2, [r3, #8]
  }
  else
  {
    huart->Instance->BRR = UART_BRR_SAMPLING16(pclk, huart->Init.BaudRate);
  }
}
 8001560:	e0cf      	b.n	8001702 <UART_SetConfig+0x3c2>
 8001562:	bf00      	nop
 8001564:	40011000 	andmi	r1, r1, r0
 8001568:	40011400 	andmi	r1, r1, r0, lsl #8
 800156c:	51eb851f 	mvnpl	r8, pc, lsl r5
    huart->Instance->BRR = UART_BRR_SAMPLING16(pclk, huart->Init.BaudRate);
 8001570:	6f7b      	ldr	r3, [r7, #116]	; 0x74
 8001572:	461d      	mov	r5, r3
 8001574:	f04f 0600 	mov.w	r6, #0
 8001578:	462b      	mov	r3, r5
 800157a:	4634      	mov	r4, r6
 800157c:	eb13 0803 	adds.w	r8, r3, r3
 8001580:	eb44 0904 	adc.w	r9, r4, r4
 8001584:	4643      	mov	r3, r8
 8001586:	464c      	mov	r4, r9
 8001588:	195b      	adds	r3, r3, r5
 800158a:	eb46 0404 	adc.w	r4, r6, r4
 800158e:	f04f 0100 	mov.w	r1, #0
 8001592:	f04f 0200 	mov.w	r2, #0
 8001596:	00e2      	lsls	r2, r4, #3
 8001598:	ea42 7253 	orr.w	r2, r2, r3, lsr #29
 800159c:	00d9      	lsls	r1, r3, #3
 800159e:	460b      	mov	r3, r1
 80015a0:	4614      	mov	r4, r2
 80015a2:	195a      	adds	r2, r3, r5
 80015a4:	64ba      	str	r2, [r7, #72]	; 0x48
 80015a6:	eb44 0306 	adc.w	r3, r4, r6
 80015aa:	64fb      	str	r3, [r7, #76]	; 0x4c
 80015ac:	6efb      	ldr	r3, [r7, #108]	; 0x6c
 80015ae:	685b      	ldr	r3, [r3, #4]
 80015b0:	4619      	mov	r1, r3
 80015b2:	f04f 0200 	mov.w	r2, #0
 80015b6:	f04f 0300 	mov.w	r3, #0
 80015ba:	f04f 0400 	mov.w	r4, #0
 80015be:	0094      	lsls	r4, r2, #2
 80015c0:	ea44 7491 	orr.w	r4, r4, r1, lsr #30
 80015c4:	008b      	lsls	r3, r1, #2
 80015c6:	461a      	mov	r2, r3
 80015c8:	4623      	mov	r3, r4
 80015ca:	e9d7 0112 	ldrd	r0, r1, [r7, #72]	; 0x48
 80015ce:	f002 fbf7 	bl	8003dc0 <__aeabi_uldivmod>
 80015d2:	4603      	mov	r3, r0
 80015d4:	460c      	mov	r4, r1
 80015d6:	461a      	mov	r2, r3
 80015d8:	4b4c      	ldr	r3, [pc, #304]	; (800170c <UART_SetConfig+0x3cc>)
 80015da:	fba3 2302 	umull	r2, r3, r3, r2
 80015de:	095b      	lsrs	r3, r3, #5
 80015e0:	ea4f 1803 	mov.w	r8, r3, lsl #4
 80015e4:	6f7b      	ldr	r3, [r7, #116]	; 0x74
 80015e6:	4619      	mov	r1, r3
 80015e8:	f04f 0200 	mov.w	r2, #0
 80015ec:	460b      	mov	r3, r1
 80015ee:	4614      	mov	r4, r2
 80015f0:	18d8      	adds	r0, r3, r3
 80015f2:	60b8      	str	r0, [r7, #8]
 80015f4:	eb44 0304 	adc.w	r3, r4, r4
 80015f8:	60fb      	str	r3, [r7, #12]
 80015fa:	e9d7 3402 	ldrd	r3, r4, [r7, #8]
 80015fe:	185b      	adds	r3, r3, r1
 8001600:	eb42 0404 	adc.w	r4, r2, r4
 8001604:	f04f 0500 	mov.w	r5, #0
 8001608:	f04f 0600 	mov.w	r6, #0
 800160c:	00e6      	lsls	r6, r4, #3
 800160e:	ea46 7653 	orr.w	r6, r6, r3, lsr #29
 8001612:	00dd      	lsls	r5, r3, #3
 8001614:	462b      	mov	r3, r5
 8001616:	4634      	mov	r4, r6
 8001618:	1858      	adds	r0, r3, r1
 800161a:	6438      	str	r0, [r7, #64]	; 0x40
 800161c:	eb44 0302 	adc.w	r3, r4, r2
 8001620:	647b      	str	r3, [r7, #68]	; 0x44
 8001622:	6efb      	ldr	r3, [r7, #108]	; 0x6c
 8001624:	685b      	ldr	r3, [r3, #4]
 8001626:	4619      	mov	r1, r3
 8001628:	f04f 0200 	mov.w	r2, #0
 800162c:	f04f 0300 	mov.w	r3, #0
 8001630:	f04f 0400 	mov.w	r4, #0
 8001634:	0094      	lsls	r4, r2, #2
 8001636:	ea44 7491 	orr.w	r4, r4, r1, lsr #30
 800163a:	008b      	lsls	r3, r1, #2
 800163c:	461a      	mov	r2, r3
 800163e:	4623      	mov	r3, r4
 8001640:	e9d7 0110 	ldrd	r0, r1, [r7, #64]	; 0x40
 8001644:	f002 fbbc 	bl	8003dc0 <__aeabi_uldivmod>
 8001648:	4603      	mov	r3, r0
 800164a:	460c      	mov	r4, r1
 800164c:	461a      	mov	r2, r3
 800164e:	4b2f      	ldr	r3, [pc, #188]	; (800170c <UART_SetConfig+0x3cc>)
 8001650:	fba3 1302 	umull	r1, r3, r3, r2
 8001654:	095b      	lsrs	r3, r3, #5
 8001656:	2164      	movs	r1, #100	; 0x64
 8001658:	fb01 f303 	mul.w	r3, r1, r3
 800165c:	1ad3      	subs	r3, r2, r3
 800165e:	011b      	lsls	r3, r3, #4
 8001660:	3332      	adds	r3, #50	; 0x32
 8001662:	4a2a      	ldr	r2, [pc, #168]	; (800170c <UART_SetConfig+0x3cc>)
 8001664:	fba2 2303 	umull	r2, r3, r2, r3
 8001668:	095b      	lsrs	r3, r3, #5
 800166a:	f003 03f0 	and.w	r3, r3, #240	; 0xf0
 800166e:	4498      	add	r8, r3
 8001670:	6f7b      	ldr	r3, [r7, #116]	; 0x74
 8001672:	4619      	mov	r1, r3
 8001674:	f04f 0200 	mov.w	r2, #0
 8001678:	460b      	mov	r3, r1
 800167a:	4614      	mov	r4, r2
 800167c:	18d8      	adds	r0, r3, r3
 800167e:	6038      	str	r0, [r7, #0]
 8001680:	eb44 0304 	adc.w	r3, r4, r4
 8001684:	607b      	str	r3, [r7, #4]
 8001686:	e9d7 3400 	ldrd	r3, r4, [r7]
 800168a:	185b      	adds	r3, r3, r1
 800168c:	eb42 0404 	adc.w	r4, r2, r4
 8001690:	f04f 0500 	mov.w	r5, #0
 8001694:	f04f 0600 	mov.w	r6, #0
 8001698:	00e6      	lsls	r6, r4, #3
 800169a:	ea46 7653 	orr.w	r6, r6, r3, lsr #29
 800169e:	00dd      	lsls	r5, r3, #3
 80016a0:	462b      	mov	r3, r5
 80016a2:	4634      	mov	r4, r6
 80016a4:	1858      	adds	r0, r3, r1
 80016a6:	63b8      	str	r0, [r7, #56]	; 0x38
 80016a8:	eb44 0302 	adc.w	r3, r4, r2
 80016ac:	63fb      	str	r3, [r7, #60]	; 0x3c
 80016ae:	6efb      	ldr	r3, [r7, #108]	; 0x6c
 80016b0:	685b      	ldr	r3, [r3, #4]
 80016b2:	4619      	mov	r1, r3
 80016b4:	f04f 0200 	mov.w	r2, #0
 80016b8:	f04f 0300 	mov.w	r3, #0
 80016bc:	f04f 0400 	mov.w	r4, #0
 80016c0:	0094      	lsls	r4, r2, #2
 80016c2:	ea44 7491 	orr.w	r4, r4, r1, lsr #30
 80016c6:	008b      	lsls	r3, r1, #2
 80016c8:	461a      	mov	r2, r3
 80016ca:	4623      	mov	r3, r4
 80016cc:	e9d7 010e 	ldrd	r0, r1, [r7, #56]	; 0x38
 80016d0:	f002 fb76 	bl	8003dc0 <__aeabi_uldivmod>
 80016d4:	4603      	mov	r3, r0
 80016d6:	460c      	mov	r4, r1
 80016d8:	461a      	mov	r2, r3
 80016da:	4b0c      	ldr	r3, [pc, #48]	; (800170c <UART_SetConfig+0x3cc>)
 80016dc:	fba3 1302 	umull	r1, r3, r3, r2
 80016e0:	095b      	lsrs	r3, r3, #5
 80016e2:	2164      	movs	r1, #100	; 0x64
 80016e4:	fb01 f303 	mul.w	r3, r1, r3
 80016e8:	1ad3      	subs	r3, r2, r3
 80016ea:	011b      	lsls	r3, r3, #4
 80016ec:	3332      	adds	r3, #50	; 0x32
 80016ee:	4a07      	ldr	r2, [pc, #28]	; (800170c <UART_SetConfig+0x3cc>)
 80016f0:	fba2 2303 	umull	r2, r3, r2, r3
 80016f4:	095b      	lsrs	r3, r3, #5
 80016f6:	f003 020f 	and.w	r2, r3, #15
 80016fa:	6efb      	ldr	r3, [r7, #108]	; 0x6c
 80016fc:	681b      	ldr	r3, [r3, #0]
 80016fe:	4442      	add	r2, r8
 8001700:	609a      	str	r2, [r3, #8]
}
 8001702:	bf00      	nop
 8001704:	377c      	adds	r7, #124	; 0x7c
 8001706:	46bd      	mov	sp, r7
 8001708:	e8bd 8ff0 	ldmia.w	sp!, {r4, r5, r6, r7, r8, r9, sl, fp, pc}
 800170c:	51eb851f 	mvnpl	r8, pc, lsl r5

08001710 <_out_null>:
}


// internal null output
static inline void _out_null(char character, void* buffer, size_t idx, size_t maxlen)
{
 8001710:	b480      	push	{r7}
 8001712:	b085      	sub	sp, #20
 8001714:	af00      	add	r7, sp, #0
 8001716:	60b9      	str	r1, [r7, #8]
 8001718:	607a      	str	r2, [r7, #4]
 800171a:	603b      	str	r3, [r7, #0]
 800171c:	4603      	mov	r3, r0
 800171e:	73fb      	strb	r3, [r7, #15]
  (void)character; (void)buffer; (void)idx; (void)maxlen;
}
 8001720:	bf00      	nop
 8001722:	3714      	adds	r7, #20
 8001724:	46bd      	mov	sp, r7
 8001726:	f85d 7b04 	ldr.w	r7, [sp], #4
 800172a:	4770      	bx	lr

0800172c <_out_char>:


// internal _putchar wrapper
static inline void _out_char(char character, void* buffer, size_t idx, size_t maxlen)
{
 800172c:	b580      	push	{r7, lr}
 800172e:	b084      	sub	sp, #16
 8001730:	af00      	add	r7, sp, #0
 8001732:	60b9      	str	r1, [r7, #8]
 8001734:	607a      	str	r2, [r7, #4]
 8001736:	603b      	str	r3, [r7, #0]
 8001738:	4603      	mov	r3, r0
 800173a:	73fb      	strb	r3, [r7, #15]
  (void)buffer; (void)idx; (void)maxlen;
  if (character) {
 800173c:	7bfb      	ldrb	r3, [r7, #15]
 800173e:	2b00      	cmp	r3, #0
 8001740:	d003      	beq.n	800174a <_out_char+0x1e>
    _putchar(character);
 8001742:	7bfb      	ldrb	r3, [r7, #15]
 8001744:	4618      	mov	r0, r3
 8001746:	f001 f86f 	bl	8002828 <_putchar>
  }
}
 800174a:	bf00      	nop
 800174c:	3710      	adds	r7, #16
 800174e:	46bd      	mov	sp, r7
 8001750:	bd80      	pop	{r7, pc}

08001752 <_strnlen_s>:


// internal secure strlen
// \return The length of the string (excluding the terminating 0) limited by 'maxsize'
static inline unsigned int _strnlen_s(const char* str, size_t maxsize)
{
 8001752:	b480      	push	{r7}
 8001754:	b085      	sub	sp, #20
 8001756:	af00      	add	r7, sp, #0
 8001758:	6078      	str	r0, [r7, #4]
 800175a:	6039      	str	r1, [r7, #0]
  const char* s;
  for (s = str; *s && maxsize--; ++s);
 800175c:	687b      	ldr	r3, [r7, #4]
 800175e:	60fb      	str	r3, [r7, #12]
 8001760:	e002      	b.n	8001768 <_strnlen_s+0x16>
 8001762:	68fb      	ldr	r3, [r7, #12]
 8001764:	3301      	adds	r3, #1
 8001766:	60fb      	str	r3, [r7, #12]
 8001768:	68fb      	ldr	r3, [r7, #12]
 800176a:	781b      	ldrb	r3, [r3, #0]
 800176c:	2b00      	cmp	r3, #0
 800176e:	d004      	beq.n	800177a <_strnlen_s+0x28>
 8001770:	683b      	ldr	r3, [r7, #0]
 8001772:	1e5a      	subs	r2, r3, #1
 8001774:	603a      	str	r2, [r7, #0]
 8001776:	2b00      	cmp	r3, #0
 8001778:	d1f3      	bne.n	8001762 <_strnlen_s+0x10>
  return (unsigned int)(s - str);
 800177a:	68fa      	ldr	r2, [r7, #12]
 800177c:	687b      	ldr	r3, [r7, #4]
 800177e:	1ad3      	subs	r3, r2, r3
}
 8001780:	4618      	mov	r0, r3
 8001782:	3714      	adds	r7, #20
 8001784:	46bd      	mov	sp, r7
 8001786:	f85d 7b04 	ldr.w	r7, [sp], #4
 800178a:	4770      	bx	lr

0800178c <_is_digit>:


// internal test if char is a digit (0-9)
// \return true if char is a digit
static inline bool _is_digit(char ch)
{
 800178c:	b480      	push	{r7}
 800178e:	b083      	sub	sp, #12
 8001790:	af00      	add	r7, sp, #0
 8001792:	4603      	mov	r3, r0
 8001794:	71fb      	strb	r3, [r7, #7]
  return (ch >= '0') && (ch <= '9');
 8001796:	79fb      	ldrb	r3, [r7, #7]
 8001798:	2b2f      	cmp	r3, #47	; 0x2f
 800179a:	d904      	bls.n	80017a6 <_is_digit+0x1a>
 800179c:	79fb      	ldrb	r3, [r7, #7]
 800179e:	2b39      	cmp	r3, #57	; 0x39
 80017a0:	d801      	bhi.n	80017a6 <_is_digit+0x1a>
 80017a2:	2301      	movs	r3, #1
 80017a4:	e000      	b.n	80017a8 <_is_digit+0x1c>
 80017a6:	2300      	movs	r3, #0
 80017a8:	f003 0301 	and.w	r3, r3, #1
 80017ac:	b2db      	uxtb	r3, r3
}
 80017ae:	4618      	mov	r0, r3
 80017b0:	370c      	adds	r7, #12
 80017b2:	46bd      	mov	sp, r7
 80017b4:	f85d 7b04 	ldr.w	r7, [sp], #4
 80017b8:	4770      	bx	lr

080017ba <_atoi>:


// internal ASCII string to unsigned int conversion
static unsigned int _atoi(const char** str)
{
 80017ba:	b580      	push	{r7, lr}
 80017bc:	b084      	sub	sp, #16
 80017be:	af00      	add	r7, sp, #0
 80017c0:	6078      	str	r0, [r7, #4]
  unsigned int i = 0U;
 80017c2:	2300      	movs	r3, #0
 80017c4:	60fb      	str	r3, [r7, #12]
  while (_is_digit(**str)) {
 80017c6:	e00e      	b.n	80017e6 <_atoi+0x2c>
    i = i * 10U + (unsigned int)(*((*str)++) - '0');
 80017c8:	68fa      	ldr	r2, [r7, #12]
 80017ca:	4613      	mov	r3, r2
 80017cc:	009b      	lsls	r3, r3, #2
 80017ce:	4413      	add	r3, r2
 80017d0:	005b      	lsls	r3, r3, #1
 80017d2:	4618      	mov	r0, r3
 80017d4:	687b      	ldr	r3, [r7, #4]
 80017d6:	681b      	ldr	r3, [r3, #0]
 80017d8:	1c59      	adds	r1, r3, #1
 80017da:	687a      	ldr	r2, [r7, #4]
 80017dc:	6011      	str	r1, [r2, #0]
 80017de:	781b      	ldrb	r3, [r3, #0]
 80017e0:	4403      	add	r3, r0
 80017e2:	3b30      	subs	r3, #48	; 0x30
 80017e4:	60fb      	str	r3, [r7, #12]
  while (_is_digit(**str)) {
 80017e6:	687b      	ldr	r3, [r7, #4]
 80017e8:	681b      	ldr	r3, [r3, #0]
 80017ea:	781b      	ldrb	r3, [r3, #0]
 80017ec:	4618      	mov	r0, r3
 80017ee:	f7ff ffcd 	bl	800178c <_is_digit>
 80017f2:	4603      	mov	r3, r0
 80017f4:	2b00      	cmp	r3, #0
 80017f6:	d1e7      	bne.n	80017c8 <_atoi+0xe>
  }
  return i;
 80017f8:	68fb      	ldr	r3, [r7, #12]
}
 80017fa:	4618      	mov	r0, r3
 80017fc:	3710      	adds	r7, #16
 80017fe:	46bd      	mov	sp, r7
 8001800:	bd80      	pop	{r7, pc}

08001802 <_out_rev>:


// output the specified string in reverse, taking care of any zero-padding
static size_t _out_rev(out_fct_type out, char* buffer, size_t idx, size_t maxlen, const char* buf, size_t len, unsigned int width, unsigned int flags)
{
 8001802:	b590      	push	{r4, r7, lr}
 8001804:	b087      	sub	sp, #28
 8001806:	af00      	add	r7, sp, #0
 8001808:	60f8      	str	r0, [r7, #12]
 800180a:	60b9      	str	r1, [r7, #8]
 800180c:	607a      	str	r2, [r7, #4]
 800180e:	603b      	str	r3, [r7, #0]
  const size_t start_idx = idx;
 8001810:	687b      	ldr	r3, [r7, #4]
 8001812:	613b      	str	r3, [r7, #16]

  // pad spaces up to given width
  if (!(flags & FLAGS_LEFT) && !(flags & FLAGS_ZEROPAD)) {
 8001814:	6b7b      	ldr	r3, [r7, #52]	; 0x34
 8001816:	f003 0302 	and.w	r3, r3, #2
 800181a:	2b00      	cmp	r3, #0
 800181c:	d125      	bne.n	800186a <_out_rev+0x68>
 800181e:	6b7b      	ldr	r3, [r7, #52]	; 0x34
 8001820:	f003 0301 	and.w	r3, r3, #1
 8001824:	2b00      	cmp	r3, #0
 8001826:	d120      	bne.n	800186a <_out_rev+0x68>
    for (size_t i = len; i < width; i++) {
 8001828:	6afb      	ldr	r3, [r7, #44]	; 0x2c
 800182a:	617b      	str	r3, [r7, #20]
 800182c:	e00a      	b.n	8001844 <_out_rev+0x42>
      out(' ', buffer, idx++, maxlen);
 800182e:	687a      	ldr	r2, [r7, #4]
 8001830:	1c53      	adds	r3, r2, #1
 8001832:	607b      	str	r3, [r7, #4]
 8001834:	68fc      	ldr	r4, [r7, #12]
 8001836:	683b      	ldr	r3, [r7, #0]
 8001838:	68b9      	ldr	r1, [r7, #8]
 800183a:	2020      	movs	r0, #32
 800183c:	47a0      	blx	r4
    for (size_t i = len; i < width; i++) {
 800183e:	697b      	ldr	r3, [r7, #20]
 8001840:	3301      	adds	r3, #1
 8001842:	617b      	str	r3, [r7, #20]
 8001844:	697a      	ldr	r2, [r7, #20]
 8001846:	6b3b      	ldr	r3, [r7, #48]	; 0x30
 8001848:	429a      	cmp	r2, r3
 800184a:	d3f0      	bcc.n	800182e <_out_rev+0x2c>
    }
  }

  // reverse string
  while (len) {
 800184c:	e00d      	b.n	800186a <_out_rev+0x68>
    out(buf[--len], buffer, idx++, maxlen);
 800184e:	6afb      	ldr	r3, [r7, #44]	; 0x2c
 8001850:	3b01      	subs	r3, #1
 8001852:	62fb      	str	r3, [r7, #44]	; 0x2c
 8001854:	6aba      	ldr	r2, [r7, #40]	; 0x28
 8001856:	6afb      	ldr	r3, [r7, #44]	; 0x2c
 8001858:	4413      	add	r3, r2
 800185a:	7818      	ldrb	r0, [r3, #0]
 800185c:	687a      	ldr	r2, [r7, #4]
 800185e:	1c53      	adds	r3, r2, #1
 8001860:	607b      	str	r3, [r7, #4]
 8001862:	68fc      	ldr	r4, [r7, #12]
 8001864:	683b      	ldr	r3, [r7, #0]
 8001866:	68b9      	ldr	r1, [r7, #8]
 8001868:	47a0      	blx	r4
  while (len) {
 800186a:	6afb      	ldr	r3, [r7, #44]	; 0x2c
 800186c:	2b00      	cmp	r3, #0
 800186e:	d1ee      	bne.n	800184e <_out_rev+0x4c>
  }

  // append pad spaces up to given width
  if (flags & FLAGS_LEFT) {
 8001870:	6b7b      	ldr	r3, [r7, #52]	; 0x34
 8001872:	f003 0302 	and.w	r3, r3, #2
 8001876:	2b00      	cmp	r3, #0
 8001878:	d00e      	beq.n	8001898 <_out_rev+0x96>
    while (idx - start_idx < width) {
 800187a:	e007      	b.n	800188c <_out_rev+0x8a>
      out(' ', buffer, idx++, maxlen);
 800187c:	687a      	ldr	r2, [r7, #4]
 800187e:	1c53      	adds	r3, r2, #1
 8001880:	607b      	str	r3, [r7, #4]
 8001882:	68fc      	ldr	r4, [r7, #12]
 8001884:	683b      	ldr	r3, [r7, #0]
 8001886:	68b9      	ldr	r1, [r7, #8]
 8001888:	2020      	movs	r0, #32
 800188a:	47a0      	blx	r4
    while (idx - start_idx < width) {
 800188c:	687a      	ldr	r2, [r7, #4]
 800188e:	693b      	ldr	r3, [r7, #16]
 8001890:	1ad3      	subs	r3, r2, r3
 8001892:	6b3a      	ldr	r2, [r7, #48]	; 0x30
 8001894:	429a      	cmp	r2, r3
 8001896:	d8f1      	bhi.n	800187c <_out_rev+0x7a>
    }
  }

  return idx;
 8001898:	687b      	ldr	r3, [r7, #4]
}
 800189a:	4618      	mov	r0, r3
 800189c:	371c      	adds	r7, #28
 800189e:	46bd      	mov	sp, r7
 80018a0:	bd90      	pop	{r4, r7, pc}

080018a2 <_ntoa_format>:


// internal itoa format
static size_t _ntoa_format(out_fct_type out, char* buffer, size_t idx, size_t maxlen, char* buf, size_t len, bool negative, unsigned int base, unsigned int prec, unsigned int width, unsigned int flags)
{
 80018a2:	b580      	push	{r7, lr}
 80018a4:	b088      	sub	sp, #32
 80018a6:	af04      	add	r7, sp, #16
 80018a8:	60f8      	str	r0, [r7, #12]
 80018aa:	60b9      	str	r1, [r7, #8]
 80018ac:	607a      	str	r2, [r7, #4]
 80018ae:	603b      	str	r3, [r7, #0]
  // pad leading zeros
  if (!(flags & FLAGS_LEFT)) {
 80018b0:	6b3b      	ldr	r3, [r7, #48]	; 0x30
 80018b2:	f003 0302 	and.w	r3, r3, #2
 80018b6:	2b00      	cmp	r3, #0
 80018b8:	d136      	bne.n	8001928 <_ntoa_format+0x86>
    if (width && (flags & FLAGS_ZEROPAD) && (negative || (flags & (FLAGS_PLUS | FLAGS_SPACE)))) {
 80018ba:	6afb      	ldr	r3, [r7, #44]	; 0x2c
 80018bc:	2b00      	cmp	r3, #0
 80018be:	d018      	beq.n	80018f2 <_ntoa_format+0x50>
 80018c0:	6b3b      	ldr	r3, [r7, #48]	; 0x30
 80018c2:	f003 0301 	and.w	r3, r3, #1
 80018c6:	2b00      	cmp	r3, #0
 80018c8:	d013      	beq.n	80018f2 <_ntoa_format+0x50>
 80018ca:	f897 3020 	ldrb.w	r3, [r7, #32]
 80018ce:	2b00      	cmp	r3, #0
 80018d0:	d104      	bne.n	80018dc <_ntoa_format+0x3a>
 80018d2:	6b3b      	ldr	r3, [r7, #48]	; 0x30
 80018d4:	f003 030c 	and.w	r3, r3, #12
 80018d8:	2b00      	cmp	r3, #0
 80018da:	d00a      	beq.n	80018f2 <_ntoa_format+0x50>
      width--;
 80018dc:	6afb      	ldr	r3, [r7, #44]	; 0x2c
 80018de:	3b01      	subs	r3, #1
 80018e0:	62fb      	str	r3, [r7, #44]	; 0x2c
    }
    while ((len < prec) && (len < PRINTF_NTOA_BUFFER_SIZE)) {
 80018e2:	e006      	b.n	80018f2 <_ntoa_format+0x50>
      buf[len++] = '0';
 80018e4:	69fb      	ldr	r3, [r7, #28]
 80018e6:	1c5a      	adds	r2, r3, #1
 80018e8:	61fa      	str	r2, [r7, #28]
 80018ea:	69ba      	ldr	r2, [r7, #24]
 80018ec:	4413      	add	r3, r2
 80018ee:	2230      	movs	r2, #48	; 0x30
 80018f0:	701a      	strb	r2, [r3, #0]
    while ((len < prec) && (len < PRINTF_NTOA_BUFFER_SIZE)) {
 80018f2:	69fa      	ldr	r2, [r7, #28]
 80018f4:	6abb      	ldr	r3, [r7, #40]	; 0x28
 80018f6:	429a      	cmp	r2, r3
 80018f8:	d20a      	bcs.n	8001910 <_ntoa_format+0x6e>
 80018fa:	69fb      	ldr	r3, [r7, #28]
 80018fc:	2b1f      	cmp	r3, #31
 80018fe:	d9f1      	bls.n	80018e4 <_ntoa_format+0x42>
    }
    while ((flags & FLAGS_ZEROPAD) && (len < width) && (len < PRINTF_NTOA_BUFFER_SIZE)) {
 8001900:	e006      	b.n	8001910 <_ntoa_format+0x6e>
      buf[len++] = '0';
 8001902:	69fb      	ldr	r3, [r7, #28]
 8001904:	1c5a      	adds	r2, r3, #1
 8001906:	61fa      	str	r2, [r7, #28]
 8001908:	69ba      	ldr	r2, [r7, #24]
 800190a:	4413      	add	r3, r2
 800190c:	2230      	movs	r2, #48	; 0x30
 800190e:	701a      	strb	r2, [r3, #0]
    while ((flags & FLAGS_ZEROPAD) && (len < width) && (len < PRINTF_NTOA_BUFFER_SIZE)) {
 8001910:	6b3b      	ldr	r3, [r7, #48]	; 0x30
 8001912:	f003 0301 	and.w	r3, r3, #1
 8001916:	2b00      	cmp	r3, #0
 8001918:	d006      	beq.n	8001928 <_ntoa_format+0x86>
 800191a:	69fa      	ldr	r2, [r7, #28]
 800191c:	6afb      	ldr	r3, [r7, #44]	; 0x2c
 800191e:	429a      	cmp	r2, r3
 8001920:	d202      	bcs.n	8001928 <_ntoa_format+0x86>
 8001922:	69fb      	ldr	r3, [r7, #28]
 8001924:	2b1f      	cmp	r3, #31
 8001926:	d9ec      	bls.n	8001902 <_ntoa_format+0x60>
    }
  }

  // handle hash
  if (flags & FLAGS_HASH) {
 8001928:	6b3b      	ldr	r3, [r7, #48]	; 0x30
 800192a:	f003 0310 	and.w	r3, r3, #16
 800192e:	2b00      	cmp	r3, #0
 8001930:	d058      	beq.n	80019e4 <_ntoa_format+0x142>
    if (!(flags & FLAGS_PRECISION) && len && ((len == prec) || (len == width))) {
 8001932:	6b3b      	ldr	r3, [r7, #48]	; 0x30
 8001934:	f403 6380 	and.w	r3, r3, #1024	; 0x400
 8001938:	2b00      	cmp	r3, #0
 800193a:	d116      	bne.n	800196a <_ntoa_format+0xc8>
 800193c:	69fb      	ldr	r3, [r7, #28]
 800193e:	2b00      	cmp	r3, #0
 8001940:	d013      	beq.n	800196a <_ntoa_format+0xc8>
 8001942:	69fa      	ldr	r2, [r7, #28]
 8001944:	6abb      	ldr	r3, [r7, #40]	; 0x28
 8001946:	429a      	cmp	r2, r3
 8001948:	d003      	beq.n	8001952 <_ntoa_format+0xb0>
 800194a:	69fa      	ldr	r2, [r7, #28]
 800194c:	6afb      	ldr	r3, [r7, #44]	; 0x2c
 800194e:	429a      	cmp	r2, r3
 8001950:	d10b      	bne.n	800196a <_ntoa_format+0xc8>
      len--;
 8001952:	69fb      	ldr	r3, [r7, #28]
 8001954:	3b01      	subs	r3, #1
 8001956:	61fb      	str	r3, [r7, #28]
      if (len && (base == 16U)) {
 8001958:	69fb      	ldr	r3, [r7, #28]
 800195a:	2b00      	cmp	r3, #0
 800195c:	d005      	beq.n	800196a <_ntoa_format+0xc8>
 800195e:	6a7b      	ldr	r3, [r7, #36]	; 0x24
 8001960:	2b10      	cmp	r3, #16
 8001962:	d102      	bne.n	800196a <_ntoa_format+0xc8>
        len--;
 8001964:	69fb      	ldr	r3, [r7, #28]
 8001966:	3b01      	subs	r3, #1
 8001968:	61fb      	str	r3, [r7, #28]
      }
    }
    if ((base == 16U) && !(flags & FLAGS_UPPERCASE) && (len < PRINTF_NTOA_BUFFER_SIZE)) {
 800196a:	6a7b      	ldr	r3, [r7, #36]	; 0x24
 800196c:	2b10      	cmp	r3, #16
 800196e:	d10f      	bne.n	8001990 <_ntoa_format+0xee>
 8001970:	6b3b      	ldr	r3, [r7, #48]	; 0x30
 8001972:	f003 0320 	and.w	r3, r3, #32
 8001976:	2b00      	cmp	r3, #0
 8001978:	d10a      	bne.n	8001990 <_ntoa_format+0xee>
 800197a:	69fb      	ldr	r3, [r7, #28]
 800197c:	2b1f      	cmp	r3, #31
 800197e:	d807      	bhi.n	8001990 <_ntoa_format+0xee>
      buf[len++] = 'x';
 8001980:	69fb      	ldr	r3, [r7, #28]
 8001982:	1c5a      	adds	r2, r3, #1
 8001984:	61fa      	str	r2, [r7, #28]
 8001986:	69ba      	ldr	r2, [r7, #24]
 8001988:	4413      	add	r3, r2
 800198a:	2278      	movs	r2, #120	; 0x78
 800198c:	701a      	strb	r2, [r3, #0]
 800198e:	e01f      	b.n	80019d0 <_ntoa_format+0x12e>
    }
    else if ((base == 16U) && (flags & FLAGS_UPPERCASE) && (len < PRINTF_NTOA_BUFFER_SIZE)) {
 8001990:	6a7b      	ldr	r3, [r7, #36]	; 0x24
 8001992:	2b10      	cmp	r3, #16
 8001994:	d10f      	bne.n	80019b6 <_ntoa_format+0x114>
 8001996:	6b3b      	ldr	r3, [r7, #48]	; 0x30
 8001998:	f003 0320 	and.w	r3, r3, #32
 800199c:	2b00      	cmp	r3, #0
 800199e:	d00a      	beq.n	80019b6 <_ntoa_format+0x114>
 80019a0:	69fb      	ldr	r3, [r7, #28]
 80019a2:	2b1f      	cmp	r3, #31
 80019a4:	d807      	bhi.n	80019b6 <_ntoa_format+0x114>
      buf[len++] = 'X';
 80019a6:	69fb      	ldr	r3, [r7, #28]
 80019a8:	1c5a      	adds	r2, r3, #1
 80019aa:	61fa      	str	r2, [r7, #28]
 80019ac:	69ba      	ldr	r2, [r7, #24]
 80019ae:	4413      	add	r3, r2
 80019b0:	2258      	movs	r2, #88	; 0x58
 80019b2:	701a      	strb	r2, [r3, #0]
 80019b4:	e00c      	b.n	80019d0 <_ntoa_format+0x12e>
    }
    else if ((base == 2U) && (len < PRINTF_NTOA_BUFFER_SIZE)) {
 80019b6:	6a7b      	ldr	r3, [r7, #36]	; 0x24
 80019b8:	2b02      	cmp	r3, #2
 80019ba:	d109      	bne.n	80019d0 <_ntoa_format+0x12e>
 80019bc:	69fb      	ldr	r3, [r7, #28]
 80019be:	2b1f      	cmp	r3, #31
 80019c0:	d806      	bhi.n	80019d0 <_ntoa_format+0x12e>
      buf[len++] = 'b';
 80019c2:	69fb      	ldr	r3, [r7, #28]
 80019c4:	1c5a      	adds	r2, r3, #1
 80019c6:	61fa      	str	r2, [r7, #28]
 80019c8:	69ba      	ldr	r2, [r7, #24]
 80019ca:	4413      	add	r3, r2
 80019cc:	2262      	movs	r2, #98	; 0x62
 80019ce:	701a      	strb	r2, [r3, #0]
    }
    if (len < PRINTF_NTOA_BUFFER_SIZE) {
 80019d0:	69fb      	ldr	r3, [r7, #28]
 80019d2:	2b1f      	cmp	r3, #31
 80019d4:	d806      	bhi.n	80019e4 <_ntoa_format+0x142>
      buf[len++] = '0';
 80019d6:	69fb      	ldr	r3, [r7, #28]
 80019d8:	1c5a      	adds	r2, r3, #1
 80019da:	61fa      	str	r2, [r7, #28]
 80019dc:	69ba      	ldr	r2, [r7, #24]
 80019de:	4413      	add	r3, r2
 80019e0:	2230      	movs	r2, #48	; 0x30
 80019e2:	701a      	strb	r2, [r3, #0]
    }
  }

  if (len < PRINTF_NTOA_BUFFER_SIZE) {
 80019e4:	69fb      	ldr	r3, [r7, #28]
 80019e6:	2b1f      	cmp	r3, #31
 80019e8:	d824      	bhi.n	8001a34 <_ntoa_format+0x192>
    if (negative) {
 80019ea:	f897 3020 	ldrb.w	r3, [r7, #32]
 80019ee:	2b00      	cmp	r3, #0
 80019f0:	d007      	beq.n	8001a02 <_ntoa_format+0x160>
      buf[len++] = '-';
 80019f2:	69fb      	ldr	r3, [r7, #28]
 80019f4:	1c5a      	adds	r2, r3, #1
 80019f6:	61fa      	str	r2, [r7, #28]
 80019f8:	69ba      	ldr	r2, [r7, #24]
 80019fa:	4413      	add	r3, r2
 80019fc:	222d      	movs	r2, #45	; 0x2d
 80019fe:	701a      	strb	r2, [r3, #0]
 8001a00:	e018      	b.n	8001a34 <_ntoa_format+0x192>
    }
    else if (flags & FLAGS_PLUS) {
 8001a02:	6b3b      	ldr	r3, [r7, #48]	; 0x30
 8001a04:	f003 0304 	and.w	r3, r3, #4
 8001a08:	2b00      	cmp	r3, #0
 8001a0a:	d007      	beq.n	8001a1c <_ntoa_format+0x17a>
      buf[len++] = '+';  // ignore the space if the '+' exists
 8001a0c:	69fb      	ldr	r3, [r7, #28]
 8001a0e:	1c5a      	adds	r2, r3, #1
 8001a10:	61fa      	str	r2, [r7, #28]
 8001a12:	69ba      	ldr	r2, [r7, #24]
 8001a14:	4413      	add	r3, r2
 8001a16:	222b      	movs	r2, #43	; 0x2b
 8001a18:	701a      	strb	r2, [r3, #0]
 8001a1a:	e00b      	b.n	8001a34 <_ntoa_format+0x192>
    }
    else if (flags & FLAGS_SPACE) {
 8001a1c:	6b3b      	ldr	r3, [r7, #48]	; 0x30
 8001a1e:	f003 0308 	and.w	r3, r3, #8
 8001a22:	2b00      	cmp	r3, #0
 8001a24:	d006      	beq.n	8001a34 <_ntoa_format+0x192>
      buf[len++] = ' ';
 8001a26:	69fb      	ldr	r3, [r7, #28]
 8001a28:	1c5a      	adds	r2, r3, #1
 8001a2a:	61fa      	str	r2, [r7, #28]
 8001a2c:	69ba      	ldr	r2, [r7, #24]
 8001a2e:	4413      	add	r3, r2
 8001a30:	2220      	movs	r2, #32
 8001a32:	701a      	strb	r2, [r3, #0]
    }
  }

  return _out_rev(out, buffer, idx, maxlen, buf, len, width, flags);
 8001a34:	6b3b      	ldr	r3, [r7, #48]	; 0x30
 8001a36:	9303      	str	r3, [sp, #12]
 8001a38:	6afb      	ldr	r3, [r7, #44]	; 0x2c
 8001a3a:	9302      	str	r3, [sp, #8]
 8001a3c:	69fb      	ldr	r3, [r7, #28]
 8001a3e:	9301      	str	r3, [sp, #4]
 8001a40:	69bb      	ldr	r3, [r7, #24]
 8001a42:	9300      	str	r3, [sp, #0]
 8001a44:	683b      	ldr	r3, [r7, #0]
 8001a46:	687a      	ldr	r2, [r7, #4]
 8001a48:	68b9      	ldr	r1, [r7, #8]
 8001a4a:	68f8      	ldr	r0, [r7, #12]
 8001a4c:	f7ff fed9 	bl	8001802 <_out_rev>
 8001a50:	4603      	mov	r3, r0
}
 8001a52:	4618      	mov	r0, r3
 8001a54:	3710      	adds	r7, #16
 8001a56:	46bd      	mov	sp, r7
 8001a58:	bd80      	pop	{r7, pc}

08001a5a <_ntoa_long>:


// internal itoa for 'long' type
static size_t _ntoa_long(out_fct_type out, char* buffer, size_t idx, size_t maxlen, unsigned long value, bool negative, unsigned long base, unsigned int prec, unsigned int width, unsigned int flags)
{
 8001a5a:	b580      	push	{r7, lr}
 8001a5c:	b096      	sub	sp, #88	; 0x58
 8001a5e:	af08      	add	r7, sp, #32
 8001a60:	60f8      	str	r0, [r7, #12]
 8001a62:	60b9      	str	r1, [r7, #8]
 8001a64:	607a      	str	r2, [r7, #4]
 8001a66:	603b      	str	r3, [r7, #0]
  char buf[PRINTF_NTOA_BUFFER_SIZE];
  size_t len = 0U;
 8001a68:	2300      	movs	r3, #0
 8001a6a:	637b      	str	r3, [r7, #52]	; 0x34

  // no hash for 0 values
  if (!value) {
 8001a6c:	6c3b      	ldr	r3, [r7, #64]	; 0x40
 8001a6e:	2b00      	cmp	r3, #0
 8001a70:	d103      	bne.n	8001a7a <_ntoa_long+0x20>
    flags &= ~FLAGS_HASH;
 8001a72:	6d7b      	ldr	r3, [r7, #84]	; 0x54
 8001a74:	f023 0310 	bic.w	r3, r3, #16
 8001a78:	657b      	str	r3, [r7, #84]	; 0x54
  }

  // write if precision != 0 and value is != 0
  if (!(flags & FLAGS_PRECISION) || value) {
 8001a7a:	6d7b      	ldr	r3, [r7, #84]	; 0x54
 8001a7c:	f403 6380 	and.w	r3, r3, #1024	; 0x400
 8001a80:	2b00      	cmp	r3, #0
 8001a82:	d002      	beq.n	8001a8a <_ntoa_long+0x30>
 8001a84:	6c3b      	ldr	r3, [r7, #64]	; 0x40
 8001a86:	2b00      	cmp	r3, #0
 8001a88:	d033      	beq.n	8001af2 <_ntoa_long+0x98>
    do {
      const char digit = (char)(value % base);
 8001a8a:	6c3b      	ldr	r3, [r7, #64]	; 0x40
 8001a8c:	6cba      	ldr	r2, [r7, #72]	; 0x48
 8001a8e:	fbb3 f2f2 	udiv	r2, r3, r2
 8001a92:	6cb9      	ldr	r1, [r7, #72]	; 0x48
 8001a94:	fb01 f202 	mul.w	r2, r1, r2
 8001a98:	1a9b      	subs	r3, r3, r2
 8001a9a:	f887 3033 	strb.w	r3, [r7, #51]	; 0x33
      buf[len++] = digit < 10 ? '0' + digit : (flags & FLAGS_UPPERCASE ? 'A' : 'a') + digit - 10;
 8001a9e:	f897 3033 	ldrb.w	r3, [r7, #51]	; 0x33
 8001aa2:	2b09      	cmp	r3, #9
 8001aa4:	d804      	bhi.n	8001ab0 <_ntoa_long+0x56>
 8001aa6:	f897 3033 	ldrb.w	r3, [r7, #51]	; 0x33
 8001aaa:	3330      	adds	r3, #48	; 0x30
 8001aac:	b2da      	uxtb	r2, r3
 8001aae:	e00d      	b.n	8001acc <_ntoa_long+0x72>
 8001ab0:	6d7b      	ldr	r3, [r7, #84]	; 0x54
 8001ab2:	f003 0320 	and.w	r3, r3, #32
 8001ab6:	2b00      	cmp	r3, #0
 8001ab8:	d001      	beq.n	8001abe <_ntoa_long+0x64>
 8001aba:	2241      	movs	r2, #65	; 0x41
 8001abc:	e000      	b.n	8001ac0 <_ntoa_long+0x66>
 8001abe:	2261      	movs	r2, #97	; 0x61
 8001ac0:	f897 3033 	ldrb.w	r3, [r7, #51]	; 0x33
 8001ac4:	4413      	add	r3, r2
 8001ac6:	b2db      	uxtb	r3, r3
 8001ac8:	3b0a      	subs	r3, #10
 8001aca:	b2da      	uxtb	r2, r3
 8001acc:	6b7b      	ldr	r3, [r7, #52]	; 0x34
 8001ace:	1c59      	adds	r1, r3, #1
 8001ad0:	6379      	str	r1, [r7, #52]	; 0x34
 8001ad2:	f107 0138 	add.w	r1, r7, #56	; 0x38
 8001ad6:	440b      	add	r3, r1
 8001ad8:	f803 2c28 	strb.w	r2, [r3, #-40]
      value /= base;
 8001adc:	6c3a      	ldr	r2, [r7, #64]	; 0x40
 8001ade:	6cbb      	ldr	r3, [r7, #72]	; 0x48
 8001ae0:	fbb2 f3f3 	udiv	r3, r2, r3
 8001ae4:	643b      	str	r3, [r7, #64]	; 0x40
    } while (value && (len < PRINTF_NTOA_BUFFER_SIZE));
 8001ae6:	6c3b      	ldr	r3, [r7, #64]	; 0x40
 8001ae8:	2b00      	cmp	r3, #0
 8001aea:	d002      	beq.n	8001af2 <_ntoa_long+0x98>
 8001aec:	6b7b      	ldr	r3, [r7, #52]	; 0x34
 8001aee:	2b1f      	cmp	r3, #31
 8001af0:	d9cb      	bls.n	8001a8a <_ntoa_long+0x30>
  }

  return _ntoa_format(out, buffer, idx, maxlen, buf, len, negative, (unsigned int)base, prec, width, flags);
 8001af2:	6d7b      	ldr	r3, [r7, #84]	; 0x54
 8001af4:	9306      	str	r3, [sp, #24]
 8001af6:	6d3b      	ldr	r3, [r7, #80]	; 0x50
 8001af8:	9305      	str	r3, [sp, #20]
 8001afa:	6cfb      	ldr	r3, [r7, #76]	; 0x4c
 8001afc:	9304      	str	r3, [sp, #16]
 8001afe:	6cbb      	ldr	r3, [r7, #72]	; 0x48
 8001b00:	9303      	str	r3, [sp, #12]
 8001b02:	f897 3044 	ldrb.w	r3, [r7, #68]	; 0x44
 8001b06:	9302      	str	r3, [sp, #8]
 8001b08:	6b7b      	ldr	r3, [r7, #52]	; 0x34
 8001b0a:	9301      	str	r3, [sp, #4]
 8001b0c:	f107 0310 	add.w	r3, r7, #16
 8001b10:	9300      	str	r3, [sp, #0]
 8001b12:	683b      	ldr	r3, [r7, #0]
 8001b14:	687a      	ldr	r2, [r7, #4]
 8001b16:	68b9      	ldr	r1, [r7, #8]
 8001b18:	68f8      	ldr	r0, [r7, #12]
 8001b1a:	f7ff fec2 	bl	80018a2 <_ntoa_format>
 8001b1e:	4603      	mov	r3, r0
}
 8001b20:	4618      	mov	r0, r3
 8001b22:	3738      	adds	r7, #56	; 0x38
 8001b24:	46bd      	mov	sp, r7
 8001b26:	bd80      	pop	{r7, pc}

08001b28 <_ftoa>:
#endif


// internal ftoa for fixed decimal floating point
static size_t _ftoa(out_fct_type out, char* buffer, size_t idx, size_t maxlen, double value, unsigned int prec, unsigned int width, unsigned int flags)
{
 8001b28:	b590      	push	{r4, r7, lr}
 8001b2a:	b09d      	sub	sp, #116	; 0x74
 8001b2c:	af04      	add	r7, sp, #16
 8001b2e:	6178      	str	r0, [r7, #20]
 8001b30:	6139      	str	r1, [r7, #16]
 8001b32:	60fa      	str	r2, [r7, #12]
 8001b34:	60bb      	str	r3, [r7, #8]
 8001b36:	ed87 0b00 	vstr	d0, [r7]
  char buf[PRINTF_FTOA_BUFFER_SIZE];
  size_t len  = 0U;
 8001b3a:	2300      	movs	r3, #0
 8001b3c:	65fb      	str	r3, [r7, #92]	; 0x5c
  double diff = 0.0;
 8001b3e:	f04f 0300 	mov.w	r3, #0
 8001b42:	f04f 0400 	mov.w	r4, #0
 8001b46:	e9c7 3410 	strd	r3, r4, [r7, #64]	; 0x40

  // powers of 10
  static const double pow10[] = { 1, 10, 100, 1000, 10000, 100000, 1000000, 10000000, 100000000, 1000000000 };

  // test for special values
  if (value != value)
 8001b4a:	e9d7 2300 	ldrd	r2, r3, [r7]
 8001b4e:	e9d7 0100 	ldrd	r0, r1, [r7]
 8001b52:	f002 f8bb 	bl	8003ccc <__aeabi_dcmpeq>
 8001b56:	4603      	mov	r3, r0
 8001b58:	2b00      	cmp	r3, #0
 8001b5a:	d10f      	bne.n	8001b7c <_ftoa+0x54>
    return _out_rev(out, buffer, idx, maxlen, "nan", 3, width, flags);
 8001b5c:	6fbb      	ldr	r3, [r7, #120]	; 0x78
 8001b5e:	9303      	str	r3, [sp, #12]
 8001b60:	6f7b      	ldr	r3, [r7, #116]	; 0x74
 8001b62:	9302      	str	r3, [sp, #8]
 8001b64:	2303      	movs	r3, #3
 8001b66:	9301      	str	r3, [sp, #4]
 8001b68:	4ba7      	ldr	r3, [pc, #668]	; (8001e08 <_ftoa+0x2e0>)
 8001b6a:	9300      	str	r3, [sp, #0]
 8001b6c:	68bb      	ldr	r3, [r7, #8]
 8001b6e:	68fa      	ldr	r2, [r7, #12]
 8001b70:	6939      	ldr	r1, [r7, #16]
 8001b72:	6978      	ldr	r0, [r7, #20]
 8001b74:	f7ff fe45 	bl	8001802 <_out_rev>
 8001b78:	4603      	mov	r3, r0
 8001b7a:	e227      	b.n	8001fcc <_ftoa+0x4a4>
  if (value < -DBL_MAX)
 8001b7c:	f04f 32ff 	mov.w	r2, #4294967295	; 0xffffffff
 8001b80:	f46f 1380 	mvn.w	r3, #1048576	; 0x100000
 8001b84:	e9d7 0100 	ldrd	r0, r1, [r7]
 8001b88:	f002 f8aa 	bl	8003ce0 <__aeabi_dcmplt>
 8001b8c:	4603      	mov	r3, r0
 8001b8e:	2b00      	cmp	r3, #0
 8001b90:	d00f      	beq.n	8001bb2 <_ftoa+0x8a>
    return _out_rev(out, buffer, idx, maxlen, "fni-", 4, width, flags);
 8001b92:	6fbb      	ldr	r3, [r7, #120]	; 0x78
 8001b94:	9303      	str	r3, [sp, #12]
 8001b96:	6f7b      	ldr	r3, [r7, #116]	; 0x74
 8001b98:	9302      	str	r3, [sp, #8]
 8001b9a:	2304      	movs	r3, #4
 8001b9c:	9301      	str	r3, [sp, #4]
 8001b9e:	4b9b      	ldr	r3, [pc, #620]	; (8001e0c <_ftoa+0x2e4>)
 8001ba0:	9300      	str	r3, [sp, #0]
 8001ba2:	68bb      	ldr	r3, [r7, #8]
 8001ba4:	68fa      	ldr	r2, [r7, #12]
 8001ba6:	6939      	ldr	r1, [r7, #16]
 8001ba8:	6978      	ldr	r0, [r7, #20]
 8001baa:	f7ff fe2a 	bl	8001802 <_out_rev>
 8001bae:	4603      	mov	r3, r0
 8001bb0:	e20c      	b.n	8001fcc <_ftoa+0x4a4>
  if (value > DBL_MAX)
 8001bb2:	f04f 32ff 	mov.w	r2, #4294967295	; 0xffffffff
 8001bb6:	4b96      	ldr	r3, [pc, #600]	; (8001e10 <_ftoa+0x2e8>)
 8001bb8:	e9d7 0100 	ldrd	r0, r1, [r7]
 8001bbc:	f002 f8ae 	bl	8003d1c <__aeabi_dcmpgt>
 8001bc0:	4603      	mov	r3, r0
 8001bc2:	2b00      	cmp	r3, #0
 8001bc4:	d01d      	beq.n	8001c02 <_ftoa+0xda>
    return _out_rev(out, buffer, idx, maxlen, (flags & FLAGS_PLUS) ? "fni+" : "fni", (flags & FLAGS_PLUS) ? 4U : 3U, width, flags);
 8001bc6:	6fbb      	ldr	r3, [r7, #120]	; 0x78
 8001bc8:	f003 0304 	and.w	r3, r3, #4
 8001bcc:	2b00      	cmp	r3, #0
 8001bce:	d001      	beq.n	8001bd4 <_ftoa+0xac>
 8001bd0:	4b90      	ldr	r3, [pc, #576]	; (8001e14 <_ftoa+0x2ec>)
 8001bd2:	e000      	b.n	8001bd6 <_ftoa+0xae>
 8001bd4:	4b90      	ldr	r3, [pc, #576]	; (8001e18 <_ftoa+0x2f0>)
 8001bd6:	6fba      	ldr	r2, [r7, #120]	; 0x78
 8001bd8:	f002 0204 	and.w	r2, r2, #4
 8001bdc:	2a00      	cmp	r2, #0
 8001bde:	d001      	beq.n	8001be4 <_ftoa+0xbc>
 8001be0:	2204      	movs	r2, #4
 8001be2:	e000      	b.n	8001be6 <_ftoa+0xbe>
 8001be4:	2203      	movs	r2, #3
 8001be6:	6fb9      	ldr	r1, [r7, #120]	; 0x78
 8001be8:	9103      	str	r1, [sp, #12]
 8001bea:	6f79      	ldr	r1, [r7, #116]	; 0x74
 8001bec:	9102      	str	r1, [sp, #8]
 8001bee:	9201      	str	r2, [sp, #4]
 8001bf0:	9300      	str	r3, [sp, #0]
 8001bf2:	68bb      	ldr	r3, [r7, #8]
 8001bf4:	68fa      	ldr	r2, [r7, #12]
 8001bf6:	6939      	ldr	r1, [r7, #16]
 8001bf8:	6978      	ldr	r0, [r7, #20]
 8001bfa:	f7ff fe02 	bl	8001802 <_out_rev>
 8001bfe:	4603      	mov	r3, r0
 8001c00:	e1e4      	b.n	8001fcc <_ftoa+0x4a4>

  // test for very large values
  // standard printf behavior is to print EVERY whole number digit -- which could be 100s of characters overflowing your buffers == bad
  if ((value > PRINTF_MAX_FLOAT) || (value < -PRINTF_MAX_FLOAT)) {
 8001c02:	a37d      	add	r3, pc, #500	; (adr r3, 8001df8 <_ftoa+0x2d0>)
 8001c04:	e9d3 2300 	ldrd	r2, r3, [r3]
 8001c08:	e9d7 0100 	ldrd	r0, r1, [r7]
 8001c0c:	f002 f886 	bl	8003d1c <__aeabi_dcmpgt>
 8001c10:	4603      	mov	r3, r0
 8001c12:	2b00      	cmp	r3, #0
 8001c14:	d109      	bne.n	8001c2a <_ftoa+0x102>
 8001c16:	a37a      	add	r3, pc, #488	; (adr r3, 8001e00 <_ftoa+0x2d8>)
 8001c18:	e9d3 2300 	ldrd	r2, r3, [r3]
 8001c1c:	e9d7 0100 	ldrd	r0, r1, [r7]
 8001c20:	f002 f85e 	bl	8003ce0 <__aeabi_dcmplt>
 8001c24:	4603      	mov	r3, r0
 8001c26:	2b00      	cmp	r3, #0
 8001c28:	d001      	beq.n	8001c2e <_ftoa+0x106>
#if defined(PRINTF_SUPPORT_EXPONENTIAL)
    return _etoa(out, buffer, idx, maxlen, value, prec, width, flags);
#else
    return 0U;
 8001c2a:	2300      	movs	r3, #0
 8001c2c:	e1ce      	b.n	8001fcc <_ftoa+0x4a4>
#endif
  }

  // test for negative
  bool negative = false;
 8001c2e:	2300      	movs	r3, #0
 8001c30:	f887 305b 	strb.w	r3, [r7, #91]	; 0x5b
  if (value < 0) {
 8001c34:	f04f 0200 	mov.w	r2, #0
 8001c38:	f04f 0300 	mov.w	r3, #0
 8001c3c:	e9d7 0100 	ldrd	r0, r1, [r7]
 8001c40:	f002 f84e 	bl	8003ce0 <__aeabi_dcmplt>
 8001c44:	4603      	mov	r3, r0
 8001c46:	2b00      	cmp	r3, #0
 8001c48:	d00e      	beq.n	8001c68 <_ftoa+0x140>
    negative = true;
 8001c4a:	2301      	movs	r3, #1
 8001c4c:	f887 305b 	strb.w	r3, [r7, #91]	; 0x5b
    value = 0 - value;
 8001c50:	e9d7 2300 	ldrd	r2, r3, [r7]
 8001c54:	f04f 0000 	mov.w	r0, #0
 8001c58:	f04f 0100 	mov.w	r1, #0
 8001c5c:	f001 fc16 	bl	800348c <__aeabi_dsub>
 8001c60:	4603      	mov	r3, r0
 8001c62:	460c      	mov	r4, r1
 8001c64:	e9c7 3400 	strd	r3, r4, [r7]
  }

  // set default precision, if not set explicitly
  if (!(flags & FLAGS_PRECISION)) {
 8001c68:	6fbb      	ldr	r3, [r7, #120]	; 0x78
 8001c6a:	f403 6380 	and.w	r3, r3, #1024	; 0x400
 8001c6e:	2b00      	cmp	r3, #0
 8001c70:	d10e      	bne.n	8001c90 <_ftoa+0x168>
    prec = PRINTF_DEFAULT_FLOAT_PRECISION;
 8001c72:	2306      	movs	r3, #6
 8001c74:	673b      	str	r3, [r7, #112]	; 0x70
  }
  // limit precision to 9, cause a prec >= 10 can lead to overflow errors
  while ((len < PRINTF_FTOA_BUFFER_SIZE) && (prec > 9U)) {
 8001c76:	e00b      	b.n	8001c90 <_ftoa+0x168>
    buf[len++] = '0';
 8001c78:	6dfb      	ldr	r3, [r7, #92]	; 0x5c
 8001c7a:	1c5a      	adds	r2, r3, #1
 8001c7c:	65fa      	str	r2, [r7, #92]	; 0x5c
 8001c7e:	f107 0260 	add.w	r2, r7, #96	; 0x60
 8001c82:	4413      	add	r3, r2
 8001c84:	2230      	movs	r2, #48	; 0x30
 8001c86:	f803 2c48 	strb.w	r2, [r3, #-72]
    prec--;
 8001c8a:	6f3b      	ldr	r3, [r7, #112]	; 0x70
 8001c8c:	3b01      	subs	r3, #1
 8001c8e:	673b      	str	r3, [r7, #112]	; 0x70
  while ((len < PRINTF_FTOA_BUFFER_SIZE) && (prec > 9U)) {
 8001c90:	6dfb      	ldr	r3, [r7, #92]	; 0x5c
 8001c92:	2b1f      	cmp	r3, #31
 8001c94:	d802      	bhi.n	8001c9c <_ftoa+0x174>
 8001c96:	6f3b      	ldr	r3, [r7, #112]	; 0x70
 8001c98:	2b09      	cmp	r3, #9
 8001c9a:	d8ed      	bhi.n	8001c78 <_ftoa+0x150>
  }

  int whole = (int)value;
 8001c9c:	e9d7 0100 	ldrd	r0, r1, [r7]
 8001ca0:	f002 f846 	bl	8003d30 <__aeabi_d2iz>
 8001ca4:	4603      	mov	r3, r0
 8001ca6:	657b      	str	r3, [r7, #84]	; 0x54
  double tmp = (value - whole) * pow10[prec];
 8001ca8:	6d78      	ldr	r0, [r7, #84]	; 0x54
 8001caa:	f001 fd3d 	bl	8003728 <__aeabi_i2d>
 8001cae:	4603      	mov	r3, r0
 8001cb0:	460c      	mov	r4, r1
 8001cb2:	461a      	mov	r2, r3
 8001cb4:	4623      	mov	r3, r4
 8001cb6:	e9d7 0100 	ldrd	r0, r1, [r7]
 8001cba:	f001 fbe7 	bl	800348c <__aeabi_dsub>
 8001cbe:	4603      	mov	r3, r0
 8001cc0:	460c      	mov	r4, r1
 8001cc2:	4618      	mov	r0, r3
 8001cc4:	4621      	mov	r1, r4
 8001cc6:	4a55      	ldr	r2, [pc, #340]	; (8001e1c <_ftoa+0x2f4>)
 8001cc8:	6f3b      	ldr	r3, [r7, #112]	; 0x70
 8001cca:	00db      	lsls	r3, r3, #3
 8001ccc:	4413      	add	r3, r2
 8001cce:	e9d3 3400 	ldrd	r3, r4, [r3]
 8001cd2:	461a      	mov	r2, r3
 8001cd4:	4623      	mov	r3, r4
 8001cd6:	f001 fd91 	bl	80037fc <__aeabi_dmul>
 8001cda:	4603      	mov	r3, r0
 8001cdc:	460c      	mov	r4, r1
 8001cde:	e9c7 340e 	strd	r3, r4, [r7, #56]	; 0x38
  unsigned long frac = (unsigned long)tmp;
 8001ce2:	e9d7 010e 	ldrd	r0, r1, [r7, #56]	; 0x38
 8001ce6:	f002 f84b 	bl	8003d80 <__aeabi_d2uiz>
 8001cea:	4603      	mov	r3, r0
 8001cec:	653b      	str	r3, [r7, #80]	; 0x50
  diff = tmp - frac;
 8001cee:	6d38      	ldr	r0, [r7, #80]	; 0x50
 8001cf0:	f001 fd0a 	bl	8003708 <__aeabi_ui2d>
 8001cf4:	4603      	mov	r3, r0
 8001cf6:	460c      	mov	r4, r1
 8001cf8:	461a      	mov	r2, r3
 8001cfa:	4623      	mov	r3, r4
 8001cfc:	e9d7 010e 	ldrd	r0, r1, [r7, #56]	; 0x38
 8001d00:	f001 fbc4 	bl	800348c <__aeabi_dsub>
 8001d04:	4603      	mov	r3, r0
 8001d06:	460c      	mov	r4, r1
 8001d08:	e9c7 3410 	strd	r3, r4, [r7, #64]	; 0x40

  if (diff > 0.5) {
 8001d0c:	f04f 0200 	mov.w	r2, #0
 8001d10:	4b43      	ldr	r3, [pc, #268]	; (8001e20 <_ftoa+0x2f8>)
 8001d12:	e9d7 0110 	ldrd	r0, r1, [r7, #64]	; 0x40
 8001d16:	f002 f801 	bl	8003d1c <__aeabi_dcmpgt>
 8001d1a:	4603      	mov	r3, r0
 8001d1c:	2b00      	cmp	r3, #0
 8001d1e:	d018      	beq.n	8001d52 <_ftoa+0x22a>
    ++frac;
 8001d20:	6d3b      	ldr	r3, [r7, #80]	; 0x50
 8001d22:	3301      	adds	r3, #1
 8001d24:	653b      	str	r3, [r7, #80]	; 0x50
    // handle rollover, e.g. case 0.99 with prec 1 is 1.0
    if (frac >= pow10[prec]) {
 8001d26:	6d38      	ldr	r0, [r7, #80]	; 0x50
 8001d28:	f001 fcee 	bl	8003708 <__aeabi_ui2d>
 8001d2c:	4a3b      	ldr	r2, [pc, #236]	; (8001e1c <_ftoa+0x2f4>)
 8001d2e:	6f3b      	ldr	r3, [r7, #112]	; 0x70
 8001d30:	00db      	lsls	r3, r3, #3
 8001d32:	4413      	add	r3, r2
 8001d34:	e9d3 3400 	ldrd	r3, r4, [r3]
 8001d38:	461a      	mov	r2, r3
 8001d3a:	4623      	mov	r3, r4
 8001d3c:	f001 ffe4 	bl	8003d08 <__aeabi_dcmpge>
 8001d40:	4603      	mov	r3, r0
 8001d42:	2b00      	cmp	r3, #0
 8001d44:	d01a      	beq.n	8001d7c <_ftoa+0x254>
      frac = 0;
 8001d46:	2300      	movs	r3, #0
 8001d48:	653b      	str	r3, [r7, #80]	; 0x50
      ++whole;
 8001d4a:	6d7b      	ldr	r3, [r7, #84]	; 0x54
 8001d4c:	3301      	adds	r3, #1
 8001d4e:	657b      	str	r3, [r7, #84]	; 0x54
 8001d50:	e014      	b.n	8001d7c <_ftoa+0x254>
    }
  }
  else if (diff < 0.5) {
 8001d52:	f04f 0200 	mov.w	r2, #0
 8001d56:	4b32      	ldr	r3, [pc, #200]	; (8001e20 <_ftoa+0x2f8>)
 8001d58:	e9d7 0110 	ldrd	r0, r1, [r7, #64]	; 0x40
 8001d5c:	f001 ffc0 	bl	8003ce0 <__aeabi_dcmplt>
 8001d60:	4603      	mov	r3, r0
 8001d62:	2b00      	cmp	r3, #0
 8001d64:	d10a      	bne.n	8001d7c <_ftoa+0x254>
  }
  else if ((frac == 0U) || (frac & 1U)) {
 8001d66:	6d3b      	ldr	r3, [r7, #80]	; 0x50
 8001d68:	2b00      	cmp	r3, #0
 8001d6a:	d004      	beq.n	8001d76 <_ftoa+0x24e>
 8001d6c:	6d3b      	ldr	r3, [r7, #80]	; 0x50
 8001d6e:	f003 0301 	and.w	r3, r3, #1
 8001d72:	2b00      	cmp	r3, #0
 8001d74:	d002      	beq.n	8001d7c <_ftoa+0x254>
    // if halfway, round up if odd OR if last digit is 0
    ++frac;
 8001d76:	6d3b      	ldr	r3, [r7, #80]	; 0x50
 8001d78:	3301      	adds	r3, #1
 8001d7a:	653b      	str	r3, [r7, #80]	; 0x50
  }

  if (prec == 0U) {
 8001d7c:	6f3b      	ldr	r3, [r7, #112]	; 0x70
 8001d7e:	2b00      	cmp	r3, #0
 8001d80:	d136      	bne.n	8001df0 <_ftoa+0x2c8>
    diff = value - (double)whole;
 8001d82:	6d78      	ldr	r0, [r7, #84]	; 0x54
 8001d84:	f001 fcd0 	bl	8003728 <__aeabi_i2d>
 8001d88:	4603      	mov	r3, r0
 8001d8a:	460c      	mov	r4, r1
 8001d8c:	461a      	mov	r2, r3
 8001d8e:	4623      	mov	r3, r4
 8001d90:	e9d7 0100 	ldrd	r0, r1, [r7]
 8001d94:	f001 fb7a 	bl	800348c <__aeabi_dsub>
 8001d98:	4603      	mov	r3, r0
 8001d9a:	460c      	mov	r4, r1
 8001d9c:	e9c7 3410 	strd	r3, r4, [r7, #64]	; 0x40
    if ((!(diff < 0.5) || (diff > 0.5)) && (whole & 1)) {
 8001da0:	2301      	movs	r3, #1
 8001da2:	461c      	mov	r4, r3
 8001da4:	f04f 0200 	mov.w	r2, #0
 8001da8:	4b1d      	ldr	r3, [pc, #116]	; (8001e20 <_ftoa+0x2f8>)
 8001daa:	e9d7 0110 	ldrd	r0, r1, [r7, #64]	; 0x40
 8001dae:	f001 ff97 	bl	8003ce0 <__aeabi_dcmplt>
 8001db2:	4603      	mov	r3, r0
 8001db4:	2b00      	cmp	r3, #0
 8001db6:	d101      	bne.n	8001dbc <_ftoa+0x294>
 8001db8:	2300      	movs	r3, #0
 8001dba:	461c      	mov	r4, r3
 8001dbc:	b2e3      	uxtb	r3, r4
 8001dbe:	f083 0301 	eor.w	r3, r3, #1
 8001dc2:	b2db      	uxtb	r3, r3
 8001dc4:	2b00      	cmp	r3, #0
 8001dc6:	d109      	bne.n	8001ddc <_ftoa+0x2b4>
 8001dc8:	f04f 0200 	mov.w	r2, #0
 8001dcc:	4b14      	ldr	r3, [pc, #80]	; (8001e20 <_ftoa+0x2f8>)
 8001dce:	e9d7 0110 	ldrd	r0, r1, [r7, #64]	; 0x40
 8001dd2:	f001 ffa3 	bl	8003d1c <__aeabi_dcmpgt>
 8001dd6:	4603      	mov	r3, r0
 8001dd8:	2b00      	cmp	r3, #0
 8001dda:	d067      	beq.n	8001eac <_ftoa+0x384>
 8001ddc:	6d7b      	ldr	r3, [r7, #84]	; 0x54
 8001dde:	f003 0301 	and.w	r3, r3, #1
 8001de2:	2b00      	cmp	r3, #0
 8001de4:	f000 8085 	beq.w	8001ef2 <_ftoa+0x3ca>
      // exactly 0.5 and ODD, then round up
      // 1.5 -> 2, but 2.5 -> 2
      ++whole;
 8001de8:	6d7b      	ldr	r3, [r7, #84]	; 0x54
 8001dea:	3301      	adds	r3, #1
 8001dec:	657b      	str	r3, [r7, #84]	; 0x54
 8001dee:	e080      	b.n	8001ef2 <_ftoa+0x3ca>
    }
  }
  else {
    unsigned int count = prec;
 8001df0:	6f3b      	ldr	r3, [r7, #112]	; 0x70
 8001df2:	64fb      	str	r3, [r7, #76]	; 0x4c
    // now do fractional part, as an unsigned number
    while (len < PRINTF_FTOA_BUFFER_SIZE) {
 8001df4:	e037      	b.n	8001e66 <_ftoa+0x33e>
 8001df6:	bf00      	nop
 8001df8:	00000000 	andeq	r0, r0, r0
 8001dfc:	41cdcd65 	bicmi	ip, sp, r5, ror #26
 8001e00:	00000000 	andeq	r0, r0, r0
 8001e04:	c1cdcd65 	bicgt	ip, sp, r5, ror #26
 8001e08:	080041e0 	stmdaeq	r0, {r5, r6, r7, r8, lr}
 8001e0c:	080041e4 	stmdaeq	r0, {r2, r5, r6, r7, r8, lr}
 8001e10:	7fefffff 	svcvc	0x00efffff
 8001e14:	080041ec 	stmdaeq	r0, {r2, r3, r5, r6, r7, r8, lr}
 8001e18:	080041f4 	stmdaeq	r0, {r2, r4, r5, r6, r7, r8, lr}
 8001e1c:	080041f8 	stmdaeq	r0, {r3, r4, r5, r6, r7, r8, lr}
 8001e20:	3fe00000 	svccc	0x00e00000
      --count;
 8001e24:	6cfb      	ldr	r3, [r7, #76]	; 0x4c
 8001e26:	3b01      	subs	r3, #1
 8001e28:	64fb      	str	r3, [r7, #76]	; 0x4c
      buf[len++] = (char)(48U + (frac % 10U));
 8001e2a:	6d39      	ldr	r1, [r7, #80]	; 0x50
 8001e2c:	4b69      	ldr	r3, [pc, #420]	; (8001fd4 <_ftoa+0x4ac>)
 8001e2e:	fba3 2301 	umull	r2, r3, r3, r1
 8001e32:	08da      	lsrs	r2, r3, #3
 8001e34:	4613      	mov	r3, r2
 8001e36:	009b      	lsls	r3, r3, #2
 8001e38:	4413      	add	r3, r2
 8001e3a:	005b      	lsls	r3, r3, #1
 8001e3c:	1aca      	subs	r2, r1, r3
 8001e3e:	b2d2      	uxtb	r2, r2
 8001e40:	6dfb      	ldr	r3, [r7, #92]	; 0x5c
 8001e42:	1c59      	adds	r1, r3, #1
 8001e44:	65f9      	str	r1, [r7, #92]	; 0x5c
 8001e46:	3230      	adds	r2, #48	; 0x30
 8001e48:	b2d2      	uxtb	r2, r2
 8001e4a:	f107 0160 	add.w	r1, r7, #96	; 0x60
 8001e4e:	440b      	add	r3, r1
 8001e50:	f803 2c48 	strb.w	r2, [r3, #-72]
      if (!(frac /= 10U)) {
 8001e54:	6d3b      	ldr	r3, [r7, #80]	; 0x50
 8001e56:	4a5f      	ldr	r2, [pc, #380]	; (8001fd4 <_ftoa+0x4ac>)
 8001e58:	fba2 2303 	umull	r2, r3, r2, r3
 8001e5c:	08db      	lsrs	r3, r3, #3
 8001e5e:	653b      	str	r3, [r7, #80]	; 0x50
 8001e60:	6d3b      	ldr	r3, [r7, #80]	; 0x50
 8001e62:	2b00      	cmp	r3, #0
 8001e64:	d003      	beq.n	8001e6e <_ftoa+0x346>
    while (len < PRINTF_FTOA_BUFFER_SIZE) {
 8001e66:	6dfb      	ldr	r3, [r7, #92]	; 0x5c
 8001e68:	2b1f      	cmp	r3, #31
 8001e6a:	d9db      	bls.n	8001e24 <_ftoa+0x2fc>
 8001e6c:	e00a      	b.n	8001e84 <_ftoa+0x35c>
        break;
 8001e6e:	bf00      	nop
      }
    }
    // add extra 0s
    while ((len < PRINTF_FTOA_BUFFER_SIZE) && (count-- > 0U)) {
 8001e70:	e008      	b.n	8001e84 <_ftoa+0x35c>
      buf[len++] = '0';
 8001e72:	6dfb      	ldr	r3, [r7, #92]	; 0x5c
 8001e74:	1c5a      	adds	r2, r3, #1
 8001e76:	65fa      	str	r2, [r7, #92]	; 0x5c
 8001e78:	f107 0260 	add.w	r2, r7, #96	; 0x60
 8001e7c:	4413      	add	r3, r2
 8001e7e:	2230      	movs	r2, #48	; 0x30
 8001e80:	f803 2c48 	strb.w	r2, [r3, #-72]
    while ((len < PRINTF_FTOA_BUFFER_SIZE) && (count-- > 0U)) {
 8001e84:	6dfb      	ldr	r3, [r7, #92]	; 0x5c
 8001e86:	2b1f      	cmp	r3, #31
 8001e88:	d804      	bhi.n	8001e94 <_ftoa+0x36c>
 8001e8a:	6cfb      	ldr	r3, [r7, #76]	; 0x4c
 8001e8c:	1e5a      	subs	r2, r3, #1
 8001e8e:	64fa      	str	r2, [r7, #76]	; 0x4c
 8001e90:	2b00      	cmp	r3, #0
 8001e92:	d1ee      	bne.n	8001e72 <_ftoa+0x34a>
    }
    if (len < PRINTF_FTOA_BUFFER_SIZE) {
 8001e94:	6dfb      	ldr	r3, [r7, #92]	; 0x5c
 8001e96:	2b1f      	cmp	r3, #31
 8001e98:	d82b      	bhi.n	8001ef2 <_ftoa+0x3ca>
      // add decimal
      buf[len++] = '.';
 8001e9a:	6dfb      	ldr	r3, [r7, #92]	; 0x5c
 8001e9c:	1c5a      	adds	r2, r3, #1
 8001e9e:	65fa      	str	r2, [r7, #92]	; 0x5c
 8001ea0:	f107 0260 	add.w	r2, r7, #96	; 0x60
 8001ea4:	4413      	add	r3, r2
 8001ea6:	222e      	movs	r2, #46	; 0x2e
 8001ea8:	f803 2c48 	strb.w	r2, [r3, #-72]
    }
  }

  // do whole part, number is reversed
  while (len < PRINTF_FTOA_BUFFER_SIZE) {
 8001eac:	e021      	b.n	8001ef2 <_ftoa+0x3ca>
    buf[len++] = (char)(48 + (whole % 10));
 8001eae:	6d7a      	ldr	r2, [r7, #84]	; 0x54
 8001eb0:	4b49      	ldr	r3, [pc, #292]	; (8001fd8 <_ftoa+0x4b0>)
 8001eb2:	fb83 1302 	smull	r1, r3, r3, r2
 8001eb6:	1099      	asrs	r1, r3, #2
 8001eb8:	17d3      	asrs	r3, r2, #31
 8001eba:	1ac9      	subs	r1, r1, r3
 8001ebc:	460b      	mov	r3, r1
 8001ebe:	009b      	lsls	r3, r3, #2
 8001ec0:	440b      	add	r3, r1
 8001ec2:	005b      	lsls	r3, r3, #1
 8001ec4:	1ad1      	subs	r1, r2, r3
 8001ec6:	b2ca      	uxtb	r2, r1
 8001ec8:	6dfb      	ldr	r3, [r7, #92]	; 0x5c
 8001eca:	1c59      	adds	r1, r3, #1
 8001ecc:	65f9      	str	r1, [r7, #92]	; 0x5c
 8001ece:	3230      	adds	r2, #48	; 0x30
 8001ed0:	b2d2      	uxtb	r2, r2
 8001ed2:	f107 0160 	add.w	r1, r7, #96	; 0x60
 8001ed6:	440b      	add	r3, r1
 8001ed8:	f803 2c48 	strb.w	r2, [r3, #-72]
    if (!(whole /= 10)) {
 8001edc:	6d7b      	ldr	r3, [r7, #84]	; 0x54
 8001ede:	4a3e      	ldr	r2, [pc, #248]	; (8001fd8 <_ftoa+0x4b0>)
 8001ee0:	fb82 1203 	smull	r1, r2, r2, r3
 8001ee4:	1092      	asrs	r2, r2, #2
 8001ee6:	17db      	asrs	r3, r3, #31
 8001ee8:	1ad3      	subs	r3, r2, r3
 8001eea:	657b      	str	r3, [r7, #84]	; 0x54
 8001eec:	6d7b      	ldr	r3, [r7, #84]	; 0x54
 8001eee:	2b00      	cmp	r3, #0
 8001ef0:	d003      	beq.n	8001efa <_ftoa+0x3d2>
  while (len < PRINTF_FTOA_BUFFER_SIZE) {
 8001ef2:	6dfb      	ldr	r3, [r7, #92]	; 0x5c
 8001ef4:	2b1f      	cmp	r3, #31
 8001ef6:	d9da      	bls.n	8001eae <_ftoa+0x386>
 8001ef8:	e000      	b.n	8001efc <_ftoa+0x3d4>
      break;
 8001efa:	bf00      	nop
    }
  }

  // pad leading zeros
  if (!(flags & FLAGS_LEFT) && (flags & FLAGS_ZEROPAD)) {
 8001efc:	6fbb      	ldr	r3, [r7, #120]	; 0x78
 8001efe:	f003 0302 	and.w	r3, r3, #2
 8001f02:	2b00      	cmp	r3, #0
 8001f04:	d124      	bne.n	8001f50 <_ftoa+0x428>
 8001f06:	6fbb      	ldr	r3, [r7, #120]	; 0x78
 8001f08:	f003 0301 	and.w	r3, r3, #1
 8001f0c:	2b00      	cmp	r3, #0
 8001f0e:	d01f      	beq.n	8001f50 <_ftoa+0x428>
    if (width && (negative || (flags & (FLAGS_PLUS | FLAGS_SPACE)))) {
 8001f10:	6f7b      	ldr	r3, [r7, #116]	; 0x74
 8001f12:	2b00      	cmp	r3, #0
 8001f14:	d015      	beq.n	8001f42 <_ftoa+0x41a>
 8001f16:	f897 305b 	ldrb.w	r3, [r7, #91]	; 0x5b
 8001f1a:	2b00      	cmp	r3, #0
 8001f1c:	d104      	bne.n	8001f28 <_ftoa+0x400>
 8001f1e:	6fbb      	ldr	r3, [r7, #120]	; 0x78
 8001f20:	f003 030c 	and.w	r3, r3, #12
 8001f24:	2b00      	cmp	r3, #0
 8001f26:	d00c      	beq.n	8001f42 <_ftoa+0x41a>
      width--;
 8001f28:	6f7b      	ldr	r3, [r7, #116]	; 0x74
 8001f2a:	3b01      	subs	r3, #1
 8001f2c:	677b      	str	r3, [r7, #116]	; 0x74
    }
    while ((len < width) && (len < PRINTF_FTOA_BUFFER_SIZE)) {
 8001f2e:	e008      	b.n	8001f42 <_ftoa+0x41a>
      buf[len++] = '0';
 8001f30:	6dfb      	ldr	r3, [r7, #92]	; 0x5c
 8001f32:	1c5a      	adds	r2, r3, #1
 8001f34:	65fa      	str	r2, [r7, #92]	; 0x5c
 8001f36:	f107 0260 	add.w	r2, r7, #96	; 0x60
 8001f3a:	4413      	add	r3, r2
 8001f3c:	2230      	movs	r2, #48	; 0x30
 8001f3e:	f803 2c48 	strb.w	r2, [r3, #-72]
    while ((len < width) && (len < PRINTF_FTOA_BUFFER_SIZE)) {
 8001f42:	6dfa      	ldr	r2, [r7, #92]	; 0x5c
 8001f44:	6f7b      	ldr	r3, [r7, #116]	; 0x74
 8001f46:	429a      	cmp	r2, r3
 8001f48:	d202      	bcs.n	8001f50 <_ftoa+0x428>
 8001f4a:	6dfb      	ldr	r3, [r7, #92]	; 0x5c
 8001f4c:	2b1f      	cmp	r3, #31
 8001f4e:	d9ef      	bls.n	8001f30 <_ftoa+0x408>
    }
  }

  if (len < PRINTF_FTOA_BUFFER_SIZE) {
 8001f50:	6dfb      	ldr	r3, [r7, #92]	; 0x5c
 8001f52:	2b1f      	cmp	r3, #31
 8001f54:	d82a      	bhi.n	8001fac <_ftoa+0x484>
    if (negative) {
 8001f56:	f897 305b 	ldrb.w	r3, [r7, #91]	; 0x5b
 8001f5a:	2b00      	cmp	r3, #0
 8001f5c:	d009      	beq.n	8001f72 <_ftoa+0x44a>
      buf[len++] = '-';
 8001f5e:	6dfb      	ldr	r3, [r7, #92]	; 0x5c
 8001f60:	1c5a      	adds	r2, r3, #1
 8001f62:	65fa      	str	r2, [r7, #92]	; 0x5c
 8001f64:	f107 0260 	add.w	r2, r7, #96	; 0x60
 8001f68:	4413      	add	r3, r2
 8001f6a:	222d      	movs	r2, #45	; 0x2d
 8001f6c:	f803 2c48 	strb.w	r2, [r3, #-72]
 8001f70:	e01c      	b.n	8001fac <_ftoa+0x484>
    }
    else if (flags & FLAGS_PLUS) {
 8001f72:	6fbb      	ldr	r3, [r7, #120]	; 0x78
 8001f74:	f003 0304 	and.w	r3, r3, #4
 8001f78:	2b00      	cmp	r3, #0
 8001f7a:	d009      	beq.n	8001f90 <_ftoa+0x468>
      buf[len++] = '+';  // ignore the space if the '+' exists
 8001f7c:	6dfb      	ldr	r3, [r7, #92]	; 0x5c
 8001f7e:	1c5a      	adds	r2, r3, #1
 8001f80:	65fa      	str	r2, [r7, #92]	; 0x5c
 8001f82:	f107 0260 	add.w	r2, r7, #96	; 0x60
 8001f86:	4413      	add	r3, r2
 8001f88:	222b      	movs	r2, #43	; 0x2b
 8001f8a:	f803 2c48 	strb.w	r2, [r3, #-72]
 8001f8e:	e00d      	b.n	8001fac <_ftoa+0x484>
    }
    else if (flags & FLAGS_SPACE) {
 8001f90:	6fbb      	ldr	r3, [r7, #120]	; 0x78
 8001f92:	f003 0308 	and.w	r3, r3, #8
 8001f96:	2b00      	cmp	r3, #0
 8001f98:	d008      	beq.n	8001fac <_ftoa+0x484>
      buf[len++] = ' ';
 8001f9a:	6dfb      	ldr	r3, [r7, #92]	; 0x5c
 8001f9c:	1c5a      	adds	r2, r3, #1
 8001f9e:	65fa      	str	r2, [r7, #92]	; 0x5c
 8001fa0:	f107 0260 	add.w	r2, r7, #96	; 0x60
 8001fa4:	4413      	add	r3, r2
 8001fa6:	2220      	movs	r2, #32
 8001fa8:	f803 2c48 	strb.w	r2, [r3, #-72]
    }
  }

  return _out_rev(out, buffer, idx, maxlen, buf, len, width, flags);
 8001fac:	6fbb      	ldr	r3, [r7, #120]	; 0x78
 8001fae:	9303      	str	r3, [sp, #12]
 8001fb0:	6f7b      	ldr	r3, [r7, #116]	; 0x74
 8001fb2:	9302      	str	r3, [sp, #8]
 8001fb4:	6dfb      	ldr	r3, [r7, #92]	; 0x5c
 8001fb6:	9301      	str	r3, [sp, #4]
 8001fb8:	f107 0318 	add.w	r3, r7, #24
 8001fbc:	9300      	str	r3, [sp, #0]
 8001fbe:	68bb      	ldr	r3, [r7, #8]
 8001fc0:	68fa      	ldr	r2, [r7, #12]
 8001fc2:	6939      	ldr	r1, [r7, #16]
 8001fc4:	6978      	ldr	r0, [r7, #20]
 8001fc6:	f7ff fc1c 	bl	8001802 <_out_rev>
 8001fca:	4603      	mov	r3, r0
}
 8001fcc:	4618      	mov	r0, r3
 8001fce:	3764      	adds	r7, #100	; 0x64
 8001fd0:	46bd      	mov	sp, r7
 8001fd2:	bd90      	pop	{r4, r7, pc}
 8001fd4:	cccccccd 	stclgt	12, cr12, [ip], {205}	; 0xcd
 8001fd8:	66666667 	strbtvs	r6, [r6], -r7, ror #12

08001fdc <_vsnprintf>:
#endif  // PRINTF_SUPPORT_FLOAT


// internal vsnprintf
static int _vsnprintf(out_fct_type out, char* buffer, const size_t maxlen, const char* format, va_list va)
{
 8001fdc:	b590      	push	{r4, r7, lr}
 8001fde:	b099      	sub	sp, #100	; 0x64
 8001fe0:	af06      	add	r7, sp, #24
 8001fe2:	60f8      	str	r0, [r7, #12]
 8001fe4:	60b9      	str	r1, [r7, #8]
 8001fe6:	607a      	str	r2, [r7, #4]
 8001fe8:	603b      	str	r3, [r7, #0]
  unsigned int flags, width, precision, n;
  size_t idx = 0U;
 8001fea:	2300      	movs	r3, #0
 8001fec:	637b      	str	r3, [r7, #52]	; 0x34

  if (!buffer) {
 8001fee:	68bb      	ldr	r3, [r7, #8]
 8001ff0:	2b00      	cmp	r3, #0
 8001ff2:	f040 83e5 	bne.w	80027c0 <_vsnprintf+0x7e4>
    // use null output function
    out = _out_null;
 8001ff6:	4b9f      	ldr	r3, [pc, #636]	; (8002274 <_vsnprintf+0x298>)
 8001ff8:	60fb      	str	r3, [r7, #12]
  }

  while (*format)
 8001ffa:	e3e1      	b.n	80027c0 <_vsnprintf+0x7e4>
  {
    // format specifier?  %[flags][width][.precision][length]
    if (*format != '%') {
 8001ffc:	683b      	ldr	r3, [r7, #0]
 8001ffe:	781b      	ldrb	r3, [r3, #0]
 8002000:	2b25      	cmp	r3, #37	; 0x25
 8002002:	d00c      	beq.n	800201e <_vsnprintf+0x42>
      // no
      out(*format, buffer, idx++, maxlen);
 8002004:	683b      	ldr	r3, [r7, #0]
 8002006:	7818      	ldrb	r0, [r3, #0]
 8002008:	6b7a      	ldr	r2, [r7, #52]	; 0x34
 800200a:	1c53      	adds	r3, r2, #1
 800200c:	637b      	str	r3, [r7, #52]	; 0x34
 800200e:	68fc      	ldr	r4, [r7, #12]
 8002010:	687b      	ldr	r3, [r7, #4]
 8002012:	68b9      	ldr	r1, [r7, #8]
 8002014:	47a0      	blx	r4
      format++;
 8002016:	683b      	ldr	r3, [r7, #0]
 8002018:	3301      	adds	r3, #1
 800201a:	603b      	str	r3, [r7, #0]
      continue;
 800201c:	e3d0      	b.n	80027c0 <_vsnprintf+0x7e4>
    }
    else {
      // yes, evaluate it
      format++;
 800201e:	683b      	ldr	r3, [r7, #0]
 8002020:	3301      	adds	r3, #1
 8002022:	603b      	str	r3, [r7, #0]
    }

    // evaluate flags
    flags = 0U;
 8002024:	2300      	movs	r3, #0
 8002026:	647b      	str	r3, [r7, #68]	; 0x44
    do {
      switch (*format) {
 8002028:	683b      	ldr	r3, [r7, #0]
 800202a:	781b      	ldrb	r3, [r3, #0]
 800202c:	3b20      	subs	r3, #32
 800202e:	2b10      	cmp	r3, #16
 8002030:	d856      	bhi.n	80020e0 <_vsnprintf+0x104>
 8002032:	a201      	add	r2, pc, #4	; (adr r2, 8002038 <_vsnprintf+0x5c>)
 8002034:	f852 f023 	ldr.w	pc, [r2, r3, lsl #2]
 8002038:	080020b9 	stmdaeq	r0, {r0, r3, r4, r5, r7, sp}
 800203c:	080020e1 	stmdaeq	r0, {r0, r5, r6, r7, sp}
 8002040:	080020e1 	stmdaeq	r0, {r0, r5, r6, r7, sp}
 8002044:	080020cd 	stmdaeq	r0, {r0, r2, r3, r6, r7, sp}
 8002048:	080020e1 	stmdaeq	r0, {r0, r5, r6, r7, sp}
 800204c:	080020e1 	stmdaeq	r0, {r0, r5, r6, r7, sp}
 8002050:	080020e1 	stmdaeq	r0, {r0, r5, r6, r7, sp}
 8002054:	080020e1 	stmdaeq	r0, {r0, r5, r6, r7, sp}
 8002058:	080020e1 	stmdaeq	r0, {r0, r5, r6, r7, sp}
 800205c:	080020e1 	stmdaeq	r0, {r0, r5, r6, r7, sp}
 8002060:	080020e1 	stmdaeq	r0, {r0, r5, r6, r7, sp}
 8002064:	080020a5 	stmdaeq	r0, {r0, r2, r5, r7, sp}
 8002068:	080020e1 	stmdaeq	r0, {r0, r5, r6, r7, sp}
 800206c:	08002091 	stmdaeq	r0, {r0, r4, r7, sp}
 8002070:	080020e1 	stmdaeq	r0, {r0, r5, r6, r7, sp}
 8002074:	080020e1 	stmdaeq	r0, {r0, r5, r6, r7, sp}
 8002078:	0800207d 	stmdaeq	r0, {r0, r2, r3, r4, r5, r6, sp}
        case '0': flags |= FLAGS_ZEROPAD; format++; n = 1U; break;
 800207c:	6c7b      	ldr	r3, [r7, #68]	; 0x44
 800207e:	f043 0301 	orr.w	r3, r3, #1
 8002082:	647b      	str	r3, [r7, #68]	; 0x44
 8002084:	683b      	ldr	r3, [r7, #0]
 8002086:	3301      	adds	r3, #1
 8002088:	603b      	str	r3, [r7, #0]
 800208a:	2301      	movs	r3, #1
 800208c:	63bb      	str	r3, [r7, #56]	; 0x38
 800208e:	e02a      	b.n	80020e6 <_vsnprintf+0x10a>
        case '-': flags |= FLAGS_LEFT;    format++; n = 1U; break;
 8002090:	6c7b      	ldr	r3, [r7, #68]	; 0x44
 8002092:	f043 0302 	orr.w	r3, r3, #2
 8002096:	647b      	str	r3, [r7, #68]	; 0x44
 8002098:	683b      	ldr	r3, [r7, #0]
 800209a:	3301      	adds	r3, #1
 800209c:	603b      	str	r3, [r7, #0]
 800209e:	2301      	movs	r3, #1
 80020a0:	63bb      	str	r3, [r7, #56]	; 0x38
 80020a2:	e020      	b.n	80020e6 <_vsnprintf+0x10a>
        case '+': flags |= FLAGS_PLUS;    format++; n = 1U; break;
 80020a4:	6c7b      	ldr	r3, [r7, #68]	; 0x44
 80020a6:	f043 0304 	orr.w	r3, r3, #4
 80020aa:	647b      	str	r3, [r7, #68]	; 0x44
 80020ac:	683b      	ldr	r3, [r7, #0]
 80020ae:	3301      	adds	r3, #1
 80020b0:	603b      	str	r3, [r7, #0]
 80020b2:	2301      	movs	r3, #1
 80020b4:	63bb      	str	r3, [r7, #56]	; 0x38
 80020b6:	e016      	b.n	80020e6 <_vsnprintf+0x10a>
        case ' ': flags |= FLAGS_SPACE;   format++; n = 1U; break;
 80020b8:	6c7b      	ldr	r3, [r7, #68]	; 0x44
 80020ba:	f043 0308 	orr.w	r3, r3, #8
 80020be:	647b      	str	r3, [r7, #68]	; 0x44
 80020c0:	683b      	ldr	r3, [r7, #0]
 80020c2:	3301      	adds	r3, #1
 80020c4:	603b      	str	r3, [r7, #0]
 80020c6:	2301      	movs	r3, #1
 80020c8:	63bb      	str	r3, [r7, #56]	; 0x38
 80020ca:	e00c      	b.n	80020e6 <_vsnprintf+0x10a>
        case '#': flags |= FLAGS_HASH;    format++; n = 1U; break;
 80020cc:	6c7b      	ldr	r3, [r7, #68]	; 0x44
 80020ce:	f043 0310 	orr.w	r3, r3, #16
 80020d2:	647b      	str	r3, [r7, #68]	; 0x44
 80020d4:	683b      	ldr	r3, [r7, #0]
 80020d6:	3301      	adds	r3, #1
 80020d8:	603b      	str	r3, [r7, #0]
 80020da:	2301      	movs	r3, #1
 80020dc:	63bb      	str	r3, [r7, #56]	; 0x38
 80020de:	e002      	b.n	80020e6 <_vsnprintf+0x10a>
        default :                                   n = 0U; break;
 80020e0:	2300      	movs	r3, #0
 80020e2:	63bb      	str	r3, [r7, #56]	; 0x38
 80020e4:	bf00      	nop
      }
    } while (n);
 80020e6:	6bbb      	ldr	r3, [r7, #56]	; 0x38
 80020e8:	2b00      	cmp	r3, #0
 80020ea:	d19d      	bne.n	8002028 <_vsnprintf+0x4c>

    // evaluate width field
    width = 0U;
 80020ec:	2300      	movs	r3, #0
 80020ee:	643b      	str	r3, [r7, #64]	; 0x40
    if (_is_digit(*format)) {
 80020f0:	683b      	ldr	r3, [r7, #0]
 80020f2:	781b      	ldrb	r3, [r3, #0]
 80020f4:	4618      	mov	r0, r3
 80020f6:	f7ff fb49 	bl	800178c <_is_digit>
 80020fa:	4603      	mov	r3, r0
 80020fc:	2b00      	cmp	r3, #0
 80020fe:	d005      	beq.n	800210c <_vsnprintf+0x130>
      width = _atoi(&format);
 8002100:	463b      	mov	r3, r7
 8002102:	4618      	mov	r0, r3
 8002104:	f7ff fb59 	bl	80017ba <_atoi>
 8002108:	6438      	str	r0, [r7, #64]	; 0x40
 800210a:	e018      	b.n	800213e <_vsnprintf+0x162>
    }
    else if (*format == '*') {
 800210c:	683b      	ldr	r3, [r7, #0]
 800210e:	781b      	ldrb	r3, [r3, #0]
 8002110:	2b2a      	cmp	r3, #42	; 0x2a
 8002112:	d114      	bne.n	800213e <_vsnprintf+0x162>
      const int w = va_arg(va, int);
 8002114:	6dbb      	ldr	r3, [r7, #88]	; 0x58
 8002116:	1d1a      	adds	r2, r3, #4
 8002118:	65ba      	str	r2, [r7, #88]	; 0x58
 800211a:	681b      	ldr	r3, [r3, #0]
 800211c:	623b      	str	r3, [r7, #32]
      if (w < 0) {
 800211e:	6a3b      	ldr	r3, [r7, #32]
 8002120:	2b00      	cmp	r3, #0
 8002122:	da07      	bge.n	8002134 <_vsnprintf+0x158>
        flags |= FLAGS_LEFT;    // reverse padding
 8002124:	6c7b      	ldr	r3, [r7, #68]	; 0x44
 8002126:	f043 0302 	orr.w	r3, r3, #2
 800212a:	647b      	str	r3, [r7, #68]	; 0x44
        width = (unsigned int)-w;
 800212c:	6a3b      	ldr	r3, [r7, #32]
 800212e:	425b      	negs	r3, r3
 8002130:	643b      	str	r3, [r7, #64]	; 0x40
 8002132:	e001      	b.n	8002138 <_vsnprintf+0x15c>
      }
      else {
        width = (unsigned int)w;
 8002134:	6a3b      	ldr	r3, [r7, #32]
 8002136:	643b      	str	r3, [r7, #64]	; 0x40
      }
      format++;
 8002138:	683b      	ldr	r3, [r7, #0]
 800213a:	3301      	adds	r3, #1
 800213c:	603b      	str	r3, [r7, #0]
    }

    // evaluate precision field
    precision = 0U;
 800213e:	2300      	movs	r3, #0
 8002140:	63fb      	str	r3, [r7, #60]	; 0x3c
    if (*format == '.') {
 8002142:	683b      	ldr	r3, [r7, #0]
 8002144:	781b      	ldrb	r3, [r3, #0]
 8002146:	2b2e      	cmp	r3, #46	; 0x2e
 8002148:	d124      	bne.n	8002194 <_vsnprintf+0x1b8>
      flags |= FLAGS_PRECISION;
 800214a:	6c7b      	ldr	r3, [r7, #68]	; 0x44
 800214c:	f443 6380 	orr.w	r3, r3, #1024	; 0x400
 8002150:	647b      	str	r3, [r7, #68]	; 0x44
      format++;
 8002152:	683b      	ldr	r3, [r7, #0]
 8002154:	3301      	adds	r3, #1
 8002156:	603b      	str	r3, [r7, #0]
      if (_is_digit(*format)) {
 8002158:	683b      	ldr	r3, [r7, #0]
 800215a:	781b      	ldrb	r3, [r3, #0]
 800215c:	4618      	mov	r0, r3
 800215e:	f7ff fb15 	bl	800178c <_is_digit>
 8002162:	4603      	mov	r3, r0
 8002164:	2b00      	cmp	r3, #0
 8002166:	d005      	beq.n	8002174 <_vsnprintf+0x198>
        precision = _atoi(&format);
 8002168:	463b      	mov	r3, r7
 800216a:	4618      	mov	r0, r3
 800216c:	f7ff fb25 	bl	80017ba <_atoi>
 8002170:	63f8      	str	r0, [r7, #60]	; 0x3c
 8002172:	e00f      	b.n	8002194 <_vsnprintf+0x1b8>
      }
      else if (*format == '*') {
 8002174:	683b      	ldr	r3, [r7, #0]
 8002176:	781b      	ldrb	r3, [r3, #0]
 8002178:	2b2a      	cmp	r3, #42	; 0x2a
 800217a:	d10b      	bne.n	8002194 <_vsnprintf+0x1b8>
        const int prec = (int)va_arg(va, int);
 800217c:	6dbb      	ldr	r3, [r7, #88]	; 0x58
 800217e:	1d1a      	adds	r2, r3, #4
 8002180:	65ba      	str	r2, [r7, #88]	; 0x58
 8002182:	681b      	ldr	r3, [r3, #0]
 8002184:	61fb      	str	r3, [r7, #28]
        precision = prec > 0 ? (unsigned int)prec : 0U;
 8002186:	69fb      	ldr	r3, [r7, #28]
 8002188:	ea23 73e3 	bic.w	r3, r3, r3, asr #31
 800218c:	63fb      	str	r3, [r7, #60]	; 0x3c
        format++;
 800218e:	683b      	ldr	r3, [r7, #0]
 8002190:	3301      	adds	r3, #1
 8002192:	603b      	str	r3, [r7, #0]
      }
    }

    // evaluate length field
    switch (*format) {
 8002194:	683b      	ldr	r3, [r7, #0]
 8002196:	781b      	ldrb	r3, [r3, #0]
 8002198:	3b68      	subs	r3, #104	; 0x68
 800219a:	2b12      	cmp	r3, #18
 800219c:	d866      	bhi.n	800226c <_vsnprintf+0x290>
 800219e:	a201      	add	r2, pc, #4	; (adr r2, 80021a4 <_vsnprintf+0x1c8>)
 80021a0:	f852 f023 	ldr.w	pc, [r2, r3, lsl #2]
 80021a4:	08002217 	stmdaeq	r0, {r0, r1, r2, r4, r9, sp}
 80021a8:	0800226d 	stmdaeq	r0, {r0, r2, r3, r5, r6, r9, sp}
 80021ac:	0800224d 	stmdaeq	r0, {r0, r2, r3, r6, r9, sp}
 80021b0:	0800226d 	stmdaeq	r0, {r0, r2, r3, r5, r6, r9, sp}
 80021b4:	080021f1 	stmdaeq	r0, {r0, r4, r5, r6, r7, r8, sp}
 80021b8:	0800226d 	stmdaeq	r0, {r0, r2, r3, r5, r6, r9, sp}
 80021bc:	0800226d 	stmdaeq	r0, {r0, r2, r3, r5, r6, r9, sp}
 80021c0:	0800226d 	stmdaeq	r0, {r0, r2, r3, r5, r6, r9, sp}
 80021c4:	0800226d 	stmdaeq	r0, {r0, r2, r3, r5, r6, r9, sp}
 80021c8:	0800226d 	stmdaeq	r0, {r0, r2, r3, r5, r6, r9, sp}
 80021cc:	0800226d 	stmdaeq	r0, {r0, r2, r3, r5, r6, r9, sp}
 80021d0:	0800226d 	stmdaeq	r0, {r0, r2, r3, r5, r6, r9, sp}
 80021d4:	0800223d 	stmdaeq	r0, {r0, r2, r3, r4, r5, r9, sp}
 80021d8:	0800226d 	stmdaeq	r0, {r0, r2, r3, r5, r6, r9, sp}
 80021dc:	0800226d 	stmdaeq	r0, {r0, r2, r3, r5, r6, r9, sp}
 80021e0:	0800226d 	stmdaeq	r0, {r0, r2, r3, r5, r6, r9, sp}
 80021e4:	0800226d 	stmdaeq	r0, {r0, r2, r3, r5, r6, r9, sp}
 80021e8:	0800226d 	stmdaeq	r0, {r0, r2, r3, r5, r6, r9, sp}
 80021ec:	0800225d 	stmdaeq	r0, {r0, r2, r3, r4, r6, r9, sp}
      case 'l' :
        flags |= FLAGS_LONG;
 80021f0:	6c7b      	ldr	r3, [r7, #68]	; 0x44
 80021f2:	f443 7380 	orr.w	r3, r3, #256	; 0x100
 80021f6:	647b      	str	r3, [r7, #68]	; 0x44
        format++;
 80021f8:	683b      	ldr	r3, [r7, #0]
 80021fa:	3301      	adds	r3, #1
 80021fc:	603b      	str	r3, [r7, #0]
        if (*format == 'l') {
 80021fe:	683b      	ldr	r3, [r7, #0]
 8002200:	781b      	ldrb	r3, [r3, #0]
 8002202:	2b6c      	cmp	r3, #108	; 0x6c
 8002204:	d134      	bne.n	8002270 <_vsnprintf+0x294>
          flags |= FLAGS_LONG_LONG;
 8002206:	6c7b      	ldr	r3, [r7, #68]	; 0x44
 8002208:	f443 7300 	orr.w	r3, r3, #512	; 0x200
 800220c:	647b      	str	r3, [r7, #68]	; 0x44
          format++;
 800220e:	683b      	ldr	r3, [r7, #0]
 8002210:	3301      	adds	r3, #1
 8002212:	603b      	str	r3, [r7, #0]
        }
        break;
 8002214:	e02c      	b.n	8002270 <_vsnprintf+0x294>
      case 'h' :
        flags |= FLAGS_SHORT;
 8002216:	6c7b      	ldr	r3, [r7, #68]	; 0x44
 8002218:	f043 0380 	orr.w	r3, r3, #128	; 0x80
 800221c:	647b      	str	r3, [r7, #68]	; 0x44
        format++;
 800221e:	683b      	ldr	r3, [r7, #0]
 8002220:	3301      	adds	r3, #1
 8002222:	603b      	str	r3, [r7, #0]
        if (*format == 'h') {
 8002224:	683b      	ldr	r3, [r7, #0]
 8002226:	781b      	ldrb	r3, [r3, #0]
 8002228:	2b68      	cmp	r3, #104	; 0x68
 800222a:	d125      	bne.n	8002278 <_vsnprintf+0x29c>
          flags |= FLAGS_CHAR;
 800222c:	6c7b      	ldr	r3, [r7, #68]	; 0x44
 800222e:	f043 0340 	orr.w	r3, r3, #64	; 0x40
 8002232:	647b      	str	r3, [r7, #68]	; 0x44
          format++;
 8002234:	683b      	ldr	r3, [r7, #0]
 8002236:	3301      	adds	r3, #1
 8002238:	603b      	str	r3, [r7, #0]
        }
        break;
 800223a:	e01d      	b.n	8002278 <_vsnprintf+0x29c>
#if defined(PRINTF_SUPPORT_PTRDIFF_T)
      case 't' :
        flags |= (sizeof(ptrdiff_t) == sizeof(long) ? FLAGS_LONG : FLAGS_LONG_LONG);
 800223c:	6c7b      	ldr	r3, [r7, #68]	; 0x44
 800223e:	f443 7380 	orr.w	r3, r3, #256	; 0x100
 8002242:	647b      	str	r3, [r7, #68]	; 0x44
        format++;
 8002244:	683b      	ldr	r3, [r7, #0]
 8002246:	3301      	adds	r3, #1
 8002248:	603b      	str	r3, [r7, #0]
        break;
 800224a:	e016      	b.n	800227a <_vsnprintf+0x29e>
#endif
      case 'j' :
        flags |= (sizeof(intmax_t) == sizeof(long) ? FLAGS_LONG : FLAGS_LONG_LONG);
 800224c:	6c7b      	ldr	r3, [r7, #68]	; 0x44
 800224e:	f443 7300 	orr.w	r3, r3, #512	; 0x200
 8002252:	647b      	str	r3, [r7, #68]	; 0x44
        format++;
 8002254:	683b      	ldr	r3, [r7, #0]
 8002256:	3301      	adds	r3, #1
 8002258:	603b      	str	r3, [r7, #0]
        break;
 800225a:	e00e      	b.n	800227a <_vsnprintf+0x29e>
      case 'z' :
        flags |= (sizeof(size_t) == sizeof(long) ? FLAGS_LONG : FLAGS_LONG_LONG);
 800225c:	6c7b      	ldr	r3, [r7, #68]	; 0x44
 800225e:	f443 7380 	orr.w	r3, r3, #256	; 0x100
 8002262:	647b      	str	r3, [r7, #68]	; 0x44
        format++;
 8002264:	683b      	ldr	r3, [r7, #0]
 8002266:	3301      	adds	r3, #1
 8002268:	603b      	str	r3, [r7, #0]
        break;
 800226a:	e006      	b.n	800227a <_vsnprintf+0x29e>
      default :
        break;
 800226c:	bf00      	nop
 800226e:	e004      	b.n	800227a <_vsnprintf+0x29e>
        break;
 8002270:	bf00      	nop
 8002272:	e002      	b.n	800227a <_vsnprintf+0x29e>
 8002274:	08001711 	stmdaeq	r0, {r0, r4, r8, r9, sl, ip}
        break;
 8002278:	bf00      	nop
    }

    // evaluate specifier
    switch (*format) {
 800227a:	683b      	ldr	r3, [r7, #0]
 800227c:	781b      	ldrb	r3, [r3, #0]
 800227e:	3b25      	subs	r3, #37	; 0x25
 8002280:	2b53      	cmp	r3, #83	; 0x53
 8002282:	f200 8290 	bhi.w	80027a6 <_vsnprintf+0x7ca>
 8002286:	a201      	add	r2, pc, #4	; (adr r2, 800228c <_vsnprintf+0x2b0>)
 8002288:	f852 f023 	ldr.w	pc, [r2, r3, lsl #2]
 800228c:	0800278f 	stmdaeq	r0, {r0, r1, r2, r3, r7, r8, r9, sl, sp}
 8002290:	080027a7 	stmdaeq	r0, {r0, r1, r2, r5, r7, r8, r9, sl, sp}
 8002294:	080027a7 	stmdaeq	r0, {r0, r1, r2, r5, r7, r8, r9, sl, sp}
 8002298:	080027a7 	stmdaeq	r0, {r0, r1, r2, r5, r7, r8, r9, sl, sp}
 800229c:	080027a7 	stmdaeq	r0, {r0, r1, r2, r5, r7, r8, r9, sl, sp}
 80022a0:	080027a7 	stmdaeq	r0, {r0, r1, r2, r5, r7, r8, r9, sl, sp}
 80022a4:	080027a7 	stmdaeq	r0, {r0, r1, r2, r5, r7, r8, r9, sl, sp}
 80022a8:	080027a7 	stmdaeq	r0, {r0, r1, r2, r5, r7, r8, r9, sl, sp}
 80022ac:	080027a7 	stmdaeq	r0, {r0, r1, r2, r5, r7, r8, r9, sl, sp}
 80022b0:	080027a7 	stmdaeq	r0, {r0, r1, r2, r5, r7, r8, r9, sl, sp}
 80022b4:	080027a7 	stmdaeq	r0, {r0, r1, r2, r5, r7, r8, r9, sl, sp}
 80022b8:	080027a7 	stmdaeq	r0, {r0, r1, r2, r5, r7, r8, r9, sl, sp}
 80022bc:	080027a7 	stmdaeq	r0, {r0, r1, r2, r5, r7, r8, r9, sl, sp}
 80022c0:	080027a7 	stmdaeq	r0, {r0, r1, r2, r5, r7, r8, r9, sl, sp}
 80022c4:	080027a7 	stmdaeq	r0, {r0, r1, r2, r5, r7, r8, r9, sl, sp}
 80022c8:	080027a7 	stmdaeq	r0, {r0, r1, r2, r5, r7, r8, r9, sl, sp}
 80022cc:	080027a7 	stmdaeq	r0, {r0, r1, r2, r5, r7, r8, r9, sl, sp}
 80022d0:	080027a7 	stmdaeq	r0, {r0, r1, r2, r5, r7, r8, r9, sl, sp}
 80022d4:	080027a7 	stmdaeq	r0, {r0, r1, r2, r5, r7, r8, r9, sl, sp}
 80022d8:	080027a7 	stmdaeq	r0, {r0, r1, r2, r5, r7, r8, r9, sl, sp}
 80022dc:	080027a7 	stmdaeq	r0, {r0, r1, r2, r5, r7, r8, r9, sl, sp}
 80022e0:	080027a7 	stmdaeq	r0, {r0, r1, r2, r5, r7, r8, r9, sl, sp}
 80022e4:	080027a7 	stmdaeq	r0, {r0, r1, r2, r5, r7, r8, r9, sl, sp}
 80022e8:	080027a7 	stmdaeq	r0, {r0, r1, r2, r5, r7, r8, r9, sl, sp}
 80022ec:	080027a7 	stmdaeq	r0, {r0, r1, r2, r5, r7, r8, r9, sl, sp}
 80022f0:	080027a7 	stmdaeq	r0, {r0, r1, r2, r5, r7, r8, r9, sl, sp}
 80022f4:	080027a7 	stmdaeq	r0, {r0, r1, r2, r5, r7, r8, r9, sl, sp}
 80022f8:	080027a7 	stmdaeq	r0, {r0, r1, r2, r5, r7, r8, r9, sl, sp}
 80022fc:	080027a7 	stmdaeq	r0, {r0, r1, r2, r5, r7, r8, r9, sl, sp}
 8002300:	080027a7 	stmdaeq	r0, {r0, r1, r2, r5, r7, r8, r9, sl, sp}
 8002304:	080027a7 	stmdaeq	r0, {r0, r1, r2, r5, r7, r8, r9, sl, sp}
 8002308:	080027a7 	stmdaeq	r0, {r0, r1, r2, r5, r7, r8, r9, sl, sp}
 800230c:	080027a7 	stmdaeq	r0, {r0, r1, r2, r5, r7, r8, r9, sl, sp}
 8002310:	080025c9 	stmdaeq	r0, {r0, r3, r6, r7, r8, sl, sp}
 8002314:	080027a7 	stmdaeq	r0, {r0, r1, r2, r5, r7, r8, r9, sl, sp}
 8002318:	080027a7 	stmdaeq	r0, {r0, r1, r2, r5, r7, r8, r9, sl, sp}
 800231c:	080027a7 	stmdaeq	r0, {r0, r1, r2, r5, r7, r8, r9, sl, sp}
 8002320:	080027a7 	stmdaeq	r0, {r0, r1, r2, r5, r7, r8, r9, sl, sp}
 8002324:	080027a7 	stmdaeq	r0, {r0, r1, r2, r5, r7, r8, r9, sl, sp}
 8002328:	080027a7 	stmdaeq	r0, {r0, r1, r2, r5, r7, r8, r9, sl, sp}
 800232c:	080027a7 	stmdaeq	r0, {r0, r1, r2, r5, r7, r8, r9, sl, sp}
 8002330:	080027a7 	stmdaeq	r0, {r0, r1, r2, r5, r7, r8, r9, sl, sp}
 8002334:	080027a7 	stmdaeq	r0, {r0, r1, r2, r5, r7, r8, r9, sl, sp}
 8002338:	080027a7 	stmdaeq	r0, {r0, r1, r2, r5, r7, r8, r9, sl, sp}
 800233c:	080027a7 	stmdaeq	r0, {r0, r1, r2, r5, r7, r8, r9, sl, sp}
 8002340:	080027a7 	stmdaeq	r0, {r0, r1, r2, r5, r7, r8, r9, sl, sp}
 8002344:	080027a7 	stmdaeq	r0, {r0, r1, r2, r5, r7, r8, r9, sl, sp}
 8002348:	080027a7 	stmdaeq	r0, {r0, r1, r2, r5, r7, r8, r9, sl, sp}
 800234c:	080027a7 	stmdaeq	r0, {r0, r1, r2, r5, r7, r8, r9, sl, sp}
 8002350:	080027a7 	stmdaeq	r0, {r0, r1, r2, r5, r7, r8, r9, sl, sp}
 8002354:	080027a7 	stmdaeq	r0, {r0, r1, r2, r5, r7, r8, r9, sl, sp}
 8002358:	080023dd 	stmdaeq	r0, {r0, r2, r3, r4, r6, r7, r8, r9, sp}
 800235c:	080027a7 	stmdaeq	r0, {r0, r1, r2, r5, r7, r8, r9, sl, sp}
 8002360:	080027a7 	stmdaeq	r0, {r0, r1, r2, r5, r7, r8, r9, sl, sp}
 8002364:	080027a7 	stmdaeq	r0, {r0, r1, r2, r5, r7, r8, r9, sl, sp}
 8002368:	080027a7 	stmdaeq	r0, {r0, r1, r2, r5, r7, r8, r9, sl, sp}
 800236c:	080027a7 	stmdaeq	r0, {r0, r1, r2, r5, r7, r8, r9, sl, sp}
 8002370:	080027a7 	stmdaeq	r0, {r0, r1, r2, r5, r7, r8, r9, sl, sp}
 8002374:	080027a7 	stmdaeq	r0, {r0, r1, r2, r5, r7, r8, r9, sl, sp}
 8002378:	080027a7 	stmdaeq	r0, {r0, r1, r2, r5, r7, r8, r9, sl, sp}
 800237c:	080027a7 	stmdaeq	r0, {r0, r1, r2, r5, r7, r8, r9, sl, sp}
 8002380:	080023dd 	stmdaeq	r0, {r0, r2, r3, r4, r6, r7, r8, r9, sp}
 8002384:	08002615 	stmdaeq	r0, {r0, r2, r4, r9, sl, sp}
 8002388:	080023dd 	stmdaeq	r0, {r0, r2, r3, r4, r6, r7, r8, r9, sp}
 800238c:	080027a7 	stmdaeq	r0, {r0, r1, r2, r5, r7, r8, r9, sl, sp}
 8002390:	080025c9 	stmdaeq	r0, {r0, r3, r6, r7, r8, sl, sp}
 8002394:	080027a7 	stmdaeq	r0, {r0, r1, r2, r5, r7, r8, r9, sl, sp}
 8002398:	080027a7 	stmdaeq	r0, {r0, r1, r2, r5, r7, r8, r9, sl, sp}
 800239c:	080023dd 	stmdaeq	r0, {r0, r2, r3, r4, r6, r7, r8, r9, sp}
 80023a0:	080027a7 	stmdaeq	r0, {r0, r1, r2, r5, r7, r8, r9, sl, sp}
 80023a4:	080027a7 	stmdaeq	r0, {r0, r1, r2, r5, r7, r8, r9, sl, sp}
 80023a8:	080027a7 	stmdaeq	r0, {r0, r1, r2, r5, r7, r8, r9, sl, sp}
 80023ac:	080027a7 	stmdaeq	r0, {r0, r1, r2, r5, r7, r8, r9, sl, sp}
 80023b0:	080027a7 	stmdaeq	r0, {r0, r1, r2, r5, r7, r8, r9, sl, sp}
 80023b4:	080023dd 	stmdaeq	r0, {r0, r2, r3, r4, r6, r7, r8, r9, sp}
 80023b8:	0800274d 	stmdaeq	r0, {r0, r2, r3, r6, r8, r9, sl, sp}
 80023bc:	080027a7 	stmdaeq	r0, {r0, r1, r2, r5, r7, r8, r9, sl, sp}
 80023c0:	080027a7 	stmdaeq	r0, {r0, r1, r2, r5, r7, r8, r9, sl, sp}
 80023c4:	08002689 	stmdaeq	r0, {r0, r3, r7, r9, sl, sp}
 80023c8:	080027a7 	stmdaeq	r0, {r0, r1, r2, r5, r7, r8, r9, sl, sp}
 80023cc:	080023dd 	stmdaeq	r0, {r0, r2, r3, r4, r6, r7, r8, r9, sp}
 80023d0:	080027a7 	stmdaeq	r0, {r0, r1, r2, r5, r7, r8, r9, sl, sp}
 80023d4:	080027a7 	stmdaeq	r0, {r0, r1, r2, r5, r7, r8, r9, sl, sp}
 80023d8:	080023dd 	stmdaeq	r0, {r0, r2, r3, r4, r6, r7, r8, r9, sp}
      case 'X' :
      case 'o' :
      case 'b' : {
        // set the base
        unsigned int base;
        if (*format == 'x' || *format == 'X') {
 80023dc:	683b      	ldr	r3, [r7, #0]
 80023de:	781b      	ldrb	r3, [r3, #0]
 80023e0:	2b78      	cmp	r3, #120	; 0x78
 80023e2:	d003      	beq.n	80023ec <_vsnprintf+0x410>
 80023e4:	683b      	ldr	r3, [r7, #0]
 80023e6:	781b      	ldrb	r3, [r3, #0]
 80023e8:	2b58      	cmp	r3, #88	; 0x58
 80023ea:	d102      	bne.n	80023f2 <_vsnprintf+0x416>
          base = 16U;
 80023ec:	2310      	movs	r3, #16
 80023ee:	633b      	str	r3, [r7, #48]	; 0x30
 80023f0:	e013      	b.n	800241a <_vsnprintf+0x43e>
        }
        else if (*format == 'o') {
 80023f2:	683b      	ldr	r3, [r7, #0]
 80023f4:	781b      	ldrb	r3, [r3, #0]
 80023f6:	2b6f      	cmp	r3, #111	; 0x6f
 80023f8:	d102      	bne.n	8002400 <_vsnprintf+0x424>
          base =  8U;
 80023fa:	2308      	movs	r3, #8
 80023fc:	633b      	str	r3, [r7, #48]	; 0x30
 80023fe:	e00c      	b.n	800241a <_vsnprintf+0x43e>
        }
        else if (*format == 'b') {
 8002400:	683b      	ldr	r3, [r7, #0]
 8002402:	781b      	ldrb	r3, [r3, #0]
 8002404:	2b62      	cmp	r3, #98	; 0x62
 8002406:	d102      	bne.n	800240e <_vsnprintf+0x432>
          base =  2U;
 8002408:	2302      	movs	r3, #2
 800240a:	633b      	str	r3, [r7, #48]	; 0x30
 800240c:	e005      	b.n	800241a <_vsnprintf+0x43e>
        }
        else {
          base = 10U;
 800240e:	230a      	movs	r3, #10
 8002410:	633b      	str	r3, [r7, #48]	; 0x30
          flags &= ~FLAGS_HASH;   // no hash for dec format
 8002412:	6c7b      	ldr	r3, [r7, #68]	; 0x44
 8002414:	f023 0310 	bic.w	r3, r3, #16
 8002418:	647b      	str	r3, [r7, #68]	; 0x44
        }
        // uppercase
        if (*format == 'X') {
 800241a:	683b      	ldr	r3, [r7, #0]
 800241c:	781b      	ldrb	r3, [r3, #0]
 800241e:	2b58      	cmp	r3, #88	; 0x58
 8002420:	d103      	bne.n	800242a <_vsnprintf+0x44e>
          flags |= FLAGS_UPPERCASE;
 8002422:	6c7b      	ldr	r3, [r7, #68]	; 0x44
 8002424:	f043 0320 	orr.w	r3, r3, #32
 8002428:	647b      	str	r3, [r7, #68]	; 0x44
        }

        // no plus or space flag for u, x, X, o, b
        if ((*format != 'i') && (*format != 'd')) {
 800242a:	683b      	ldr	r3, [r7, #0]
 800242c:	781b      	ldrb	r3, [r3, #0]
 800242e:	2b69      	cmp	r3, #105	; 0x69
 8002430:	d007      	beq.n	8002442 <_vsnprintf+0x466>
 8002432:	683b      	ldr	r3, [r7, #0]
 8002434:	781b      	ldrb	r3, [r3, #0]
 8002436:	2b64      	cmp	r3, #100	; 0x64
 8002438:	d003      	beq.n	8002442 <_vsnprintf+0x466>
          flags &= ~(FLAGS_PLUS | FLAGS_SPACE);
 800243a:	6c7b      	ldr	r3, [r7, #68]	; 0x44
 800243c:	f023 030c 	bic.w	r3, r3, #12
 8002440:	647b      	str	r3, [r7, #68]	; 0x44
        }

        // ignore '0' flag when precision is given
        if (flags & FLAGS_PRECISION) {
 8002442:	6c7b      	ldr	r3, [r7, #68]	; 0x44
 8002444:	f403 6380 	and.w	r3, r3, #1024	; 0x400
 8002448:	2b00      	cmp	r3, #0
 800244a:	d003      	beq.n	8002454 <_vsnprintf+0x478>
          flags &= ~FLAGS_ZEROPAD;
 800244c:	6c7b      	ldr	r3, [r7, #68]	; 0x44
 800244e:	f023 0301 	bic.w	r3, r3, #1
 8002452:	647b      	str	r3, [r7, #68]	; 0x44
        }

        // convert the integer
        if ((*format == 'i') || (*format == 'd')) {
 8002454:	683b      	ldr	r3, [r7, #0]
 8002456:	781b      	ldrb	r3, [r3, #0]
 8002458:	2b69      	cmp	r3, #105	; 0x69
 800245a:	d003      	beq.n	8002464 <_vsnprintf+0x488>
 800245c:	683b      	ldr	r3, [r7, #0]
 800245e:	781b      	ldrb	r3, [r3, #0]
 8002460:	2b64      	cmp	r3, #100	; 0x64
 8002462:	d15e      	bne.n	8002522 <_vsnprintf+0x546>
          // signed
          if (flags & FLAGS_LONG_LONG) {
 8002464:	6c7b      	ldr	r3, [r7, #68]	; 0x44
 8002466:	f403 7300 	and.w	r3, r3, #512	; 0x200
 800246a:	2b00      	cmp	r3, #0
 800246c:	f040 80a8 	bne.w	80025c0 <_vsnprintf+0x5e4>
#if defined(PRINTF_SUPPORT_LONG_LONG)
            const long long value = va_arg(va, long long);
            idx = _ntoa_long_long(out, buffer, idx, maxlen, (unsigned long long)(value > 0 ? value : 0 - value), value < 0, base, precision, width, flags);
#endif
          }
          else if (flags & FLAGS_LONG) {
 8002470:	6c7b      	ldr	r3, [r7, #68]	; 0x44
 8002472:	f403 7380 	and.w	r3, r3, #256	; 0x100
 8002476:	2b00      	cmp	r3, #0
 8002478:	d01e      	beq.n	80024b8 <_vsnprintf+0x4dc>
            const long value = va_arg(va, long);
 800247a:	6dbb      	ldr	r3, [r7, #88]	; 0x58
 800247c:	1d1a      	adds	r2, r3, #4
 800247e:	65ba      	str	r2, [r7, #88]	; 0x58
 8002480:	681b      	ldr	r3, [r3, #0]
 8002482:	617b      	str	r3, [r7, #20]
            idx = _ntoa_long(out, buffer, idx, maxlen, (unsigned long)(value > 0 ? value : 0 - value), value < 0, base, precision, width, flags);
 8002484:	697b      	ldr	r3, [r7, #20]
 8002486:	2b00      	cmp	r3, #0
 8002488:	bfb8      	it	lt
 800248a:	425b      	neglt	r3, r3
 800248c:	4619      	mov	r1, r3
 800248e:	697b      	ldr	r3, [r7, #20]
 8002490:	0fdb      	lsrs	r3, r3, #31
 8002492:	b2db      	uxtb	r3, r3
 8002494:	6c7a      	ldr	r2, [r7, #68]	; 0x44
 8002496:	9205      	str	r2, [sp, #20]
 8002498:	6c3a      	ldr	r2, [r7, #64]	; 0x40
 800249a:	9204      	str	r2, [sp, #16]
 800249c:	6bfa      	ldr	r2, [r7, #60]	; 0x3c
 800249e:	9203      	str	r2, [sp, #12]
 80024a0:	6b3a      	ldr	r2, [r7, #48]	; 0x30
 80024a2:	9202      	str	r2, [sp, #8]
 80024a4:	9301      	str	r3, [sp, #4]
 80024a6:	9100      	str	r1, [sp, #0]
 80024a8:	687b      	ldr	r3, [r7, #4]
 80024aa:	6b7a      	ldr	r2, [r7, #52]	; 0x34
 80024ac:	68b9      	ldr	r1, [r7, #8]
 80024ae:	68f8      	ldr	r0, [r7, #12]
 80024b0:	f7ff fad3 	bl	8001a5a <_ntoa_long>
 80024b4:	6378      	str	r0, [r7, #52]	; 0x34
          if (flags & FLAGS_LONG_LONG) {
 80024b6:	e083      	b.n	80025c0 <_vsnprintf+0x5e4>
          }
          else {
            const int value = (flags & FLAGS_CHAR) ? (char)va_arg(va, int) : (flags & FLAGS_SHORT) ? (short int)va_arg(va, int) : va_arg(va, int);
 80024b8:	6c7b      	ldr	r3, [r7, #68]	; 0x44
 80024ba:	f003 0340 	and.w	r3, r3, #64	; 0x40
 80024be:	2b00      	cmp	r3, #0
 80024c0:	d005      	beq.n	80024ce <_vsnprintf+0x4f2>
 80024c2:	6dbb      	ldr	r3, [r7, #88]	; 0x58
 80024c4:	1d1a      	adds	r2, r3, #4
 80024c6:	65ba      	str	r2, [r7, #88]	; 0x58
 80024c8:	681b      	ldr	r3, [r3, #0]
 80024ca:	b2db      	uxtb	r3, r3
 80024cc:	e00e      	b.n	80024ec <_vsnprintf+0x510>
 80024ce:	6c7b      	ldr	r3, [r7, #68]	; 0x44
 80024d0:	f003 0380 	and.w	r3, r3, #128	; 0x80
 80024d4:	2b00      	cmp	r3, #0
 80024d6:	d005      	beq.n	80024e4 <_vsnprintf+0x508>
 80024d8:	6dbb      	ldr	r3, [r7, #88]	; 0x58
 80024da:	1d1a      	adds	r2, r3, #4
 80024dc:	65ba      	str	r2, [r7, #88]	; 0x58
 80024de:	681b      	ldr	r3, [r3, #0]
 80024e0:	b21b      	sxth	r3, r3
 80024e2:	e003      	b.n	80024ec <_vsnprintf+0x510>
 80024e4:	6dbb      	ldr	r3, [r7, #88]	; 0x58
 80024e6:	1d1a      	adds	r2, r3, #4
 80024e8:	65ba      	str	r2, [r7, #88]	; 0x58
 80024ea:	681b      	ldr	r3, [r3, #0]
 80024ec:	613b      	str	r3, [r7, #16]
            idx = _ntoa_long(out, buffer, idx, maxlen, (unsigned int)(value > 0 ? value : 0 - value), value < 0, base, precision, width, flags);
 80024ee:	693b      	ldr	r3, [r7, #16]
 80024f0:	2b00      	cmp	r3, #0
 80024f2:	bfb8      	it	lt
 80024f4:	425b      	neglt	r3, r3
 80024f6:	4619      	mov	r1, r3
 80024f8:	693b      	ldr	r3, [r7, #16]
 80024fa:	0fdb      	lsrs	r3, r3, #31
 80024fc:	b2db      	uxtb	r3, r3
 80024fe:	6c7a      	ldr	r2, [r7, #68]	; 0x44
 8002500:	9205      	str	r2, [sp, #20]
 8002502:	6c3a      	ldr	r2, [r7, #64]	; 0x40
 8002504:	9204      	str	r2, [sp, #16]
 8002506:	6bfa      	ldr	r2, [r7, #60]	; 0x3c
 8002508:	9203      	str	r2, [sp, #12]
 800250a:	6b3a      	ldr	r2, [r7, #48]	; 0x30
 800250c:	9202      	str	r2, [sp, #8]
 800250e:	9301      	str	r3, [sp, #4]
 8002510:	9100      	str	r1, [sp, #0]
 8002512:	687b      	ldr	r3, [r7, #4]
 8002514:	6b7a      	ldr	r2, [r7, #52]	; 0x34
 8002516:	68b9      	ldr	r1, [r7, #8]
 8002518:	68f8      	ldr	r0, [r7, #12]
 800251a:	f7ff fa9e 	bl	8001a5a <_ntoa_long>
 800251e:	6378      	str	r0, [r7, #52]	; 0x34
          if (flags & FLAGS_LONG_LONG) {
 8002520:	e04e      	b.n	80025c0 <_vsnprintf+0x5e4>
          }
        }
        else {
          // unsigned
          if (flags & FLAGS_LONG_LONG) {
 8002522:	6c7b      	ldr	r3, [r7, #68]	; 0x44
 8002524:	f403 7300 	and.w	r3, r3, #512	; 0x200
 8002528:	2b00      	cmp	r3, #0
 800252a:	d149      	bne.n	80025c0 <_vsnprintf+0x5e4>
#if defined(PRINTF_SUPPORT_LONG_LONG)
            idx = _ntoa_long_long(out, buffer, idx, maxlen, va_arg(va, unsigned long long), false, base, precision, width, flags);
#endif
          }
          else if (flags & FLAGS_LONG) {
 800252c:	6c7b      	ldr	r3, [r7, #68]	; 0x44
 800252e:	f403 7380 	and.w	r3, r3, #256	; 0x100
 8002532:	2b00      	cmp	r3, #0
 8002534:	d016      	beq.n	8002564 <_vsnprintf+0x588>
            idx = _ntoa_long(out, buffer, idx, maxlen, va_arg(va, unsigned long), false, base, precision, width, flags);
 8002536:	6dbb      	ldr	r3, [r7, #88]	; 0x58
 8002538:	1d1a      	adds	r2, r3, #4
 800253a:	65ba      	str	r2, [r7, #88]	; 0x58
 800253c:	681b      	ldr	r3, [r3, #0]
 800253e:	6c7a      	ldr	r2, [r7, #68]	; 0x44
 8002540:	9205      	str	r2, [sp, #20]
 8002542:	6c3a      	ldr	r2, [r7, #64]	; 0x40
 8002544:	9204      	str	r2, [sp, #16]
 8002546:	6bfa      	ldr	r2, [r7, #60]	; 0x3c
 8002548:	9203      	str	r2, [sp, #12]
 800254a:	6b3a      	ldr	r2, [r7, #48]	; 0x30
 800254c:	9202      	str	r2, [sp, #8]
 800254e:	2200      	movs	r2, #0
 8002550:	9201      	str	r2, [sp, #4]
 8002552:	9300      	str	r3, [sp, #0]
 8002554:	687b      	ldr	r3, [r7, #4]
 8002556:	6b7a      	ldr	r2, [r7, #52]	; 0x34
 8002558:	68b9      	ldr	r1, [r7, #8]
 800255a:	68f8      	ldr	r0, [r7, #12]
 800255c:	f7ff fa7d 	bl	8001a5a <_ntoa_long>
 8002560:	6378      	str	r0, [r7, #52]	; 0x34
 8002562:	e02d      	b.n	80025c0 <_vsnprintf+0x5e4>
          }
          else {
            const unsigned int value = (flags & FLAGS_CHAR) ? (unsigned char)va_arg(va, unsigned int) : (flags & FLAGS_SHORT) ? (unsigned short int)va_arg(va, unsigned int) : va_arg(va, unsigned int);
 8002564:	6c7b      	ldr	r3, [r7, #68]	; 0x44
 8002566:	f003 0340 	and.w	r3, r3, #64	; 0x40
 800256a:	2b00      	cmp	r3, #0
 800256c:	d005      	beq.n	800257a <_vsnprintf+0x59e>
 800256e:	6dbb      	ldr	r3, [r7, #88]	; 0x58
 8002570:	1d1a      	adds	r2, r3, #4
 8002572:	65ba      	str	r2, [r7, #88]	; 0x58
 8002574:	681b      	ldr	r3, [r3, #0]
 8002576:	b2db      	uxtb	r3, r3
 8002578:	e00e      	b.n	8002598 <_vsnprintf+0x5bc>
 800257a:	6c7b      	ldr	r3, [r7, #68]	; 0x44
 800257c:	f003 0380 	and.w	r3, r3, #128	; 0x80
 8002580:	2b00      	cmp	r3, #0
 8002582:	d005      	beq.n	8002590 <_vsnprintf+0x5b4>
 8002584:	6dbb      	ldr	r3, [r7, #88]	; 0x58
 8002586:	1d1a      	adds	r2, r3, #4
 8002588:	65ba      	str	r2, [r7, #88]	; 0x58
 800258a:	681b      	ldr	r3, [r3, #0]
 800258c:	b29b      	uxth	r3, r3
 800258e:	e003      	b.n	8002598 <_vsnprintf+0x5bc>
 8002590:	6dbb      	ldr	r3, [r7, #88]	; 0x58
 8002592:	1d1a      	adds	r2, r3, #4
 8002594:	65ba      	str	r2, [r7, #88]	; 0x58
 8002596:	681b      	ldr	r3, [r3, #0]
 8002598:	61bb      	str	r3, [r7, #24]
            idx = _ntoa_long(out, buffer, idx, maxlen, value, false, base, precision, width, flags);
 800259a:	6c7b      	ldr	r3, [r7, #68]	; 0x44
 800259c:	9305      	str	r3, [sp, #20]
 800259e:	6c3b      	ldr	r3, [r7, #64]	; 0x40
 80025a0:	9304      	str	r3, [sp, #16]
 80025a2:	6bfb      	ldr	r3, [r7, #60]	; 0x3c
 80025a4:	9303      	str	r3, [sp, #12]
 80025a6:	6b3b      	ldr	r3, [r7, #48]	; 0x30
 80025a8:	9302      	str	r3, [sp, #8]
 80025aa:	2300      	movs	r3, #0
 80025ac:	9301      	str	r3, [sp, #4]
 80025ae:	69bb      	ldr	r3, [r7, #24]
 80025b0:	9300      	str	r3, [sp, #0]
 80025b2:	687b      	ldr	r3, [r7, #4]
 80025b4:	6b7a      	ldr	r2, [r7, #52]	; 0x34
 80025b6:	68b9      	ldr	r1, [r7, #8]
 80025b8:	68f8      	ldr	r0, [r7, #12]
 80025ba:	f7ff fa4e 	bl	8001a5a <_ntoa_long>
 80025be:	6378      	str	r0, [r7, #52]	; 0x34
          }
        }
        format++;
 80025c0:	683b      	ldr	r3, [r7, #0]
 80025c2:	3301      	adds	r3, #1
 80025c4:	603b      	str	r3, [r7, #0]
        break;
 80025c6:	e0fb      	b.n	80027c0 <_vsnprintf+0x7e4>
      }
#if defined(PRINTF_SUPPORT_FLOAT)
      case 'f' :
      case 'F' :
        if (*format == 'F') flags |= FLAGS_UPPERCASE;
 80025c8:	683b      	ldr	r3, [r7, #0]
 80025ca:	781b      	ldrb	r3, [r3, #0]
 80025cc:	2b46      	cmp	r3, #70	; 0x46
 80025ce:	d103      	bne.n	80025d8 <_vsnprintf+0x5fc>
 80025d0:	6c7b      	ldr	r3, [r7, #68]	; 0x44
 80025d2:	f043 0320 	orr.w	r3, r3, #32
 80025d6:	647b      	str	r3, [r7, #68]	; 0x44
        idx = _ftoa(out, buffer, idx, maxlen, va_arg(va, double), precision, width, flags);
 80025d8:	6dbb      	ldr	r3, [r7, #88]	; 0x58
 80025da:	3307      	adds	r3, #7
 80025dc:	f023 0307 	bic.w	r3, r3, #7
 80025e0:	f103 0208 	add.w	r2, r3, #8
 80025e4:	65ba      	str	r2, [r7, #88]	; 0x58
 80025e6:	ed93 7b00 	vldr	d7, [r3]
 80025ea:	6c7b      	ldr	r3, [r7, #68]	; 0x44
 80025ec:	9302      	str	r3, [sp, #8]
 80025ee:	6c3b      	ldr	r3, [r7, #64]	; 0x40
 80025f0:	9301      	str	r3, [sp, #4]
 80025f2:	6bfb      	ldr	r3, [r7, #60]	; 0x3c
 80025f4:	9300      	str	r3, [sp, #0]
 80025f6:	eeb0 0a47 	vmov.f32	s0, s14
 80025fa:	eef0 0a67 	vmov.f32	s1, s15
 80025fe:	687b      	ldr	r3, [r7, #4]
 8002600:	6b7a      	ldr	r2, [r7, #52]	; 0x34
 8002602:	68b9      	ldr	r1, [r7, #8]
 8002604:	68f8      	ldr	r0, [r7, #12]
 8002606:	f7ff fa8f 	bl	8001b28 <_ftoa>
 800260a:	6378      	str	r0, [r7, #52]	; 0x34
        format++;
 800260c:	683b      	ldr	r3, [r7, #0]
 800260e:	3301      	adds	r3, #1
 8002610:	603b      	str	r3, [r7, #0]
        break;
 8002612:	e0d5      	b.n	80027c0 <_vsnprintf+0x7e4>
        format++;
        break;
#endif  // PRINTF_SUPPORT_EXPONENTIAL
#endif  // PRINTF_SUPPORT_FLOAT
      case 'c' : {
        unsigned int l = 1U;
 8002614:	2301      	movs	r3, #1
 8002616:	62fb      	str	r3, [r7, #44]	; 0x2c
        // pre padding
        if (!(flags & FLAGS_LEFT)) {
 8002618:	6c7b      	ldr	r3, [r7, #68]	; 0x44
 800261a:	f003 0302 	and.w	r3, r3, #2
 800261e:	2b00      	cmp	r3, #0
 8002620:	d10e      	bne.n	8002640 <_vsnprintf+0x664>
          while (l++ < width) {
 8002622:	e007      	b.n	8002634 <_vsnprintf+0x658>
            out(' ', buffer, idx++, maxlen);
 8002624:	6b7a      	ldr	r2, [r7, #52]	; 0x34
 8002626:	1c53      	adds	r3, r2, #1
 8002628:	637b      	str	r3, [r7, #52]	; 0x34
 800262a:	68fc      	ldr	r4, [r7, #12]
 800262c:	687b      	ldr	r3, [r7, #4]
 800262e:	68b9      	ldr	r1, [r7, #8]
 8002630:	2020      	movs	r0, #32
 8002632:	47a0      	blx	r4
          while (l++ < width) {
 8002634:	6afb      	ldr	r3, [r7, #44]	; 0x2c
 8002636:	1c5a      	adds	r2, r3, #1
 8002638:	62fa      	str	r2, [r7, #44]	; 0x2c
 800263a:	6c3a      	ldr	r2, [r7, #64]	; 0x40
 800263c:	429a      	cmp	r2, r3
 800263e:	d8f1      	bhi.n	8002624 <_vsnprintf+0x648>
          }
        }
        // char output
        out((char)va_arg(va, int), buffer, idx++, maxlen);
 8002640:	6dbb      	ldr	r3, [r7, #88]	; 0x58
 8002642:	1d1a      	adds	r2, r3, #4
 8002644:	65ba      	str	r2, [r7, #88]	; 0x58
 8002646:	681b      	ldr	r3, [r3, #0]
 8002648:	b2d8      	uxtb	r0, r3
 800264a:	6b7a      	ldr	r2, [r7, #52]	; 0x34
 800264c:	1c53      	adds	r3, r2, #1
 800264e:	637b      	str	r3, [r7, #52]	; 0x34
 8002650:	68fc      	ldr	r4, [r7, #12]
 8002652:	687b      	ldr	r3, [r7, #4]
 8002654:	68b9      	ldr	r1, [r7, #8]
 8002656:	47a0      	blx	r4
        // post padding
        if (flags & FLAGS_LEFT) {
 8002658:	6c7b      	ldr	r3, [r7, #68]	; 0x44
 800265a:	f003 0302 	and.w	r3, r3, #2
 800265e:	2b00      	cmp	r3, #0
 8002660:	d00e      	beq.n	8002680 <_vsnprintf+0x6a4>
          while (l++ < width) {
 8002662:	e007      	b.n	8002674 <_vsnprintf+0x698>
            out(' ', buffer, idx++, maxlen);
 8002664:	6b7a      	ldr	r2, [r7, #52]	; 0x34
 8002666:	1c53      	adds	r3, r2, #1
 8002668:	637b      	str	r3, [r7, #52]	; 0x34
 800266a:	68fc      	ldr	r4, [r7, #12]
 800266c:	687b      	ldr	r3, [r7, #4]
 800266e:	68b9      	ldr	r1, [r7, #8]
 8002670:	2020      	movs	r0, #32
 8002672:	47a0      	blx	r4
          while (l++ < width) {
 8002674:	6afb      	ldr	r3, [r7, #44]	; 0x2c
 8002676:	1c5a      	adds	r2, r3, #1
 8002678:	62fa      	str	r2, [r7, #44]	; 0x2c
 800267a:	6c3a      	ldr	r2, [r7, #64]	; 0x40
 800267c:	429a      	cmp	r2, r3
 800267e:	d8f1      	bhi.n	8002664 <_vsnprintf+0x688>
          }
        }
        format++;
 8002680:	683b      	ldr	r3, [r7, #0]
 8002682:	3301      	adds	r3, #1
 8002684:	603b      	str	r3, [r7, #0]
        break;
 8002686:	e09b      	b.n	80027c0 <_vsnprintf+0x7e4>
      }

      case 's' : {
        const char* p = va_arg(va, char*);
 8002688:	6dbb      	ldr	r3, [r7, #88]	; 0x58
 800268a:	1d1a      	adds	r2, r3, #4
 800268c:	65ba      	str	r2, [r7, #88]	; 0x58
 800268e:	681b      	ldr	r3, [r3, #0]
 8002690:	62bb      	str	r3, [r7, #40]	; 0x28
        unsigned int l = _strnlen_s(p, precision ? precision : (size_t)-1);
 8002692:	6bfb      	ldr	r3, [r7, #60]	; 0x3c
 8002694:	2b00      	cmp	r3, #0
 8002696:	d001      	beq.n	800269c <_vsnprintf+0x6c0>
 8002698:	6bfb      	ldr	r3, [r7, #60]	; 0x3c
 800269a:	e001      	b.n	80026a0 <_vsnprintf+0x6c4>
 800269c:	f04f 33ff 	mov.w	r3, #4294967295	; 0xffffffff
 80026a0:	4619      	mov	r1, r3
 80026a2:	6ab8      	ldr	r0, [r7, #40]	; 0x28
 80026a4:	f7ff f855 	bl	8001752 <_strnlen_s>
 80026a8:	6278      	str	r0, [r7, #36]	; 0x24
        // pre padding
        if (flags & FLAGS_PRECISION) {
 80026aa:	6c7b      	ldr	r3, [r7, #68]	; 0x44
 80026ac:	f403 6380 	and.w	r3, r3, #1024	; 0x400
 80026b0:	2b00      	cmp	r3, #0
 80026b2:	d005      	beq.n	80026c0 <_vsnprintf+0x6e4>
          l = (l < precision ? l : precision);
 80026b4:	6a7a      	ldr	r2, [r7, #36]	; 0x24
 80026b6:	6bfb      	ldr	r3, [r7, #60]	; 0x3c
 80026b8:	4293      	cmp	r3, r2
 80026ba:	bf28      	it	cs
 80026bc:	4613      	movcs	r3, r2
 80026be:	627b      	str	r3, [r7, #36]	; 0x24
        }
        if (!(flags & FLAGS_LEFT)) {
 80026c0:	6c7b      	ldr	r3, [r7, #68]	; 0x44
 80026c2:	f003 0302 	and.w	r3, r3, #2
 80026c6:	2b00      	cmp	r3, #0
 80026c8:	d11a      	bne.n	8002700 <_vsnprintf+0x724>
          while (l++ < width) {
 80026ca:	e007      	b.n	80026dc <_vsnprintf+0x700>
            out(' ', buffer, idx++, maxlen);
 80026cc:	6b7a      	ldr	r2, [r7, #52]	; 0x34
 80026ce:	1c53      	adds	r3, r2, #1
 80026d0:	637b      	str	r3, [r7, #52]	; 0x34
 80026d2:	68fc      	ldr	r4, [r7, #12]
 80026d4:	687b      	ldr	r3, [r7, #4]
 80026d6:	68b9      	ldr	r1, [r7, #8]
 80026d8:	2020      	movs	r0, #32
 80026da:	47a0      	blx	r4
          while (l++ < width) {
 80026dc:	6a7b      	ldr	r3, [r7, #36]	; 0x24
 80026de:	1c5a      	adds	r2, r3, #1
 80026e0:	627a      	str	r2, [r7, #36]	; 0x24
 80026e2:	6c3a      	ldr	r2, [r7, #64]	; 0x40
 80026e4:	429a      	cmp	r2, r3
 80026e6:	d8f1      	bhi.n	80026cc <_vsnprintf+0x6f0>
          }
        }
        // string output
        while ((*p != 0) && (!(flags & FLAGS_PRECISION) || precision--)) {
 80026e8:	e00a      	b.n	8002700 <_vsnprintf+0x724>
          out(*(p++), buffer, idx++, maxlen);
 80026ea:	6abb      	ldr	r3, [r7, #40]	; 0x28
 80026ec:	1c5a      	adds	r2, r3, #1
 80026ee:	62ba      	str	r2, [r7, #40]	; 0x28
 80026f0:	7818      	ldrb	r0, [r3, #0]
 80026f2:	6b7a      	ldr	r2, [r7, #52]	; 0x34
 80026f4:	1c53      	adds	r3, r2, #1
 80026f6:	637b      	str	r3, [r7, #52]	; 0x34
 80026f8:	68fc      	ldr	r4, [r7, #12]
 80026fa:	687b      	ldr	r3, [r7, #4]
 80026fc:	68b9      	ldr	r1, [r7, #8]
 80026fe:	47a0      	blx	r4
        while ((*p != 0) && (!(flags & FLAGS_PRECISION) || precision--)) {
 8002700:	6abb      	ldr	r3, [r7, #40]	; 0x28
 8002702:	781b      	ldrb	r3, [r3, #0]
 8002704:	2b00      	cmp	r3, #0
 8002706:	d009      	beq.n	800271c <_vsnprintf+0x740>
 8002708:	6c7b      	ldr	r3, [r7, #68]	; 0x44
 800270a:	f403 6380 	and.w	r3, r3, #1024	; 0x400
 800270e:	2b00      	cmp	r3, #0
 8002710:	d0eb      	beq.n	80026ea <_vsnprintf+0x70e>
 8002712:	6bfb      	ldr	r3, [r7, #60]	; 0x3c
 8002714:	1e5a      	subs	r2, r3, #1
 8002716:	63fa      	str	r2, [r7, #60]	; 0x3c
 8002718:	2b00      	cmp	r3, #0
 800271a:	d1e6      	bne.n	80026ea <_vsnprintf+0x70e>
        }
        // post padding
        if (flags & FLAGS_LEFT) {
 800271c:	6c7b      	ldr	r3, [r7, #68]	; 0x44
 800271e:	f003 0302 	and.w	r3, r3, #2
 8002722:	2b00      	cmp	r3, #0
 8002724:	d00e      	beq.n	8002744 <_vsnprintf+0x768>
          while (l++ < width) {
 8002726:	e007      	b.n	8002738 <_vsnprintf+0x75c>
            out(' ', buffer, idx++, maxlen);
 8002728:	6b7a      	ldr	r2, [r7, #52]	; 0x34
 800272a:	1c53      	adds	r3, r2, #1
 800272c:	637b      	str	r3, [r7, #52]	; 0x34
 800272e:	68fc      	ldr	r4, [r7, #12]
 8002730:	687b      	ldr	r3, [r7, #4]
 8002732:	68b9      	ldr	r1, [r7, #8]
 8002734:	2020      	movs	r0, #32
 8002736:	47a0      	blx	r4
          while (l++ < width) {
 8002738:	6a7b      	ldr	r3, [r7, #36]	; 0x24
 800273a:	1c5a      	adds	r2, r3, #1
 800273c:	627a      	str	r2, [r7, #36]	; 0x24
 800273e:	6c3a      	ldr	r2, [r7, #64]	; 0x40
 8002740:	429a      	cmp	r2, r3
 8002742:	d8f1      	bhi.n	8002728 <_vsnprintf+0x74c>
          }
        }
        format++;
 8002744:	683b      	ldr	r3, [r7, #0]
 8002746:	3301      	adds	r3, #1
 8002748:	603b      	str	r3, [r7, #0]
        break;
 800274a:	e039      	b.n	80027c0 <_vsnprintf+0x7e4>
      }

      case 'p' : {
        width = sizeof(void*) * 2U;
 800274c:	2308      	movs	r3, #8
 800274e:	643b      	str	r3, [r7, #64]	; 0x40
        flags |= FLAGS_ZEROPAD | FLAGS_UPPERCASE;
 8002750:	6c7b      	ldr	r3, [r7, #68]	; 0x44
 8002752:	f043 0321 	orr.w	r3, r3, #33	; 0x21
 8002756:	647b      	str	r3, [r7, #68]	; 0x44
        if (is_ll) {
          idx = _ntoa_long_long(out, buffer, idx, maxlen, (uintptr_t)va_arg(va, void*), false, 16U, precision, width, flags);
        }
        else {
#endif
          idx = _ntoa_long(out, buffer, idx, maxlen, (unsigned long)((uintptr_t)va_arg(va, void*)), false, 16U, precision, width, flags);
 8002758:	6dbb      	ldr	r3, [r7, #88]	; 0x58
 800275a:	1d1a      	adds	r2, r3, #4
 800275c:	65ba      	str	r2, [r7, #88]	; 0x58
 800275e:	681b      	ldr	r3, [r3, #0]
 8002760:	461a      	mov	r2, r3
 8002762:	6c7b      	ldr	r3, [r7, #68]	; 0x44
 8002764:	9305      	str	r3, [sp, #20]
 8002766:	6c3b      	ldr	r3, [r7, #64]	; 0x40
 8002768:	9304      	str	r3, [sp, #16]
 800276a:	6bfb      	ldr	r3, [r7, #60]	; 0x3c
 800276c:	9303      	str	r3, [sp, #12]
 800276e:	2310      	movs	r3, #16
 8002770:	9302      	str	r3, [sp, #8]
 8002772:	2300      	movs	r3, #0
 8002774:	9301      	str	r3, [sp, #4]
 8002776:	9200      	str	r2, [sp, #0]
 8002778:	687b      	ldr	r3, [r7, #4]
 800277a:	6b7a      	ldr	r2, [r7, #52]	; 0x34
 800277c:	68b9      	ldr	r1, [r7, #8]
 800277e:	68f8      	ldr	r0, [r7, #12]
 8002780:	f7ff f96b 	bl	8001a5a <_ntoa_long>
 8002784:	6378      	str	r0, [r7, #52]	; 0x34
#if defined(PRINTF_SUPPORT_LONG_LONG)
        }
#endif
        format++;
 8002786:	683b      	ldr	r3, [r7, #0]
 8002788:	3301      	adds	r3, #1
 800278a:	603b      	str	r3, [r7, #0]
        break;
 800278c:	e018      	b.n	80027c0 <_vsnprintf+0x7e4>
      }

      case '%' :
        out('%', buffer, idx++, maxlen);
 800278e:	6b7a      	ldr	r2, [r7, #52]	; 0x34
 8002790:	1c53      	adds	r3, r2, #1
 8002792:	637b      	str	r3, [r7, #52]	; 0x34
 8002794:	68fc      	ldr	r4, [r7, #12]
 8002796:	687b      	ldr	r3, [r7, #4]
 8002798:	68b9      	ldr	r1, [r7, #8]
 800279a:	2025      	movs	r0, #37	; 0x25
 800279c:	47a0      	blx	r4
        format++;
 800279e:	683b      	ldr	r3, [r7, #0]
 80027a0:	3301      	adds	r3, #1
 80027a2:	603b      	str	r3, [r7, #0]
        break;
 80027a4:	e00c      	b.n	80027c0 <_vsnprintf+0x7e4>

      default :
        out(*format, buffer, idx++, maxlen);
 80027a6:	683b      	ldr	r3, [r7, #0]
 80027a8:	7818      	ldrb	r0, [r3, #0]
 80027aa:	6b7a      	ldr	r2, [r7, #52]	; 0x34
 80027ac:	1c53      	adds	r3, r2, #1
 80027ae:	637b      	str	r3, [r7, #52]	; 0x34
 80027b0:	68fc      	ldr	r4, [r7, #12]
 80027b2:	687b      	ldr	r3, [r7, #4]
 80027b4:	68b9      	ldr	r1, [r7, #8]
 80027b6:	47a0      	blx	r4
        format++;
 80027b8:	683b      	ldr	r3, [r7, #0]
 80027ba:	3301      	adds	r3, #1
 80027bc:	603b      	str	r3, [r7, #0]
        break;
 80027be:	bf00      	nop
  while (*format)
 80027c0:	683b      	ldr	r3, [r7, #0]
 80027c2:	781b      	ldrb	r3, [r3, #0]
 80027c4:	2b00      	cmp	r3, #0
 80027c6:	f47f ac19 	bne.w	8001ffc <_vsnprintf+0x20>
    }
  }

  // termination
  out((char)0, buffer, idx < maxlen ? idx : maxlen - 1U, maxlen);
 80027ca:	6b7a      	ldr	r2, [r7, #52]	; 0x34
 80027cc:	687b      	ldr	r3, [r7, #4]
 80027ce:	429a      	cmp	r2, r3
 80027d0:	d302      	bcc.n	80027d8 <_vsnprintf+0x7fc>
 80027d2:	687b      	ldr	r3, [r7, #4]
 80027d4:	1e5a      	subs	r2, r3, #1
 80027d6:	e000      	b.n	80027da <_vsnprintf+0x7fe>
 80027d8:	6b7a      	ldr	r2, [r7, #52]	; 0x34
 80027da:	68fc      	ldr	r4, [r7, #12]
 80027dc:	687b      	ldr	r3, [r7, #4]
 80027de:	68b9      	ldr	r1, [r7, #8]
 80027e0:	2000      	movs	r0, #0
 80027e2:	47a0      	blx	r4

  // return written chars without terminating \0
  return (int)idx;
 80027e4:	6b7b      	ldr	r3, [r7, #52]	; 0x34
}
 80027e6:	4618      	mov	r0, r3
 80027e8:	374c      	adds	r7, #76	; 0x4c
 80027ea:	46bd      	mov	sp, r7
 80027ec:	bd90      	pop	{r4, r7, pc}
 80027ee:	bf00      	nop

080027f0 <printf_>:


///////////////////////////////////////////////////////////////////////////////

int printf_(const char* format, ...)
{
 80027f0:	b40f      	push	{r0, r1, r2, r3}
 80027f2:	b580      	push	{r7, lr}
 80027f4:	b086      	sub	sp, #24
 80027f6:	af02      	add	r7, sp, #8
  va_list va;
  va_start(va, format);
 80027f8:	f107 031c 	add.w	r3, r7, #28
 80027fc:	60bb      	str	r3, [r7, #8]
  char buffer[1];
  const int ret = _vsnprintf(_out_char, buffer, (size_t)-1, format, va);
 80027fe:	1d39      	adds	r1, r7, #4
 8002800:	68bb      	ldr	r3, [r7, #8]
 8002802:	9300      	str	r3, [sp, #0]
 8002804:	69bb      	ldr	r3, [r7, #24]
 8002806:	f04f 32ff 	mov.w	r2, #4294967295	; 0xffffffff
 800280a:	4806      	ldr	r0, [pc, #24]	; (8002824 <printf_+0x34>)
 800280c:	f7ff fbe6 	bl	8001fdc <_vsnprintf>
 8002810:	60f8      	str	r0, [r7, #12]
  va_end(va);
  return ret;
 8002812:	68fb      	ldr	r3, [r7, #12]
}
 8002814:	4618      	mov	r0, r3
 8002816:	3710      	adds	r7, #16
 8002818:	46bd      	mov	sp, r7
 800281a:	e8bd 4080 	ldmia.w	sp!, {r7, lr}
 800281e:	b004      	add	sp, #16
 8002820:	4770      	bx	lr
 8002822:	bf00      	nop
 8002824:	0800172d 	stmdaeq	r0, {r0, r2, r3, r5, r8, r9, sl, ip}

08002828 <_putchar>:

extern int __io_putchar(int ch);
extern int __io_getchar(void);

void _putchar(const char ch)
{
 8002828:	b580      	push	{r7, lr}
 800282a:	b082      	sub	sp, #8
 800282c:	af00      	add	r7, sp, #0
 800282e:	4603      	mov	r3, r0
 8002830:	71fb      	strb	r3, [r7, #7]
    __io_putchar(ch);
 8002832:	79fb      	ldrb	r3, [r7, #7]
 8002834:	4618      	mov	r0, r3
 8002836:	f000 fd0d 	bl	8003254 <__io_putchar>
}
 800283a:	bf00      	nop
 800283c:	3708      	adds	r7, #8
 800283e:	46bd      	mov	sp, r7
 8002840:	bd80      	pop	{r7, pc}
	...

08002844 <__NVIC_SetPriority>:
{
 8002844:	b480      	push	{r7}
 8002846:	b083      	sub	sp, #12
 8002848:	af00      	add	r7, sp, #0
 800284a:	4603      	mov	r3, r0
 800284c:	6039      	str	r1, [r7, #0]
 800284e:	71fb      	strb	r3, [r7, #7]
  if ((int32_t)(IRQn) >= 0)
 8002850:	f997 3007 	ldrsb.w	r3, [r7, #7]
 8002854:	2b00      	cmp	r3, #0
 8002856:	db0a      	blt.n	800286e <__NVIC_SetPriority+0x2a>
    NVIC->IP[((uint32_t)IRQn)]               = (uint8_t)((priority << (8U - __NVIC_PRIO_BITS)) & (uint32_t)0xFFUL);
 8002858:	683b      	ldr	r3, [r7, #0]
 800285a:	b2da      	uxtb	r2, r3
 800285c:	490c      	ldr	r1, [pc, #48]	; (8002890 <__NVIC_SetPriority+0x4c>)
 800285e:	f997 3007 	ldrsb.w	r3, [r7, #7]
 8002862:	0112      	lsls	r2, r2, #4
 8002864:	b2d2      	uxtb	r2, r2
 8002866:	440b      	add	r3, r1
 8002868:	f883 2300 	strb.w	r2, [r3, #768]	; 0x300
}
 800286c:	e00a      	b.n	8002884 <__NVIC_SetPriority+0x40>
    SCB->SHP[(((uint32_t)IRQn) & 0xFUL)-4UL] = (uint8_t)((priority << (8U - __NVIC_PRIO_BITS)) & (uint32_t)0xFFUL);
 800286e:	683b      	ldr	r3, [r7, #0]
 8002870:	b2da      	uxtb	r2, r3
 8002872:	4908      	ldr	r1, [pc, #32]	; (8002894 <__NVIC_SetPriority+0x50>)
 8002874:	79fb      	ldrb	r3, [r7, #7]
 8002876:	f003 030f 	and.w	r3, r3, #15
 800287a:	3b04      	subs	r3, #4
 800287c:	0112      	lsls	r2, r2, #4
 800287e:	b2d2      	uxtb	r2, r2
 8002880:	440b      	add	r3, r1
 8002882:	761a      	strb	r2, [r3, #24]
}
 8002884:	bf00      	nop
 8002886:	370c      	adds	r7, #12
 8002888:	46bd      	mov	sp, r7
 800288a:	f85d 7b04 	ldr.w	r7, [sp], #4
 800288e:	4770      	bx	lr
 8002890:	e000e100 	and	lr, r0, r0, lsl #2
 8002894:	e000ed00 	and	lr, r0, r0, lsl #26

08002898 <task_enter_critical>:
#include "hal_platform.h"

uint8_t sched_lock_count;

uint32_t task_enter_critical(void)
{
 8002898:	b480      	push	{r7}
 800289a:	b083      	sub	sp, #12
 800289c:	af00      	add	r7, sp, #0
 */
__STATIC_FORCEINLINE uint32_t __get_PRIMASK(void)
{
  uint32_t result;

  __ASM volatile ("MRS %0, primask" : "=r" (result) :: "memory");
 800289e:	f3ef 8310 	mrs	r3, PRIMASK
 80028a2:	603b      	str	r3, [r7, #0]
  return(result);
 80028a4:	683b      	ldr	r3, [r7, #0]
    uint32_t primask = __get_PRIMASK();
 80028a6:	607b      	str	r3, [r7, #4]
  __ASM volatile ("cpsid i" : : : "memory");
 80028a8:	b672      	cpsid	i
    __disable_irq();        // CPSID I
    return primask;  
 80028aa:	687b      	ldr	r3, [r7, #4]
}
 80028ac:	4618      	mov	r0, r3
 80028ae:	370c      	adds	r7, #12
 80028b0:	46bd      	mov	sp, r7
 80028b2:	f85d 7b04 	ldr.w	r7, [sp], #4
 80028b6:	4770      	bx	lr

080028b8 <task_exit_critical>:

void task_exit_critical (uint32_t status) 
{
 80028b8:	b480      	push	{r7}
 80028ba:	b085      	sub	sp, #20
 80028bc:	af00      	add	r7, sp, #0
 80028be:	6078      	str	r0, [r7, #4]
 80028c0:	687b      	ldr	r3, [r7, #4]
 80028c2:	60fb      	str	r3, [r7, #12]
  \details Assigns the given value to the Priority Mask Register.
  \param [in]    priMask  Priority Mask
 */
__STATIC_FORCEINLINE void __set_PRIMASK(uint32_t priMask)
{
  __ASM volatile ("MSR primask, %0" : : "r" (priMask) : "memory");
 80028c4:	68fb      	ldr	r3, [r7, #12]
 80028c6:	f383 8810 	msr	PRIMASK, r3
    __set_PRIMASK(status);
}
 80028ca:	bf00      	nop
 80028cc:	3714      	adds	r7, #20
 80028ce:	46bd      	mov	sp, r7
 80028d0:	f85d 7b04 	ldr.w	r7, [sp], #4
 80028d4:	4770      	bx	lr
	...

080028d8 <run_first_task>:

void run_first_task(void)
{
 80028d8:	b580      	push	{r7, lr}
 80028da:	b082      	sub	sp, #8
 80028dc:	af00      	add	r7, sp, #0
 80028de:	2300      	movs	r3, #0
 80028e0:	607b      	str	r3, [r7, #4]
  __ASM volatile ("MSR psp, %0" : : "r" (topOfProcStack) : );
 80028e2:	687b      	ldr	r3, [r7, #4]
 80028e4:	f383 8809 	msr	PSP, r3
    __set_PSP(0);//psp=0 
    NVIC_SetPriority(PendSV_IRQn, 0xFF);//pendsv
 80028e8:	21ff      	movs	r1, #255	; 0xff
 80028ea:	f06f 0001 	mvn.w	r0, #1
 80028ee:	f7ff ffa9 	bl	8002844 <__NVIC_SetPriority>
    SCB->ICSR |= SCB_ICSR_PENDSVSET_Msk;//pendsv pending bit 1
 80028f2:	4b05      	ldr	r3, [pc, #20]	; (8002908 <run_first_task+0x30>)
 80028f4:	685b      	ldr	r3, [r3, #4]
 80028f6:	4a04      	ldr	r2, [pc, #16]	; (8002908 <run_first_task+0x30>)
 80028f8:	f043 5380 	orr.w	r3, r3, #268435456	; 0x10000000
 80028fc:	6053      	str	r3, [r2, #4]
}
 80028fe:	bf00      	nop
 8002900:	3708      	adds	r7, #8
 8002902:	46bd      	mov	sp, r7
 8002904:	bd80      	pop	{r7, pc}
 8002906:	bf00      	nop
 8002908:	e000ed00 	and	lr, r0, r0, lsl #26

0800290c <task_switch>:
void task_switch(void)
{
 800290c:	b480      	push	{r7}
 800290e:	af00      	add	r7, sp, #0
    SCB->ICSR |= SCB_ICSR_PENDSVSET_Msk;//pendsv pending bit 1
 8002910:	4b05      	ldr	r3, [pc, #20]	; (8002928 <task_switch+0x1c>)
 8002912:	685b      	ldr	r3, [r3, #4]
 8002914:	4a04      	ldr	r2, [pc, #16]	; (8002928 <task_switch+0x1c>)
 8002916:	f043 5380 	orr.w	r3, r3, #268435456	; 0x10000000
 800291a:	6053      	str	r3, [r2, #4]
}
 800291c:	bf00      	nop
 800291e:	46bd      	mov	sp, r7
 8002920:	f85d 7b04 	ldr.w	r7, [sp], #4
 8002924:	4770      	bx	lr
 8002926:	bf00      	nop
 8002928:	e000ed00 	and	lr, r0, r0, lsl #26

0800292c <__NVIC_SetPriority>:
{
 800292c:	b480      	push	{r7}
 800292e:	b083      	sub	sp, #12
 8002930:	af00      	add	r7, sp, #0
 8002932:	4603      	mov	r3, r0
 8002934:	6039      	str	r1, [r7, #0]
 8002936:	71fb      	strb	r3, [r7, #7]
  if ((int32_t)(IRQn) >= 0)
 8002938:	f997 3007 	ldrsb.w	r3, [r7, #7]
 800293c:	2b00      	cmp	r3, #0
 800293e:	db0a      	blt.n	8002956 <__NVIC_SetPriority+0x2a>
    NVIC->IP[((uint32_t)IRQn)]               = (uint8_t)((priority << (8U - __NVIC_PRIO_BITS)) & (uint32_t)0xFFUL);
 8002940:	683b      	ldr	r3, [r7, #0]
 8002942:	b2da      	uxtb	r2, r3
 8002944:	490c      	ldr	r1, [pc, #48]	; (8002978 <__NVIC_SetPriority+0x4c>)
 8002946:	f997 3007 	ldrsb.w	r3, [r7, #7]
 800294a:	0112      	lsls	r2, r2, #4
 800294c:	b2d2      	uxtb	r2, r2
 800294e:	440b      	add	r3, r1
 8002950:	f883 2300 	strb.w	r2, [r3, #768]	; 0x300
}
 8002954:	e00a      	b.n	800296c <__NVIC_SetPriority+0x40>
    SCB->SHP[(((uint32_t)IRQn) & 0xFUL)-4UL] = (uint8_t)((priority << (8U - __NVIC_PRIO_BITS)) & (uint32_t)0xFFUL);
 8002956:	683b      	ldr	r3, [r7, #0]
 8002958:	b2da      	uxtb	r2, r3
 800295a:	4908      	ldr	r1, [pc, #32]	; (800297c <__NVIC_SetPriority+0x50>)
 800295c:	79fb      	ldrb	r3, [r7, #7]
 800295e:	f003 030f 	and.w	r3, r3, #15
 8002962:	3b04      	subs	r3, #4
 8002964:	0112      	lsls	r2, r2, #4
 8002966:	b2d2      	uxtb	r2, r2
 8002968:	440b      	add	r3, r1
 800296a:	761a      	strb	r2, [r3, #24]
}
 800296c:	bf00      	nop
 800296e:	370c      	adds	r7, #12
 8002970:	46bd      	mov	sp, r7
 8002972:	f85d 7b04 	ldr.w	r7, [sp], #4
 8002976:	4770      	bx	lr
 8002978:	e000e100 	and	lr, r0, r0, lsl #2
 800297c:	e000ed00 	and	lr, r0, r0, lsl #26

08002980 <SysTick_Config>:
{
 8002980:	b580      	push	{r7, lr}
 8002982:	b082      	sub	sp, #8
 8002984:	af00      	add	r7, sp, #0
 8002986:	6078      	str	r0, [r7, #4]
  if ((ticks - 1UL) > SysTick_LOAD_RELOAD_Msk)
 8002988:	687b      	ldr	r3, [r7, #4]
 800298a:	3b01      	subs	r3, #1
 800298c:	f1b3 7f80 	cmp.w	r3, #16777216	; 0x1000000
 8002990:	d301      	bcc.n	8002996 <SysTick_Config+0x16>
    return (1UL);                                                   /* Reload value impossible */
 8002992:	2301      	movs	r3, #1
 8002994:	e00f      	b.n	80029b6 <SysTick_Config+0x36>
  SysTick->LOAD  = (uint32_t)(ticks - 1UL);                         /* set reload register */
 8002996:	4a0a      	ldr	r2, [pc, #40]	; (80029c0 <SysTick_Config+0x40>)
 8002998:	687b      	ldr	r3, [r7, #4]
 800299a:	3b01      	subs	r3, #1
 800299c:	6053      	str	r3, [r2, #4]
  NVIC_SetPriority (SysTick_IRQn, (1UL << __NVIC_PRIO_BITS) - 1UL); /* set Priority for Systick Interrupt */
 800299e:	210f      	movs	r1, #15
 80029a0:	f04f 30ff 	mov.w	r0, #4294967295	; 0xffffffff
 80029a4:	f7ff ffc2 	bl	800292c <__NVIC_SetPriority>
  SysTick->VAL   = 0UL;                                             /* Load the SysTick Counter Value */
 80029a8:	4b05      	ldr	r3, [pc, #20]	; (80029c0 <SysTick_Config+0x40>)
 80029aa:	2200      	movs	r2, #0
 80029ac:	609a      	str	r2, [r3, #8]
  SysTick->CTRL  = SysTick_CTRL_CLKSOURCE_Msk |
 80029ae:	4b04      	ldr	r3, [pc, #16]	; (80029c0 <SysTick_Config+0x40>)
 80029b0:	2207      	movs	r2, #7
 80029b2:	601a      	str	r2, [r3, #0]
  return (0UL);                                                     /* Function successful */
 80029b4:	2300      	movs	r3, #0
}
 80029b6:	4618      	mov	r0, r3
 80029b8:	3708      	adds	r7, #8
 80029ba:	46bd      	mov	sp, r7
 80029bc:	bd80      	pop	{r7, pc}
 80029be:	bf00      	nop
 80029c0:	e000e010 	and	lr, r0, r0, lsl r0

080029c4 <task_create>:

typedef void (*task_entry_t)(void* param);


void task_create(task_t * task, task_entry_t entry, void *param, uint32_t priority, uint32_t* stack)
{
 80029c4:	b580      	push	{r7, lr}
 80029c6:	b084      	sub	sp, #16
 80029c8:	af00      	add	r7, sp, #0
 80029ca:	60f8      	str	r0, [r7, #12]
 80029cc:	60b9      	str	r1, [r7, #8]
 80029ce:	607a      	str	r2, [r7, #4]
 80029d0:	603b      	str	r3, [r7, #0]
    *(--stack) = (unsigned long)(1<<24);                // XPSR, ThumbThumbARM
 80029d2:	69bb      	ldr	r3, [r7, #24]
 80029d4:	3b04      	subs	r3, #4
 80029d6:	61bb      	str	r3, [r7, #24]
 80029d8:	69bb      	ldr	r3, [r7, #24]
 80029da:	f04f 7280 	mov.w	r2, #16777216	; 0x1000000
 80029de:	601a      	str	r2, [r3, #0]
    *(--stack) = (unsigned long)entry;                  // 
 80029e0:	69bb      	ldr	r3, [r7, #24]
 80029e2:	3b04      	subs	r3, #4
 80029e4:	61bb      	str	r3, [r7, #24]
 80029e6:	68ba      	ldr	r2, [r7, #8]
 80029e8:	69bb      	ldr	r3, [r7, #24]
 80029ea:	601a      	str	r2, [r3, #0]
    *(--stack) = (unsigned long)0x14;                   // R14(LR), return xxx
 80029ec:	69bb      	ldr	r3, [r7, #24]
 80029ee:	3b04      	subs	r3, #4
 80029f0:	61bb      	str	r3, [r7, #24]
 80029f2:	69bb      	ldr	r3, [r7, #24]
 80029f4:	2214      	movs	r2, #20
 80029f6:	601a      	str	r2, [r3, #0]
    *(--stack) = (unsigned long)0x12;                   // R12, 
 80029f8:	69bb      	ldr	r3, [r7, #24]
 80029fa:	3b04      	subs	r3, #4
 80029fc:	61bb      	str	r3, [r7, #24]
 80029fe:	69bb      	ldr	r3, [r7, #24]
 8002a00:	2212      	movs	r2, #18
 8002a02:	601a      	str	r2, [r3, #0]
    *(--stack) = (unsigned long)0x3;                    // R3, 
