
Memory Configuration

Name             Origin             Length             Attributes
*default*        0x0000000000000000 0xffffffffffffffff

Linker script and memory map

LOAD /tmp/ccWIpY2U.o
LOAD /tmp/cct8gKXY.o
LOAD /tmp/ccyX3BZY.o
LOAD /tmp/cceRlpXU.o
LOAD /tmp/ccibOX7W.o
                0x0000000000000000                . = 0x0

.text           0x0000000000000000      0x574
 *(.text._start)
 .text._start   0x0000000000000000       0x10 /tmp/ccWIpY2U.o
                0x0000000000000000                _start
 *(.isr_vectors)
 .isr_vectors   0x0000000000000010       0x40 /tmp/ccWIpY2U.o
 *(.text)
 .text          0x0000000000000050        0x0 /tmp/ccWIpY2U.o
 .text          0x0000000000000050       0xf0 /tmp/cct8gKXY.o
                0x0000000000000050                main
                0x0000000000000068                nmi_handler
                0x0000000000000080                hard_fault_handler
                0x0000000000000098                mem_manage_handler
                0x00000000000000b0                bus_fault_handler
                0x00000000000000c8                usage_fault_handler
                0x00000000000000e0                svc_handler
                0x00000000000000f8                debug_mon_handler
                0x0000000000000110                pend_sv_handler
                0x0000000000000128                sys_tick_handler
 .text          0x0000000000000140       0xf0 /tmp/ccyX3BZY.o
                0x00000000000001d8                hal_mpu_test
 .text          0x0000000000000230      0x300 /tmp/cceRlpXU.o
                0x0000000000000260                m_putchar
                0x0000000000000280                m_putstr
                0x00000000000002aa                m_strlen
                0x00000000000002d6                lite_printf
 .text          0x0000000000000530       0x44 /tmp/ccibOX7W.o
                0x0000000000000530                test_div
                0x0000000000000554                backtrace_test

.glue_7         0x0000000000000574        0x0
 .glue_7        0x0000000000000574        0x0 linker stubs

.glue_7t        0x0000000000000574        0x0
 .glue_7t       0x0000000000000574        0x0 linker stubs

.vfp11_veneer   0x0000000000000574        0x0
 .vfp11_veneer  0x0000000000000574        0x0 linker stubs

.v4_bx          0x0000000000000574        0x0
 .v4_bx         0x0000000000000574        0x0 linker stubs

.text.default_handler
                0x0000000000000574        0x2
 .text.default_handler
                0x0000000000000574        0x2 /tmp/ccWIpY2U.o

.rodata         0x0000000000000578       0xfe
 .rodata        0x0000000000000578       0xc1 /tmp/cct8gKXY.o
 *fill*         0x0000000000000639        0x3 
 .rodata        0x000000000000063c       0x20 /tmp/ccyX3BZY.o
 .rodata        0x000000000000065c        0x4 /tmp/cceRlpXU.o
 .rodata        0x0000000000000660       0x16 /tmp/ccibOX7W.o

.iplt           0x0000000000000678        0x0
 .iplt          0x0000000000000678        0x0 /tmp/ccWIpY2U.o

.rel.dyn        0x0000000000000678        0x0
 .rel.iplt      0x0000000000000678        0x0 /tmp/ccWIpY2U.o
                0x0000000020000000                . = 0x20000000

.data           0x0000000020000000        0x0
 *(.data)
 .data          0x0000000020000000        0x0 /tmp/ccWIpY2U.o
 .data          0x0000000020000000        0x0 /tmp/cct8gKXY.o
 .data          0x0000000020000000        0x0 /tmp/ccyX3BZY.o
 .data          0x0000000020000000        0x0 /tmp/cceRlpXU.o
 .data          0x0000000020000000        0x0 /tmp/ccibOX7W.o

.igot.plt       0x0000000020000000        0x0
 .igot.plt      0x0000000020000000        0x0 /tmp/ccWIpY2U.o

.bss            0x0000000020000000        0x0
 *(.bss)
 .bss           0x0000000020000000        0x0 /tmp/ccWIpY2U.o
 .bss           0x0000000020000000        0x0 /tmp/cct8gKXY.o
 .bss           0x0000000020000000        0x0 /tmp/ccyX3BZY.o
 .bss           0x0000000020000000        0x0 /tmp/cceRlpXU.o
 .bss           0x0000000020000000        0x0 /tmp/ccibOX7W.o
                0x0000000020000000                . = ALIGN (0x8)
                0x0000000020001000                . = (. + 0x1000)
                0x0000000020001000                stack_top = .
OUTPUT(./build/test.elf elf32-littlearm)
LOAD linker stubs

.ARM.attributes
                0x0000000000000000       0x1b
 .ARM.attributes
                0x0000000000000000       0x1b /tmp/ccWIpY2U.o
 .ARM.attributes
                0x000000000000001b       0x1b /tmp/cct8gKXY.o
 .ARM.attributes
                0x0000000000000036       0x1b /tmp/ccyX3BZY.o
 .ARM.attributes
                0x0000000000000051       0x1b /tmp/cceRlpXU.o
 .ARM.attributes
                0x000000000000006c       0x1b /tmp/ccibOX7W.o

.comment        0x0000000000000000       0x59
 .comment       0x0000000000000000       0x59 /tmp/cct8gKXY.o
                                         0x5a (size before relaxing)
 .comment       0x0000000000000059       0x5a /tmp/ccyX3BZY.o
 .comment       0x0000000000000059       0x5a /tmp/cceRlpXU.o
 .comment       0x0000000000000059       0x5a /tmp/ccibOX7W.o

.debug_line     0x0000000000000000      0x503
 .debug_line    0x0000000000000000       0x4f /tmp/ccWIpY2U.o
 .debug_line    0x000000000000004f      0x114 /tmp/cct8gKXY.o
 .debug_line    0x0000000000000163      0x159 /tmp/ccyX3BZY.o
 .debug_line    0x00000000000002bc      0x1df /tmp/cceRlpXU.o
 .debug_line    0x000000000000049b       0x68 /tmp/ccibOX7W.o

.debug_info     0x0000000000000000      0x9d6
 .debug_info    0x0000000000000000       0x22 /tmp/ccWIpY2U.o
 .debug_info    0x0000000000000022      0x2a5 /tmp/cct8gKXY.o
 .debug_info    0x00000000000002c7      0x46c /tmp/ccyX3BZY.o
 .debug_info    0x0000000000000733      0x222 /tmp/cceRlpXU.o
 .debug_info    0x0000000000000955       0x81 /tmp/ccibOX7W.o

.debug_abbrev   0x0000000000000000      0x397
 .debug_abbrev  0x0000000000000000       0x12 /tmp/ccWIpY2U.o
 .debug_abbrev  0x0000000000000012       0x95 /tmp/cct8gKXY.o
 .debug_abbrev  0x00000000000000a7      0x169 /tmp/ccyX3BZY.o
 .debug_abbrev  0x0000000000000210      0x11f /tmp/cceRlpXU.o
 .debug_abbrev  0x000000000000032f       0x68 /tmp/ccibOX7W.o

.debug_aranges  0x0000000000000000       0xa8
 .debug_aranges
                0x0000000000000000       0x28 /tmp/ccWIpY2U.o
 .debug_aranges
                0x0000000000000028       0x20 /tmp/cct8gKXY.o
 .debug_aranges
                0x0000000000000048       0x20 /tmp/ccyX3BZY.o
 .debug_aranges
                0x0000000000000068       0x20 /tmp/cceRlpXU.o
 .debug_aranges
                0x0000000000000088       0x20 /tmp/ccibOX7W.o

.debug_str      0x0000000000000000      0x43d
 .debug_str     0x0000000000000000       0x50 /tmp/ccWIpY2U.o
 .debug_str     0x0000000000000050      0x1c9 /tmp/cct8gKXY.o
                                        0x241 (size before relaxing)
 .debug_str     0x0000000000000219      0x161 /tmp/ccyX3BZY.o
                                        0x2eb (size before relaxing)
 .debug_str     0x000000000000037a       0x86 /tmp/cceRlpXU.o
                                        0x211 (size before relaxing)
 .debug_str     0x0000000000000400       0x3d /tmp/ccibOX7W.o
                                        0x12e (size before relaxing)

.debug_ranges   0x0000000000000000       0x20
 .debug_ranges  0x0000000000000000       0x20 /tmp/ccWIpY2U.o

.debug_frame    0x0000000000000000      0x310
 .debug_frame   0x0000000000000000      0x128 /tmp/cct8gKXY.o
 .debug_frame   0x0000000000000128       0xa8 /tmp/ccyX3BZY.o
 .debug_frame   0x00000000000001d0       0xec /tmp/cceRlpXU.o
 .debug_frame   0x00000000000002bc       0x54 /tmp/ccibOX7W.o
