
Memory Configuration

Name             Origin             Length             Attributes
*default*        0x00000000         0xffffffff

Linker script and memory map

LOAD C:\Users\suse1\AppData\Local\Temp\ccxjHEBd.o
LOAD C:\Users\suse1\AppData\Local\Temp\ccSuah9h.o
LOAD C:\Users\suse1\AppData\Local\Temp\cc6c4Eiq.o
LOAD C:\Users\suse1\AppData\Local\Temp\ccMdc9vE.o
LOAD C:\Users\suse1\AppData\Local\Temp\ccONgpi2.o
LOAD C:\Users\suse1\AppData\Local\Temp\ccElpYvD.o
                0x00000000                . = 0x0
                0x00000000                _stext = .

.text           0x00000000     0x1514
 *(.text._start)
 .text._start   0x00000000       0x10 C:\Users\suse1\AppData\Local\Temp\ccxjHEBd.o
                0x00000000                _start
 *(.isr_vectors)
 .isr_vectors   0x00000010       0x40 C:\Users\suse1\AppData\Local\Temp\ccxjHEBd.o
 *(.text)
 .text          0x00000050        0x0 C:\Users\suse1\AppData\Local\Temp\ccxjHEBd.o
 .text          0x00000050       0xf0 C:\Users\suse1\AppData\Local\Temp\ccSuah9h.o
                0x00000050                main
                0x00000068                nmi_handler
                0x00000080                hard_fault_handler
                0x00000098                mem_manage_handler
                0x000000b0                bus_fault_handler
                0x000000c8                usage_fault_handler
                0x000000e0                svc_handler
                0x000000f8                debug_mon_handler
                0x00000110                pend_sv_handler
                0x00000128                sys_tick_handler
 .text          0x00000140       0xe8 C:\Users\suse1\AppData\Local\Temp\cc6c4Eiq.o
                0x000001d0                hal_mpu_test
 .text          0x00000228      0x314 C:\Users\suse1\AppData\Local\Temp\ccMdc9vE.o
                0x00000258                __putchar
                0x00000278                _putchar
                0x00000298                __putstr
                0x000002c4                __strlen
                0x000002f0                lite_printf
 .text          0x0000053c      0x254 C:\Users\suse1\AppData\Local\Temp\ccONgpi2.o
                0x0000053c                test_div
                0x00000570                fault_test_by_unalign
                0x000005d8                fault_test_by_div0
                0x00000680                backtrace_test
 .text          0x00000790      0xd84 C:\Users\suse1\AppData\Local\Temp\ccElpYvD.o
                0x000013d0                printf_
                0x00001408                sprintf_
                0x00001440                snprintf_
                0x00001478                vprintf_
                0x000014a4                vsnprintf_
                0x000014d0                fctprintf
                0x00001514                _etext = .

.glue_7         0x00001514        0x0
 .glue_7        0x00001514        0x0 linker stubs

.glue_7t        0x00001514        0x0
 .glue_7t       0x00001514        0x0 linker stubs

.vfp11_veneer   0x00001514        0x0
 .vfp11_veneer  0x00001514        0x0 linker stubs

.v4_bx          0x00001514        0x0
 .v4_bx         0x00001514        0x0 linker stubs

.text.default_handler
                0x00001514        0x2
 .text.default_handler
                0x00001514        0x2 C:\Users\suse1\AppData\Local\Temp\ccxjHEBd.o

.rodata         0x00001518      0x1f3
 .rodata        0x00001518       0xc1 C:\Users\suse1\AppData\Local\Temp\ccSuah9h.o
 *fill*         0x000015d9        0x3 
 .rodata        0x000015dc       0x20 C:\Users\suse1\AppData\Local\Temp\cc6c4Eiq.o
 .rodata        0x000015fc        0x4 C:\Users\suse1\AppData\Local\Temp\ccMdc9vE.o
 .rodata        0x00001600      0x10b C:\Users\suse1\AppData\Local\Temp\ccONgpi2.o

.iplt           0x0000170c        0x0
 .iplt          0x0000170c        0x0 C:\Users\suse1\AppData\Local\Temp\ccxjHEBd.o

.rel.dyn        0x0000170c        0x0
 .rel.iplt      0x0000170c        0x0 C:\Users\suse1\AppData\Local\Temp\ccxjHEBd.o
                0x20000000                . = 0x20000000

.data           0x20000000        0x0
 *(.data)
 .data          0x20000000        0x0 C:\Users\suse1\AppData\Local\Temp\ccxjHEBd.o
 .data          0x20000000        0x0 C:\Users\suse1\AppData\Local\Temp\ccSuah9h.o
 .data          0x20000000        0x0 C:\Users\suse1\AppData\Local\Temp\cc6c4Eiq.o
 .data          0x20000000        0x0 C:\Users\suse1\AppData\Local\Temp\ccMdc9vE.o
 .data          0x20000000        0x0 C:\Users\suse1\AppData\Local\Temp\ccONgpi2.o
 .data          0x20000000        0x0 C:\Users\suse1\AppData\Local\Temp\ccElpYvD.o

.igot.plt       0x20000000        0x0
 .igot.plt      0x20000000        0x0 C:\Users\suse1\AppData\Local\Temp\ccxjHEBd.o

.bss            0x20000000       0x18
 *(.bss)
 .bss           0x20000000        0x0 C:\Users\suse1\AppData\Local\Temp\ccxjHEBd.o
 .bss           0x20000000        0x0 C:\Users\suse1\AppData\Local\Temp\ccSuah9h.o
 .bss           0x20000000        0x0 C:\Users\suse1\AppData\Local\Temp\cc6c4Eiq.o
 .bss           0x20000000        0x0 C:\Users\suse1\AppData\Local\Temp\ccMdc9vE.o
 .bss           0x20000000       0x18 C:\Users\suse1\AppData\Local\Temp\ccONgpi2.o
                0x20000000                code_start_addr
                0x20000004                code_end_addr
                0x20000008                code_size
                0x2000000c                stack_start_addr
                0x20000010                stack_end_addr
                0x20000014                stack_size
 .bss           0x20000018        0x0 C:\Users\suse1\AppData\Local\Temp\ccElpYvD.o
                0x20000018                . = ALIGN (0x8)
                0x20000018                _sstack = .
                0x20001018                . = (. + 0x1000)
                0x20001018                _estack = .
OUTPUT(./build/test.elf elf32-littlearm)

.ARM.attributes
                0x00000000       0x21
 .ARM.attributes
                0x00000000       0x21 C:\Users\suse1\AppData\Local\Temp\ccxjHEBd.o
 .ARM.attributes
                0x00000021       0x21 C:\Users\suse1\AppData\Local\Temp\ccSuah9h.o
 .ARM.attributes
                0x00000042       0x21 C:\Users\suse1\AppData\Local\Temp\cc6c4Eiq.o
 .ARM.attributes
                0x00000063       0x21 C:\Users\suse1\AppData\Local\Temp\ccMdc9vE.o
 .ARM.attributes
                0x00000084       0x21 C:\Users\suse1\AppData\Local\Temp\ccONgpi2.o
 .ARM.attributes
                0x000000a5       0x21 C:\Users\suse1\AppData\Local\Temp\ccElpYvD.o

.comment        0x00000000       0x7e
 .comment       0x00000000       0x7e C:\Users\suse1\AppData\Local\Temp\ccSuah9h.o
                                 0x7f (size before relaxing)
 .comment       0x0000007e       0x7f C:\Users\suse1\AppData\Local\Temp\cc6c4Eiq.o
 .comment       0x0000007e       0x7f C:\Users\suse1\AppData\Local\Temp\ccMdc9vE.o
 .comment       0x0000007e       0x7f C:\Users\suse1\AppData\Local\Temp\ccONgpi2.o
 .comment       0x0000007e       0x7f C:\Users\suse1\AppData\Local\Temp\ccElpYvD.o

.debug_line     0x00000000      0x97b
 .debug_line    0x00000000       0x4f C:\Users\suse1\AppData\Local\Temp\ccxjHEBd.o
 .debug_line    0x0000004f      0x117 C:\Users\suse1\AppData\Local\Temp\ccSuah9h.o
 .debug_line    0x00000166      0x156 C:\Users\suse1\AppData\Local\Temp\cc6c4Eiq.o
 .debug_line    0x000002bc      0x143 C:\Users\suse1\AppData\Local\Temp\ccMdc9vE.o
 .debug_line    0x000003ff      0x21f C:\Users\suse1\AppData\Local\Temp\ccONgpi2.o
 .debug_line    0x0000061e      0x35d C:\Users\suse1\AppData\Local\Temp\ccElpYvD.o

.debug_info     0x00000000     0x1f97
 .debug_info    0x00000000       0x22 C:\Users\suse1\AppData\Local\Temp\ccxjHEBd.o
 .debug_info    0x00000022      0x2a0 C:\Users\suse1\AppData\Local\Temp\ccSuah9h.o
 .debug_info    0x000002c2      0x437 C:\Users\suse1\AppData\Local\Temp\cc6c4Eiq.o
 .debug_info    0x000006f9      0x235 C:\Users\suse1\AppData\Local\Temp\ccMdc9vE.o
 .debug_info    0x0000092e      0xd1b C:\Users\suse1\AppData\Local\Temp\ccONgpi2.o
 .debug_info    0x00001649      0x94e C:\Users\suse1\AppData\Local\Temp\ccElpYvD.o

.debug_abbrev   0x00000000      0x770
 .debug_abbrev  0x00000000       0x12 C:\Users\suse1\AppData\Local\Temp\ccxjHEBd.o
 .debug_abbrev  0x00000012       0x8f C:\Users\suse1\AppData\Local\Temp\ccSuah9h.o
 .debug_abbrev  0x000000a1      0x14b C:\Users\suse1\AppData\Local\Temp\cc6c4Eiq.o
 .debug_abbrev  0x000001ec      0x102 C:\Users\suse1\AppData\Local\Temp\ccMdc9vE.o
 .debug_abbrev  0x000002ee      0x2ac C:\Users\suse1\AppData\Local\Temp\ccONgpi2.o
 .debug_abbrev  0x0000059a      0x1d6 C:\Users\suse1\AppData\Local\Temp\ccElpYvD.o

.debug_aranges  0x00000000       0xc8
 .debug_aranges
                0x00000000       0x28 C:\Users\suse1\AppData\Local\Temp\ccxjHEBd.o
 .debug_aranges
                0x00000028       0x20 C:\Users\suse1\AppData\Local\Temp\ccSuah9h.o
 .debug_aranges
                0x00000048       0x20 C:\Users\suse1\AppData\Local\Temp\cc6c4Eiq.o
 .debug_aranges
                0x00000068       0x20 C:\Users\suse1\AppData\Local\Temp\ccMdc9vE.o
 .debug_aranges
                0x00000088       0x20 C:\Users\suse1\AppData\Local\Temp\ccONgpi2.o
 .debug_aranges
                0x000000a8       0x20 C:\Users\suse1\AppData\Local\Temp\ccElpYvD.o

.debug_str      0x00000000      0xa0b
 .debug_str     0x00000000       0x4f C:\Users\suse1\AppData\Local\Temp\ccxjHEBd.o
 .debug_str     0x0000004f      0x1da C:\Users\suse1\AppData\Local\Temp\ccSuah9h.o
                                0x24e (size before relaxing)
 .debug_str     0x00000229      0x161 C:\Users\suse1\AppData\Local\Temp\cc6c4Eiq.o
                                0x2f8 (size before relaxing)
 .debug_str     0x0000038a       0x8a C:\Users\suse1\AppData\Local\Temp\ccMdc9vE.o
                                0x231 (size before relaxing)
 .debug_str     0x00000414      0x4ce C:\Users\suse1\AppData\Local\Temp\ccONgpi2.o
                                0x719 (size before relaxing)
 .debug_str     0x000008e2      0x129 C:\Users\suse1\AppData\Local\Temp\ccElpYvD.o
                                0x327 (size before relaxing)

.debug_ranges   0x00000000       0x20
 .debug_ranges  0x00000000       0x20 C:\Users\suse1\AppData\Local\Temp\ccxjHEBd.o

.debug_frame    0x00000000      0x69c
 .debug_frame   0x00000000      0x128 C:\Users\suse1\AppData\Local\Temp\ccSuah9h.o
 .debug_frame   0x00000128       0xa8 C:\Users\suse1\AppData\Local\Temp\cc6c4Eiq.o
 .debug_frame   0x000001d0      0x118 C:\Users\suse1\AppData\Local\Temp\ccMdc9vE.o
 .debug_frame   0x000002e8       0xcc C:\Users\suse1\AppData\Local\Temp\ccONgpi2.o
 .debug_frame   0x000003b4      0x2e8 C:\Users\suse1\AppData\Local\Temp\ccElpYvD.o
