
../../../../build/stm32f4xx/NetduinoPlus2/NetduinoPlus2.elf:     file format elf32-littlearm


Disassembly of section .isr_vector:

08000000 <g_pfnVectors>:
 8000000:	20020000 	andcs	r0, r2, r0
 8000004:	08004a15 	stmdaeq	r0, {r0, r2, r4, r9, fp, lr}
 8000008:	08004a29 	stmdaeq	r0, {r0, r3, r5, r9, fp, lr}
 800000c:	080048a5 	stmdaeq	r0, {r0, r2, r5, r7, fp, lr}
 8000010:	08004a29 	stmdaeq	r0, {r0, r3, r5, r9, fp, lr}
 8000014:	0800491d 	stmdaeq	r0, {r0, r2, r3, r4, r8, fp, lr}
 8000018:	08004995 	stmdaeq	r0, {r0, r2, r4, r7, r8, fp, lr}
	...
 800002c:	08001205 	stmdaeq	r0, {r0, r2, r9, ip}
 8000030:	0800121d 	stmdaeq	r0, {r0, r2, r3, r4, r9, ip}
 8000034:	00000000 	andeq	r0, r0, r0
 8000038:	08004a2d 	stmdaeq	r0, {r0, r2, r3, r5, r9, fp, lr}
 800003c:	080035ed 	stmdaeq	r0, {r0, r2, r3, r5, r6, r7, r8, sl, ip, sp}
 8000040:	08004a29 	stmdaeq	r0, {r0, r3, r5, r9, fp, lr}
 8000044:	08004a29 	stmdaeq	r0, {r0, r3, r5, r9, fp, lr}
 8000048:	08004a29 	stmdaeq	r0, {r0, r3, r5, r9, fp, lr}
 800004c:	08004a29 	stmdaeq	r0, {r0, r3, r5, r9, fp, lr}
 8000050:	08004a29 	stmdaeq	r0, {r0, r3, r5, r9, fp, lr}
 8000054:	08004a29 	stmdaeq	r0, {r0, r3, r5, r9, fp, lr}
 8000058:	08004a29 	stmdaeq	r0, {r0, r3, r5, r9, fp, lr}
 800005c:	08004a29 	stmdaeq	r0, {r0, r3, r5, r9, fp, lr}
 8000060:	08004a29 	stmdaeq	r0, {r0, r3, r5, r9, fp, lr}
 8000064:	08004a29 	stmdaeq	r0, {r0, r3, r5, r9, fp, lr}
 8000068:	08004a29 	stmdaeq	r0, {r0, r3, r5, r9, fp, lr}
 800006c:	08004a29 	stmdaeq	r0, {r0, r3, r5, r9, fp, lr}
 8000070:	08004a29 	stmdaeq	r0, {r0, r3, r5, r9, fp, lr}
 8000074:	08004a29 	stmdaeq	r0, {r0, r3, r5, r9, fp, lr}
 8000078:	08004a29 	stmdaeq	r0, {r0, r3, r5, r9, fp, lr}
 800007c:	08004a29 	stmdaeq	r0, {r0, r3, r5, r9, fp, lr}
 8000080:	08004a29 	stmdaeq	r0, {r0, r3, r5, r9, fp, lr}
 8000084:	08004a29 	stmdaeq	r0, {r0, r3, r5, r9, fp, lr}
 8000088:	08004a29 	stmdaeq	r0, {r0, r3, r5, r9, fp, lr}
 800008c:	08004a29 	stmdaeq	r0, {r0, r3, r5, r9, fp, lr}
 8000090:	08004a29 	stmdaeq	r0, {r0, r3, r5, r9, fp, lr}
 8000094:	08004a29 	stmdaeq	r0, {r0, r3, r5, r9, fp, lr}
 8000098:	08004a29 	stmdaeq	r0, {r0, r3, r5, r9, fp, lr}
 800009c:	08004a29 	stmdaeq	r0, {r0, r3, r5, r9, fp, lr}
 80000a0:	08004a29 	stmdaeq	r0, {r0, r3, r5, r9, fp, lr}
 80000a4:	08004a29 	stmdaeq	r0, {r0, r3, r5, r9, fp, lr}
 80000a8:	08004a29 	stmdaeq	r0, {r0, r3, r5, r9, fp, lr}
 80000ac:	08004a29 	stmdaeq	r0, {r0, r3, r5, r9, fp, lr}
 80000b0:	08004a29 	stmdaeq	r0, {r0, r3, r5, r9, fp, lr}
 80000b4:	08004a29 	stmdaeq	r0, {r0, r3, r5, r9, fp, lr}
 80000b8:	08004a29 	stmdaeq	r0, {r0, r3, r5, r9, fp, lr}
 80000bc:	08004a29 	stmdaeq	r0, {r0, r3, r5, r9, fp, lr}
 80000c0:	08004a29 	stmdaeq	r0, {r0, r3, r5, r9, fp, lr}
 80000c4:	08004a29 	stmdaeq	r0, {r0, r3, r5, r9, fp, lr}
 80000c8:	08004a29 	stmdaeq	r0, {r0, r3, r5, r9, fp, lr}
 80000cc:	08004a29 	stmdaeq	r0, {r0, r3, r5, r9, fp, lr}
 80000d0:	08004a29 	stmdaeq	r0, {r0, r3, r5, r9, fp, lr}
 80000d4:	08004a29 	stmdaeq	r0, {r0, r3, r5, r9, fp, lr}
 80000d8:	08004a29 	stmdaeq	r0, {r0, r3, r5, r9, fp, lr}
 80000dc:	08004a29 	stmdaeq	r0, {r0, r3, r5, r9, fp, lr}
 80000e0:	08004a29 	stmdaeq	r0, {r0, r3, r5, r9, fp, lr}
 80000e4:	08004a29 	stmdaeq	r0, {r0, r3, r5, r9, fp, lr}
 80000e8:	08004a29 	stmdaeq	r0, {r0, r3, r5, r9, fp, lr}
 80000ec:	08004a29 	stmdaeq	r0, {r0, r3, r5, r9, fp, lr}
 80000f0:	08004a29 	stmdaeq	r0, {r0, r3, r5, r9, fp, lr}
 80000f4:	08004a29 	stmdaeq	r0, {r0, r3, r5, r9, fp, lr}
 80000f8:	08004a29 	stmdaeq	r0, {r0, r3, r5, r9, fp, lr}
 80000fc:	08004a29 	stmdaeq	r0, {r0, r3, r5, r9, fp, lr}
 8000100:	08004a29 	stmdaeq	r0, {r0, r3, r5, r9, fp, lr}
 8000104:	08004a29 	stmdaeq	r0, {r0, r3, r5, r9, fp, lr}
 8000108:	08004a29 	stmdaeq	r0, {r0, r3, r5, r9, fp, lr}
 800010c:	08004a29 	stmdaeq	r0, {r0, r3, r5, r9, fp, lr}
 8000110:	08004a29 	stmdaeq	r0, {r0, r3, r5, r9, fp, lr}
 8000114:	08004a29 	stmdaeq	r0, {r0, r3, r5, r9, fp, lr}
 8000118:	08004a29 	stmdaeq	r0, {r0, r3, r5, r9, fp, lr}
 800011c:	08004a29 	stmdaeq	r0, {r0, r3, r5, r9, fp, lr}
 8000120:	08004a29 	stmdaeq	r0, {r0, r3, r5, r9, fp, lr}
 8000124:	08004a29 	stmdaeq	r0, {r0, r3, r5, r9, fp, lr}
 8000128:	08004a29 	stmdaeq	r0, {r0, r3, r5, r9, fp, lr}
 800012c:	08004a29 	stmdaeq	r0, {r0, r3, r5, r9, fp, lr}
 8000130:	08004a29 	stmdaeq	r0, {r0, r3, r5, r9, fp, lr}
	...
 800013c:	08004a29 	stmdaeq	r0, {r0, r3, r5, r9, fp, lr}
 8000140:	08004a29 	stmdaeq	r0, {r0, r3, r5, r9, fp, lr}
 8000144:	08004a29 	stmdaeq	r0, {r0, r3, r5, r9, fp, lr}
 8000148:	08004a29 	stmdaeq	r0, {r0, r3, r5, r9, fp, lr}
 800014c:	08004a29 	stmdaeq	r0, {r0, r3, r5, r9, fp, lr}
 8000150:	08004a29 	stmdaeq	r0, {r0, r3, r5, r9, fp, lr}
 8000154:	08004a29 	stmdaeq	r0, {r0, r3, r5, r9, fp, lr}
 8000158:	08004a29 	stmdaeq	r0, {r0, r3, r5, r9, fp, lr}
 800015c:	08004a29 	stmdaeq	r0, {r0, r3, r5, r9, fp, lr}
 8000160:	08004a29 	stmdaeq	r0, {r0, r3, r5, r9, fp, lr}
 8000164:	08004a29 	stmdaeq	r0, {r0, r3, r5, r9, fp, lr}
 8000168:	08004a29 	stmdaeq	r0, {r0, r3, r5, r9, fp, lr}
 800016c:	08004a29 	stmdaeq	r0, {r0, r3, r5, r9, fp, lr}
 8000170:	08004a29 	stmdaeq	r0, {r0, r3, r5, r9, fp, lr}
 8000174:	08004a29 	stmdaeq	r0, {r0, r3, r5, r9, fp, lr}
	...
 8000180:	08004a29 	stmdaeq	r0, {r0, r3, r5, r9, fp, lr}
 8000184:	08004a29 	stmdaeq	r0, {r0, r3, r5, r9, fp, lr}

Disassembly of section .text:

08000188 <deregister_tm_clones>:
 8000188:	4803      	ldr	r0, [pc, #12]	; (8000198 <deregister_tm_clones+0x10>)
 800018a:	4b04      	ldr	r3, [pc, #16]	; (800019c <deregister_tm_clones+0x14>)
 800018c:	4283      	cmp	r3, r0
 800018e:	d002      	beq.n	8000196 <deregister_tm_clones+0xe>
 8000190:	4b03      	ldr	r3, [pc, #12]	; (80001a0 <deregister_tm_clones+0x18>)
 8000192:	b103      	cbz	r3, 8000196 <deregister_tm_clones+0xe>
 8000194:	4718      	bx	r3
 8000196:	4770      	bx	lr
 8000198:	20000520 	andcs	r0, r0, r0, lsr #10
 800019c:	20000520 	andcs	r0, r0, r0, lsr #10
 80001a0:	00000000 	andeq	r0, r0, r0

080001a4 <register_tm_clones>:
 80001a4:	4805      	ldr	r0, [pc, #20]	; (80001bc <register_tm_clones+0x18>)
 80001a6:	4906      	ldr	r1, [pc, #24]	; (80001c0 <register_tm_clones+0x1c>)
 80001a8:	1a09      	subs	r1, r1, r0
 80001aa:	1089      	asrs	r1, r1, #2
 80001ac:	eb01 71d1 	add.w	r1, r1, r1, lsr #31
 80001b0:	1049      	asrs	r1, r1, #1
 80001b2:	d002      	beq.n	80001ba <register_tm_clones+0x16>
 80001b4:	4b03      	ldr	r3, [pc, #12]	; (80001c4 <register_tm_clones+0x20>)
 80001b6:	b103      	cbz	r3, 80001ba <register_tm_clones+0x16>
 80001b8:	4718      	bx	r3
 80001ba:	4770      	bx	lr
 80001bc:	20000520 	andcs	r0, r0, r0, lsr #10
 80001c0:	20000520 	andcs	r0, r0, r0, lsr #10
 80001c4:	00000000 	andeq	r0, r0, r0

080001c8 <__do_global_dtors_aux>:
 80001c8:	b510      	push	{r4, lr}
 80001ca:	4c06      	ldr	r4, [pc, #24]	; (80001e4 <__do_global_dtors_aux+0x1c>)
 80001cc:	7823      	ldrb	r3, [r4, #0]
 80001ce:	b943      	cbnz	r3, 80001e2 <__do_global_dtors_aux+0x1a>
 80001d0:	f7ff ffda 	bl	8000188 <deregister_tm_clones>
 80001d4:	4b04      	ldr	r3, [pc, #16]	; (80001e8 <__do_global_dtors_aux+0x20>)
 80001d6:	b113      	cbz	r3, 80001de <__do_global_dtors_aux+0x16>
 80001d8:	4804      	ldr	r0, [pc, #16]	; (80001ec <__do_global_dtors_aux+0x24>)
 80001da:	f3af 8000 	nop.w
 80001de:	2301      	movs	r3, #1
 80001e0:	7023      	strb	r3, [r4, #0]
 80001e2:	bd10      	pop	{r4, pc}
 80001e4:	20000520 	andcs	r0, r0, r0, lsr #10
 80001e8:	00000000 	andeq	r0, r0, r0
 80001ec:	08004a70 	stmdaeq	r0, {r4, r5, r6, r9, fp, lr}

080001f0 <frame_dummy>:
 80001f0:	b508      	push	{r3, lr}
 80001f2:	4b04      	ldr	r3, [pc, #16]	; (8000204 <frame_dummy+0x14>)
 80001f4:	b11b      	cbz	r3, 80001fe <frame_dummy+0xe>
 80001f6:	4904      	ldr	r1, [pc, #16]	; (8000208 <frame_dummy+0x18>)
 80001f8:	4804      	ldr	r0, [pc, #16]	; (800020c <frame_dummy+0x1c>)
 80001fa:	f3af 8000 	nop.w
 80001fe:	e8bd 4008 	ldmia.w	sp!, {r3, lr}
 8000202:	e7cf      	b.n	80001a4 <register_tm_clones>
 8000204:	00000000 	andeq	r0, r0, r0
 8000208:	20000524 	andcs	r0, r0, r4, lsr #10
 800020c:	08004a70 	stmdaeq	r0, {r4, r5, r6, r9, fp, lr}

08000210 <__aeabi_drsub>:
 8000210:	f081 4100 	eor.w	r1, r1, #2147483648	; 0x80000000
 8000214:	e002      	b.n	800021c <__adddf3>
 8000216:	bf00      	nop

08000218 <__aeabi_dsub>:
 8000218:	f083 4300 	eor.w	r3, r3, #2147483648	; 0x80000000

0800021c <__adddf3>:
 800021c:	b530      	push	{r4, r5, lr}
 800021e:	ea4f 0441 	mov.w	r4, r1, lsl #1
 8000222:	ea4f 0543 	mov.w	r5, r3, lsl #1
 8000226:	ea94 0f05 	teq	r4, r5
 800022a:	bf08      	it	eq
 800022c:	ea90 0f02 	teqeq	r0, r2
 8000230:	bf1f      	itttt	ne
 8000232:	ea54 0c00 	orrsne.w	ip, r4, r0
 8000236:	ea55 0c02 	orrsne.w	ip, r5, r2
 800023a:	ea7f 5c64 	mvnsne.w	ip, r4, asr #21
 800023e:	ea7f 5c65 	mvnsne.w	ip, r5, asr #21
 8000242:	f000 80e2 	beq.w	800040a <__adddf3+0x1ee>
 8000246:	ea4f 5454 	mov.w	r4, r4, lsr #21
 800024a:	ebd4 5555 	rsbs	r5, r4, r5, lsr #21
 800024e:	bfb8      	it	lt
 8000250:	426d      	neglt	r5, r5
 8000252:	dd0c      	ble.n	800026e <__adddf3+0x52>
 8000254:	442c      	add	r4, r5
 8000256:	ea80 0202 	eor.w	r2, r0, r2
 800025a:	ea81 0303 	eor.w	r3, r1, r3
 800025e:	ea82 0000 	eor.w	r0, r2, r0
 8000262:	ea83 0101 	eor.w	r1, r3, r1
 8000266:	ea80 0202 	eor.w	r2, r0, r2
 800026a:	ea81 0303 	eor.w	r3, r1, r3
 800026e:	2d36      	cmp	r5, #54	; 0x36
 8000270:	bf88      	it	hi
 8000272:	bd30      	pophi	{r4, r5, pc}
 8000274:	f011 4f00 	tst.w	r1, #2147483648	; 0x80000000
 8000278:	ea4f 3101 	mov.w	r1, r1, lsl #12
 800027c:	f44f 1c80 	mov.w	ip, #1048576	; 0x100000
 8000280:	ea4c 3111 	orr.w	r1, ip, r1, lsr #12
 8000284:	d002      	beq.n	800028c <__adddf3+0x70>
 8000286:	4240      	negs	r0, r0
 8000288:	eb61 0141 	sbc.w	r1, r1, r1, lsl #1
 800028c:	f013 4f00 	tst.w	r3, #2147483648	; 0x80000000
 8000290:	ea4f 3303 	mov.w	r3, r3, lsl #12
 8000294:	ea4c 3313 	orr.w	r3, ip, r3, lsr #12
 8000298:	d002      	beq.n	80002a0 <__adddf3+0x84>
 800029a:	4252      	negs	r2, r2
 800029c:	eb63 0343 	sbc.w	r3, r3, r3, lsl #1
 80002a0:	ea94 0f05 	teq	r4, r5
 80002a4:	f000 80a7 	beq.w	80003f6 <__adddf3+0x1da>
 80002a8:	f1a4 0401 	sub.w	r4, r4, #1
 80002ac:	f1d5 0e20 	rsbs	lr, r5, #32
 80002b0:	db0d      	blt.n	80002ce <__adddf3+0xb2>
 80002b2:	fa02 fc0e 	lsl.w	ip, r2, lr
 80002b6:	fa22 f205 	lsr.w	r2, r2, r5
 80002ba:	1880      	adds	r0, r0, r2
 80002bc:	f141 0100 	adc.w	r1, r1, #0
 80002c0:	fa03 f20e 	lsl.w	r2, r3, lr
 80002c4:	1880      	adds	r0, r0, r2
 80002c6:	fa43 f305 	asr.w	r3, r3, r5
 80002ca:	4159      	adcs	r1, r3
 80002cc:	e00e      	b.n	80002ec <__adddf3+0xd0>
 80002ce:	f1a5 0520 	sub.w	r5, r5, #32
 80002d2:	f10e 0e20 	add.w	lr, lr, #32
 80002d6:	2a01      	cmp	r2, #1
 80002d8:	fa03 fc0e 	lsl.w	ip, r3, lr
 80002dc:	bf28      	it	cs
 80002de:	f04c 0c02 	orrcs.w	ip, ip, #2
 80002e2:	fa43 f305 	asr.w	r3, r3, r5
 80002e6:	18c0      	adds	r0, r0, r3
 80002e8:	eb51 71e3 	adcs.w	r1, r1, r3, asr #31
 80002ec:	f001 4500 	and.w	r5, r1, #2147483648	; 0x80000000
 80002f0:	d507      	bpl.n	8000302 <__adddf3+0xe6>
 80002f2:	f04f 0e00 	mov.w	lr, #0
 80002f6:	f1dc 0c00 	rsbs	ip, ip, #0
 80002fa:	eb7e 0000 	sbcs.w	r0, lr, r0
 80002fe:	eb6e 0101 	sbc.w	r1, lr, r1
 8000302:	f5b1 1f80 	cmp.w	r1, #1048576	; 0x100000
 8000306:	d31b      	bcc.n	8000340 <__adddf3+0x124>
 8000308:	f5b1 1f00 	cmp.w	r1, #2097152	; 0x200000
 800030c:	d30c      	bcc.n	8000328 <__adddf3+0x10c>
 800030e:	0849      	lsrs	r1, r1, #1
 8000310:	ea5f 0030 	movs.w	r0, r0, rrx
 8000314:	ea4f 0c3c 	mov.w	ip, ip, rrx
 8000318:	f104 0401 	add.w	r4, r4, #1
 800031c:	ea4f 5244 	mov.w	r2, r4, lsl #21
 8000320:	f512 0f80 	cmn.w	r2, #4194304	; 0x400000
 8000324:	f080 809a 	bcs.w	800045c <__adddf3+0x240>
 8000328:	f1bc 4f00 	cmp.w	ip, #2147483648	; 0x80000000
 800032c:	bf08      	it	eq
 800032e:	ea5f 0c50 	movseq.w	ip, r0, lsr #1
 8000332:	f150 0000 	adcs.w	r0, r0, #0
 8000336:	eb41 5104 	adc.w	r1, r1, r4, lsl #20
 800033a:	ea41 0105 	orr.w	r1, r1, r5
 800033e:	bd30      	pop	{r4, r5, pc}
 8000340:	ea5f 0c4c 	movs.w	ip, ip, lsl #1
 8000344:	4140      	adcs	r0, r0
 8000346:	eb41 0101 	adc.w	r1, r1, r1
 800034a:	f411 1f80 	tst.w	r1, #1048576	; 0x100000
 800034e:	f1a4 0401 	sub.w	r4, r4, #1
 8000352:	d1e9      	bne.n	8000328 <__adddf3+0x10c>
 8000354:	f091 0f00 	teq	r1, #0
 8000358:	bf04      	itt	eq
 800035a:	4601      	moveq	r1, r0
 800035c:	2000      	moveq	r0, #0
 800035e:	fab1 f381 	clz	r3, r1
 8000362:	bf08      	it	eq
 8000364:	3320      	addeq	r3, #32
 8000366:	f1a3 030b 	sub.w	r3, r3, #11
 800036a:	f1b3 0220 	subs.w	r2, r3, #32
 800036e:	da0c      	bge.n	800038a <__adddf3+0x16e>
 8000370:	320c      	adds	r2, #12
 8000372:	dd08      	ble.n	8000386 <__adddf3+0x16a>
 8000374:	f102 0c14 	add.w	ip, r2, #20
 8000378:	f1c2 020c 	rsb	r2, r2, #12
 800037c:	fa01 f00c 	lsl.w	r0, r1, ip
 8000380:	fa21 f102 	lsr.w	r1, r1, r2
 8000384:	e00c      	b.n	80003a0 <__adddf3+0x184>
 8000386:	f102 0214 	add.w	r2, r2, #20
 800038a:	bfd8      	it	le
 800038c:	f1c2 0c20 	rsble	ip, r2, #32
 8000390:	fa01 f102 	lsl.w	r1, r1, r2
 8000394:	fa20 fc0c 	lsr.w	ip, r0, ip
 8000398:	bfdc      	itt	le
 800039a:	ea41 010c 	orrle.w	r1, r1, ip
 800039e:	4090      	lslle	r0, r2
 80003a0:	1ae4      	subs	r4, r4, r3
 80003a2:	bfa2      	ittt	ge
 80003a4:	eb01 5104 	addge.w	r1, r1, r4, lsl #20
 80003a8:	4329      	orrge	r1, r5
 80003aa:	bd30      	popge	{r4, r5, pc}
 80003ac:	ea6f 0404 	mvn.w	r4, r4
 80003b0:	3c1f      	subs	r4, #31
 80003b2:	da1c      	bge.n	80003ee <__adddf3+0x1d2>
 80003b4:	340c      	adds	r4, #12
 80003b6:	dc0e      	bgt.n	80003d6 <__adddf3+0x1ba>
 80003b8:	f104 0414 	add.w	r4, r4, #20
 80003bc:	f1c4 0220 	rsb	r2, r4, #32
 80003c0:	fa20 f004 	lsr.w	r0, r0, r4
 80003c4:	fa01 f302 	lsl.w	r3, r1, r2
 80003c8:	ea40 0003 	orr.w	r0, r0, r3
 80003cc:	fa21 f304 	lsr.w	r3, r1, r4
 80003d0:	ea45 0103 	orr.w	r1, r5, r3
 80003d4:	bd30      	pop	{r4, r5, pc}
 80003d6:	f1c4 040c 	rsb	r4, r4, #12
 80003da:	f1c4 0220 	rsb	r2, r4, #32
 80003de:	fa20 f002 	lsr.w	r0, r0, r2
 80003e2:	fa01 f304 	lsl.w	r3, r1, r4
 80003e6:	ea40 0003 	orr.w	r0, r0, r3
 80003ea:	4629      	mov	r1, r5
 80003ec:	bd30      	pop	{r4, r5, pc}
 80003ee:	fa21 f004 	lsr.w	r0, r1, r4
 80003f2:	4629      	mov	r1, r5
 80003f4:	bd30      	pop	{r4, r5, pc}
 80003f6:	f094 0f00 	teq	r4, #0
 80003fa:	f483 1380 	eor.w	r3, r3, #1048576	; 0x100000
 80003fe:	bf06      	itte	eq
 8000400:	f481 1180 	eoreq.w	r1, r1, #1048576	; 0x100000
 8000404:	3401      	addeq	r4, #1
 8000406:	3d01      	subne	r5, #1
 8000408:	e74e      	b.n	80002a8 <__adddf3+0x8c>
 800040a:	ea7f 5c64 	mvns.w	ip, r4, asr #21
 800040e:	bf18      	it	ne
 8000410:	ea7f 5c65 	mvnsne.w	ip, r5, asr #21
 8000414:	d029      	beq.n	800046a <__adddf3+0x24e>
 8000416:	ea94 0f05 	teq	r4, r5
 800041a:	bf08      	it	eq
 800041c:	ea90 0f02 	teqeq	r0, r2
 8000420:	d005      	beq.n	800042e <__adddf3+0x212>
 8000422:	ea54 0c00 	orrs.w	ip, r4, r0
 8000426:	bf04      	itt	eq
 8000428:	4619      	moveq	r1, r3
 800042a:	4610      	moveq	r0, r2
 800042c:	bd30      	pop	{r4, r5, pc}
 800042e:	ea91 0f03 	teq	r1, r3
 8000432:	bf1e      	ittt	ne
 8000434:	2100      	movne	r1, #0
 8000436:	2000      	movne	r0, #0
 8000438:	bd30      	popne	{r4, r5, pc}
 800043a:	ea5f 5c54 	movs.w	ip, r4, lsr #21
 800043e:	d105      	bne.n	800044c <__adddf3+0x230>
 8000440:	0040      	lsls	r0, r0, #1
 8000442:	4149      	adcs	r1, r1
 8000444:	bf28      	it	cs
 8000446:	f041 4100 	orrcs.w	r1, r1, #2147483648	; 0x80000000
 800044a:	bd30      	pop	{r4, r5, pc}
 800044c:	f514 0480 	adds.w	r4, r4, #4194304	; 0x400000
 8000450:	bf3c      	itt	cc
 8000452:	f501 1180 	addcc.w	r1, r1, #1048576	; 0x100000
 8000456:	bd30      	popcc	{r4, r5, pc}
 8000458:	f001 4500 	and.w	r5, r1, #2147483648	; 0x80000000
 800045c:	f045 41fe 	orr.w	r1, r5, #2130706432	; 0x7f000000
 8000460:	f441 0170 	orr.w	r1, r1, #15728640	; 0xf00000
 8000464:	f04f 0000 	mov.w	r0, #0
 8000468:	bd30      	pop	{r4, r5, pc}
 800046a:	ea7f 5c64 	mvns.w	ip, r4, asr #21
 800046e:	bf1a      	itte	ne
 8000470:	4619      	movne	r1, r3
 8000472:	4610      	movne	r0, r2
 8000474:	ea7f 5c65 	mvnseq.w	ip, r5, asr #21
 8000478:	bf1c      	itt	ne
 800047a:	460b      	movne	r3, r1
 800047c:	4602      	movne	r2, r0
 800047e:	ea50 3401 	orrs.w	r4, r0, r1, lsl #12
 8000482:	bf06      	itte	eq
 8000484:	ea52 3503 	orrseq.w	r5, r2, r3, lsl #12
 8000488:	ea91 0f03 	teqeq	r1, r3
 800048c:	f441 2100 	orrne.w	r1, r1, #524288	; 0x80000
 8000490:	bd30      	pop	{r4, r5, pc}
 8000492:	bf00      	nop

08000494 <__aeabi_ui2d>:
 8000494:	f090 0f00 	teq	r0, #0
 8000498:	bf04      	itt	eq
 800049a:	2100      	moveq	r1, #0
 800049c:	4770      	bxeq	lr
 800049e:	b530      	push	{r4, r5, lr}
 80004a0:	f44f 6480 	mov.w	r4, #1024	; 0x400
 80004a4:	f104 0432 	add.w	r4, r4, #50	; 0x32
 80004a8:	f04f 0500 	mov.w	r5, #0
 80004ac:	f04f 0100 	mov.w	r1, #0
 80004b0:	e750      	b.n	8000354 <__adddf3+0x138>
 80004b2:	bf00      	nop

080004b4 <__aeabi_i2d>:
 80004b4:	f090 0f00 	teq	r0, #0
 80004b8:	bf04      	itt	eq
 80004ba:	2100      	moveq	r1, #0
 80004bc:	4770      	bxeq	lr
 80004be:	b530      	push	{r4, r5, lr}
 80004c0:	f44f 6480 	mov.w	r4, #1024	; 0x400
 80004c4:	f104 0432 	add.w	r4, r4, #50	; 0x32
 80004c8:	f010 4500 	ands.w	r5, r0, #2147483648	; 0x80000000
 80004cc:	bf48      	it	mi
 80004ce:	4240      	negmi	r0, r0
 80004d0:	f04f 0100 	mov.w	r1, #0
 80004d4:	e73e      	b.n	8000354 <__adddf3+0x138>
 80004d6:	bf00      	nop

080004d8 <__aeabi_f2d>:
 80004d8:	0042      	lsls	r2, r0, #1
 80004da:	ea4f 01e2 	mov.w	r1, r2, asr #3
 80004de:	ea4f 0131 	mov.w	r1, r1, rrx
 80004e2:	ea4f 7002 	mov.w	r0, r2, lsl #28
 80004e6:	bf1f      	itttt	ne
 80004e8:	f012 437f 	andsne.w	r3, r2, #4278190080	; 0xff000000
 80004ec:	f093 4f7f 	teqne	r3, #4278190080	; 0xff000000
 80004f0:	f081 5160 	eorne.w	r1, r1, #939524096	; 0x38000000
 80004f4:	4770      	bxne	lr
 80004f6:	f032 427f 	bics.w	r2, r2, #4278190080	; 0xff000000
 80004fa:	bf08      	it	eq
 80004fc:	4770      	bxeq	lr
 80004fe:	f093 4f7f 	teq	r3, #4278190080	; 0xff000000
 8000502:	bf04      	itt	eq
 8000504:	f441 2100 	orreq.w	r1, r1, #524288	; 0x80000
 8000508:	4770      	bxeq	lr
 800050a:	b530      	push	{r4, r5, lr}
 800050c:	f44f 7460 	mov.w	r4, #896	; 0x380
 8000510:	f001 4500 	and.w	r5, r1, #2147483648	; 0x80000000
 8000514:	f021 4100 	bic.w	r1, r1, #2147483648	; 0x80000000
 8000518:	e71c      	b.n	8000354 <__adddf3+0x138>
 800051a:	bf00      	nop

0800051c <__aeabi_ul2d>:
 800051c:	ea50 0201 	orrs.w	r2, r0, r1
 8000520:	bf08      	it	eq
 8000522:	4770      	bxeq	lr
 8000524:	b530      	push	{r4, r5, lr}
 8000526:	f04f 0500 	mov.w	r5, #0
 800052a:	e00a      	b.n	8000542 <__aeabi_l2d+0x16>

0800052c <__aeabi_l2d>:
 800052c:	ea50 0201 	orrs.w	r2, r0, r1
 8000530:	bf08      	it	eq
 8000532:	4770      	bxeq	lr
 8000534:	b530      	push	{r4, r5, lr}
 8000536:	f011 4500 	ands.w	r5, r1, #2147483648	; 0x80000000
 800053a:	d502      	bpl.n	8000542 <__aeabi_l2d+0x16>
 800053c:	4240      	negs	r0, r0
 800053e:	eb61 0141 	sbc.w	r1, r1, r1, lsl #1
 8000542:	f44f 6480 	mov.w	r4, #1024	; 0x400
 8000546:	f104 0432 	add.w	r4, r4, #50	; 0x32
 800054a:	ea5f 5c91 	movs.w	ip, r1, lsr #22
 800054e:	f43f aed8 	beq.w	8000302 <__adddf3+0xe6>
 8000552:	f04f 0203 	mov.w	r2, #3
 8000556:	ea5f 0cdc 	movs.w	ip, ip, lsr #3
 800055a:	bf18      	it	ne
 800055c:	3203      	addne	r2, #3
 800055e:	ea5f 0cdc 	movs.w	ip, ip, lsr #3
 8000562:	bf18      	it	ne
 8000564:	3203      	addne	r2, #3
 8000566:	eb02 02dc 	add.w	r2, r2, ip, lsr #3
 800056a:	f1c2 0320 	rsb	r3, r2, #32
 800056e:	fa00 fc03 	lsl.w	ip, r0, r3
 8000572:	fa20 f002 	lsr.w	r0, r0, r2
 8000576:	fa01 fe03 	lsl.w	lr, r1, r3
 800057a:	ea40 000e 	orr.w	r0, r0, lr
 800057e:	fa21 f102 	lsr.w	r1, r1, r2
 8000582:	4414      	add	r4, r2
 8000584:	e6bd      	b.n	8000302 <__adddf3+0xe6>
 8000586:	bf00      	nop

08000588 <__aeabi_dmul>:
 8000588:	b570      	push	{r4, r5, r6, lr}
 800058a:	f04f 0cff 	mov.w	ip, #255	; 0xff
 800058e:	f44c 6ce0 	orr.w	ip, ip, #1792	; 0x700
 8000592:	ea1c 5411 	ands.w	r4, ip, r1, lsr #20
 8000596:	bf1d      	ittte	ne
 8000598:	ea1c 5513 	andsne.w	r5, ip, r3, lsr #20
 800059c:	ea94 0f0c 	teqne	r4, ip
 80005a0:	ea95 0f0c 	teqne	r5, ip
 80005a4:	f000 f8de 	bleq	8000764 <__aeabi_dmul+0x1dc>
 80005a8:	442c      	add	r4, r5
 80005aa:	ea81 0603 	eor.w	r6, r1, r3
 80005ae:	ea21 514c 	bic.w	r1, r1, ip, lsl #21
 80005b2:	ea23 534c 	bic.w	r3, r3, ip, lsl #21
 80005b6:	ea50 3501 	orrs.w	r5, r0, r1, lsl #12
 80005ba:	bf18      	it	ne
 80005bc:	ea52 3503 	orrsne.w	r5, r2, r3, lsl #12
 80005c0:	f441 1180 	orr.w	r1, r1, #1048576	; 0x100000
 80005c4:	f443 1380 	orr.w	r3, r3, #1048576	; 0x100000
 80005c8:	d038      	beq.n	800063c <__aeabi_dmul+0xb4>
 80005ca:	fba0 ce02 	umull	ip, lr, r0, r2
 80005ce:	f04f 0500 	mov.w	r5, #0
 80005d2:	fbe1 e502 	umlal	lr, r5, r1, r2
 80005d6:	f006 4200 	and.w	r2, r6, #2147483648	; 0x80000000
 80005da:	fbe0 e503 	umlal	lr, r5, r0, r3
 80005de:	f04f 0600 	mov.w	r6, #0
 80005e2:	fbe1 5603 	umlal	r5, r6, r1, r3
 80005e6:	f09c 0f00 	teq	ip, #0
 80005ea:	bf18      	it	ne
 80005ec:	f04e 0e01 	orrne.w	lr, lr, #1
 80005f0:	f1a4 04ff 	sub.w	r4, r4, #255	; 0xff
 80005f4:	f5b6 7f00 	cmp.w	r6, #512	; 0x200
 80005f8:	f564 7440 	sbc.w	r4, r4, #768	; 0x300
 80005fc:	d204      	bcs.n	8000608 <__aeabi_dmul+0x80>
 80005fe:	ea5f 0e4e 	movs.w	lr, lr, lsl #1
 8000602:	416d      	adcs	r5, r5
 8000604:	eb46 0606 	adc.w	r6, r6, r6
 8000608:	ea42 21c6 	orr.w	r1, r2, r6, lsl #11
 800060c:	ea41 5155 	orr.w	r1, r1, r5, lsr #21
 8000610:	ea4f 20c5 	mov.w	r0, r5, lsl #11
 8000614:	ea40 505e 	orr.w	r0, r0, lr, lsr #21
 8000618:	ea4f 2ece 	mov.w	lr, lr, lsl #11
 800061c:	f1b4 0cfd 	subs.w	ip, r4, #253	; 0xfd
 8000620:	bf88      	it	hi
 8000622:	f5bc 6fe0 	cmphi.w	ip, #1792	; 0x700
 8000626:	d81e      	bhi.n	8000666 <__aeabi_dmul+0xde>
 8000628:	f1be 4f00 	cmp.w	lr, #2147483648	; 0x80000000
 800062c:	bf08      	it	eq
 800062e:	ea5f 0e50 	movseq.w	lr, r0, lsr #1
 8000632:	f150 0000 	adcs.w	r0, r0, #0
 8000636:	eb41 5104 	adc.w	r1, r1, r4, lsl #20
 800063a:	bd70      	pop	{r4, r5, r6, pc}
 800063c:	f006 4600 	and.w	r6, r6, #2147483648	; 0x80000000
 8000640:	ea46 0101 	orr.w	r1, r6, r1
 8000644:	ea40 0002 	orr.w	r0, r0, r2
 8000648:	ea81 0103 	eor.w	r1, r1, r3
 800064c:	ebb4 045c 	subs.w	r4, r4, ip, lsr #1
 8000650:	bfc2      	ittt	gt
 8000652:	ebd4 050c 	rsbsgt	r5, r4, ip
 8000656:	ea41 5104 	orrgt.w	r1, r1, r4, lsl #20
 800065a:	bd70      	popgt	{r4, r5, r6, pc}
 800065c:	f441 1180 	orr.w	r1, r1, #1048576	; 0x100000
 8000660:	f04f 0e00 	mov.w	lr, #0
 8000664:	3c01      	subs	r4, #1
 8000666:	f300 80ab 	bgt.w	80007c0 <__aeabi_dmul+0x238>
 800066a:	f114 0f36 	cmn.w	r4, #54	; 0x36
 800066e:	bfde      	ittt	le
 8000670:	2000      	movle	r0, #0
 8000672:	f001 4100 	andle.w	r1, r1, #2147483648	; 0x80000000
 8000676:	bd70      	pople	{r4, r5, r6, pc}
 8000678:	f1c4 0400 	rsb	r4, r4, #0
 800067c:	3c20      	subs	r4, #32
 800067e:	da35      	bge.n	80006ec <__aeabi_dmul+0x164>
 8000680:	340c      	adds	r4, #12
 8000682:	dc1b      	bgt.n	80006bc <__aeabi_dmul+0x134>
 8000684:	f104 0414 	add.w	r4, r4, #20
 8000688:	f1c4 0520 	rsb	r5, r4, #32
 800068c:	fa00 f305 	lsl.w	r3, r0, r5
 8000690:	fa20 f004 	lsr.w	r0, r0, r4
 8000694:	fa01 f205 	lsl.w	r2, r1, r5
 8000698:	ea40 0002 	orr.w	r0, r0, r2
 800069c:	f001 4200 	and.w	r2, r1, #2147483648	; 0x80000000
 80006a0:	f021 4100 	bic.w	r1, r1, #2147483648	; 0x80000000
 80006a4:	eb10 70d3 	adds.w	r0, r0, r3, lsr #31
 80006a8:	fa21 f604 	lsr.w	r6, r1, r4
 80006ac:	eb42 0106 	adc.w	r1, r2, r6
 80006b0:	ea5e 0e43 	orrs.w	lr, lr, r3, lsl #1
 80006b4:	bf08      	it	eq
 80006b6:	ea20 70d3 	biceq.w	r0, r0, r3, lsr #31
 80006ba:	bd70      	pop	{r4, r5, r6, pc}
 80006bc:	f1c4 040c 	rsb	r4, r4, #12
 80006c0:	f1c4 0520 	rsb	r5, r4, #32
 80006c4:	fa00 f304 	lsl.w	r3, r0, r4
 80006c8:	fa20 f005 	lsr.w	r0, r0, r5
 80006cc:	fa01 f204 	lsl.w	r2, r1, r4
 80006d0:	ea40 0002 	orr.w	r0, r0, r2
 80006d4:	f001 4100 	and.w	r1, r1, #2147483648	; 0x80000000
 80006d8:	eb10 70d3 	adds.w	r0, r0, r3, lsr #31
 80006dc:	f141 0100 	adc.w	r1, r1, #0
 80006e0:	ea5e 0e43 	orrs.w	lr, lr, r3, lsl #1
 80006e4:	bf08      	it	eq
 80006e6:	ea20 70d3 	biceq.w	r0, r0, r3, lsr #31
 80006ea:	bd70      	pop	{r4, r5, r6, pc}
 80006ec:	f1c4 0520 	rsb	r5, r4, #32
 80006f0:	fa00 f205 	lsl.w	r2, r0, r5
 80006f4:	ea4e 0e02 	orr.w	lr, lr, r2
 80006f8:	fa20 f304 	lsr.w	r3, r0, r4
 80006fc:	fa01 f205 	lsl.w	r2, r1, r5
 8000700:	ea43 0302 	orr.w	r3, r3, r2
 8000704:	fa21 f004 	lsr.w	r0, r1, r4
 8000708:	f001 4100 	and.w	r1, r1, #2147483648	; 0x80000000
 800070c:	fa21 f204 	lsr.w	r2, r1, r4
 8000710:	ea20 0002 	bic.w	r0, r0, r2
 8000714:	eb00 70d3 	add.w	r0, r0, r3, lsr #31
 8000718:	ea5e 0e43 	orrs.w	lr, lr, r3, lsl #1
 800071c:	bf08      	it	eq
 800071e:	ea20 70d3 	biceq.w	r0, r0, r3, lsr #31
 8000722:	bd70      	pop	{r4, r5, r6, pc}
 8000724:	f094 0f00 	teq	r4, #0
 8000728:	d10f      	bne.n	800074a <__aeabi_dmul+0x1c2>
 800072a:	f001 4600 	and.w	r6, r1, #2147483648	; 0x80000000
 800072e:	0040      	lsls	r0, r0, #1
 8000730:	eb41 0101 	adc.w	r1, r1, r1
 8000734:	f411 1f80 	tst.w	r1, #1048576	; 0x100000
 8000738:	bf08      	it	eq
 800073a:	3c01      	subeq	r4, #1
 800073c:	d0f7      	beq.n	800072e <__aeabi_dmul+0x1a6>
 800073e:	ea41 0106 	orr.w	r1, r1, r6
 8000742:	f095 0f00 	teq	r5, #0
 8000746:	bf18      	it	ne
 8000748:	4770      	bxne	lr
 800074a:	f003 4600 	and.w	r6, r3, #2147483648	; 0x80000000
 800074e:	0052      	lsls	r2, r2, #1
 8000750:	eb43 0303 	adc.w	r3, r3, r3
 8000754:	f413 1f80 	tst.w	r3, #1048576	; 0x100000
 8000758:	bf08      	it	eq
 800075a:	3d01      	subeq	r5, #1
 800075c:	d0f7      	beq.n	800074e <__aeabi_dmul+0x1c6>
 800075e:	ea43 0306 	orr.w	r3, r3, r6
 8000762:	4770      	bx	lr
 8000764:	ea94 0f0c 	teq	r4, ip
 8000768:	ea0c 5513 	and.w	r5, ip, r3, lsr #20
 800076c:	bf18      	it	ne
 800076e:	ea95 0f0c 	teqne	r5, ip
 8000772:	d00c      	beq.n	800078e <__aeabi_dmul+0x206>
 8000774:	ea50 0641 	orrs.w	r6, r0, r1, lsl #1
 8000778:	bf18      	it	ne
 800077a:	ea52 0643 	orrsne.w	r6, r2, r3, lsl #1
 800077e:	d1d1      	bne.n	8000724 <__aeabi_dmul+0x19c>
 8000780:	ea81 0103 	eor.w	r1, r1, r3
 8000784:	f001 4100 	and.w	r1, r1, #2147483648	; 0x80000000
 8000788:	f04f 0000 	mov.w	r0, #0
 800078c:	bd70      	pop	{r4, r5, r6, pc}
 800078e:	ea50 0641 	orrs.w	r6, r0, r1, lsl #1
 8000792:	bf06      	itte	eq
 8000794:	4610      	moveq	r0, r2
 8000796:	4619      	moveq	r1, r3
 8000798:	ea52 0643 	orrsne.w	r6, r2, r3, lsl #1
 800079c:	d019      	beq.n	80007d2 <__aeabi_dmul+0x24a>
 800079e:	ea94 0f0c 	teq	r4, ip
 80007a2:	d102      	bne.n	80007aa <__aeabi_dmul+0x222>
 80007a4:	ea50 3601 	orrs.w	r6, r0, r1, lsl #12
 80007a8:	d113      	bne.n	80007d2 <__aeabi_dmul+0x24a>
 80007aa:	ea95 0f0c 	teq	r5, ip
 80007ae:	d105      	bne.n	80007bc <__aeabi_dmul+0x234>
 80007b0:	ea52 3603 	orrs.w	r6, r2, r3, lsl #12
 80007b4:	bf1c      	itt	ne
 80007b6:	4610      	movne	r0, r2
 80007b8:	4619      	movne	r1, r3
 80007ba:	d10a      	bne.n	80007d2 <__aeabi_dmul+0x24a>
 80007bc:	ea81 0103 	eor.w	r1, r1, r3
 80007c0:	f001 4100 	and.w	r1, r1, #2147483648	; 0x80000000
 80007c4:	f041 41fe 	orr.w	r1, r1, #2130706432	; 0x7f000000
 80007c8:	f441 0170 	orr.w	r1, r1, #15728640	; 0xf00000
 80007cc:	f04f 0000 	mov.w	r0, #0
 80007d0:	bd70      	pop	{r4, r5, r6, pc}
 80007d2:	f041 41fe 	orr.w	r1, r1, #2130706432	; 0x7f000000
 80007d6:	f441 0178 	orr.w	r1, r1, #16252928	; 0xf80000
 80007da:	bd70      	pop	{r4, r5, r6, pc}

080007dc <__aeabi_ddiv>:
 80007dc:	b570      	push	{r4, r5, r6, lr}
 80007de:	f04f 0cff 	mov.w	ip, #255	; 0xff
 80007e2:	f44c 6ce0 	orr.w	ip, ip, #1792	; 0x700
 80007e6:	ea1c 5411 	ands.w	r4, ip, r1, lsr #20
 80007ea:	bf1d      	ittte	ne
 80007ec:	ea1c 5513 	andsne.w	r5, ip, r3, lsr #20
 80007f0:	ea94 0f0c 	teqne	r4, ip
 80007f4:	ea95 0f0c 	teqne	r5, ip
 80007f8:	f000 f8a7 	bleq	800094a <__aeabi_ddiv+0x16e>
 80007fc:	eba4 0405 	sub.w	r4, r4, r5
 8000800:	ea81 0e03 	eor.w	lr, r1, r3
 8000804:	ea52 3503 	orrs.w	r5, r2, r3, lsl #12
 8000808:	ea4f 3101 	mov.w	r1, r1, lsl #12
 800080c:	f000 8088 	beq.w	8000920 <__aeabi_ddiv+0x144>
 8000810:	ea4f 3303 	mov.w	r3, r3, lsl #12
 8000814:	f04f 5580 	mov.w	r5, #268435456	; 0x10000000
 8000818:	ea45 1313 	orr.w	r3, r5, r3, lsr #4
 800081c:	ea43 6312 	orr.w	r3, r3, r2, lsr #24
 8000820:	ea4f 2202 	mov.w	r2, r2, lsl #8
 8000824:	ea45 1511 	orr.w	r5, r5, r1, lsr #4
 8000828:	ea45 6510 	orr.w	r5, r5, r0, lsr #24
 800082c:	ea4f 2600 	mov.w	r6, r0, lsl #8
 8000830:	f00e 4100 	and.w	r1, lr, #2147483648	; 0x80000000
 8000834:	429d      	cmp	r5, r3
 8000836:	bf08      	it	eq
 8000838:	4296      	cmpeq	r6, r2
 800083a:	f144 04fd 	adc.w	r4, r4, #253	; 0xfd
 800083e:	f504 7440 	add.w	r4, r4, #768	; 0x300
 8000842:	d202      	bcs.n	800084a <__aeabi_ddiv+0x6e>
 8000844:	085b      	lsrs	r3, r3, #1
 8000846:	ea4f 0232 	mov.w	r2, r2, rrx
 800084a:	1ab6      	subs	r6, r6, r2
 800084c:	eb65 0503 	sbc.w	r5, r5, r3
 8000850:	085b      	lsrs	r3, r3, #1
 8000852:	ea4f 0232 	mov.w	r2, r2, rrx
 8000856:	f44f 1080 	mov.w	r0, #1048576	; 0x100000
 800085a:	f44f 2c00 	mov.w	ip, #524288	; 0x80000
 800085e:	ebb6 0e02 	subs.w	lr, r6, r2
 8000862:	eb75 0e03 	sbcs.w	lr, r5, r3
 8000866:	bf22      	ittt	cs
 8000868:	1ab6      	subcs	r6, r6, r2
 800086a:	4675      	movcs	r5, lr
 800086c:	ea40 000c 	orrcs.w	r0, r0, ip
 8000870:	085b      	lsrs	r3, r3, #1
 8000872:	ea4f 0232 	mov.w	r2, r2, rrx
 8000876:	ebb6 0e02 	subs.w	lr, r6, r2
 800087a:	eb75 0e03 	sbcs.w	lr, r5, r3
 800087e:	bf22      	ittt	cs
 8000880:	1ab6      	subcs	r6, r6, r2
 8000882:	4675      	movcs	r5, lr
 8000884:	ea40 005c 	orrcs.w	r0, r0, ip, lsr #1
 8000888:	085b      	lsrs	r3, r3, #1
 800088a:	ea4f 0232 	mov.w	r2, r2, rrx
 800088e:	ebb6 0e02 	subs.w	lr, r6, r2
 8000892:	eb75 0e03 	sbcs.w	lr, r5, r3
 8000896:	bf22      	ittt	cs
 8000898:	1ab6      	subcs	r6, r6, r2
 800089a:	4675      	movcs	r5, lr
 800089c:	ea40 009c 	orrcs.w	r0, r0, ip, lsr #2
 80008a0:	085b      	lsrs	r3, r3, #1
 80008a2:	ea4f 0232 	mov.w	r2, r2, rrx
 80008a6:	ebb6 0e02 	subs.w	lr, r6, r2
 80008aa:	eb75 0e03 	sbcs.w	lr, r5, r3
 80008ae:	bf22      	ittt	cs
 80008b0:	1ab6      	subcs	r6, r6, r2
 80008b2:	4675      	movcs	r5, lr
 80008b4:	ea40 00dc 	orrcs.w	r0, r0, ip, lsr #3
 80008b8:	ea55 0e06 	orrs.w	lr, r5, r6
 80008bc:	d018      	beq.n	80008f0 <__aeabi_ddiv+0x114>
 80008be:	ea4f 1505 	mov.w	r5, r5, lsl #4
 80008c2:	ea45 7516 	orr.w	r5, r5, r6, lsr #28
 80008c6:	ea4f 1606 	mov.w	r6, r6, lsl #4
 80008ca:	ea4f 03c3 	mov.w	r3, r3, lsl #3
 80008ce:	ea43 7352 	orr.w	r3, r3, r2, lsr #29
 80008d2:	ea4f 02c2 	mov.w	r2, r2, lsl #3
 80008d6:	ea5f 1c1c 	movs.w	ip, ip, lsr #4
 80008da:	d1c0      	bne.n	800085e <__aeabi_ddiv+0x82>
 80008dc:	f411 1f80 	tst.w	r1, #1048576	; 0x100000
 80008e0:	d10b      	bne.n	80008fa <__aeabi_ddiv+0x11e>
 80008e2:	ea41 0100 	orr.w	r1, r1, r0
 80008e6:	f04f 0000 	mov.w	r0, #0
 80008ea:	f04f 4c00 	mov.w	ip, #2147483648	; 0x80000000
 80008ee:	e7b6      	b.n	800085e <__aeabi_ddiv+0x82>
 80008f0:	f411 1f80 	tst.w	r1, #1048576	; 0x100000
 80008f4:	bf04      	itt	eq
 80008f6:	4301      	orreq	r1, r0
 80008f8:	2000      	moveq	r0, #0
 80008fa:	f1b4 0cfd 	subs.w	ip, r4, #253	; 0xfd
 80008fe:	bf88      	it	hi
 8000900:	f5bc 6fe0 	cmphi.w	ip, #1792	; 0x700
 8000904:	f63f aeaf 	bhi.w	8000666 <__aeabi_dmul+0xde>
 8000908:	ebb5 0c03 	subs.w	ip, r5, r3
 800090c:	bf04      	itt	eq
 800090e:	ebb6 0c02 	subseq.w	ip, r6, r2
 8000912:	ea5f 0c50 	movseq.w	ip, r0, lsr #1
 8000916:	f150 0000 	adcs.w	r0, r0, #0
 800091a:	eb41 5104 	adc.w	r1, r1, r4, lsl #20
 800091e:	bd70      	pop	{r4, r5, r6, pc}
 8000920:	f00e 4e00 	and.w	lr, lr, #2147483648	; 0x80000000
 8000924:	ea4e 3111 	orr.w	r1, lr, r1, lsr #12
 8000928:	eb14 045c 	adds.w	r4, r4, ip, lsr #1
 800092c:	bfc2      	ittt	gt
 800092e:	ebd4 050c 	rsbsgt	r5, r4, ip
 8000932:	ea41 5104 	orrgt.w	r1, r1, r4, lsl #20
 8000936:	bd70      	popgt	{r4, r5, r6, pc}
 8000938:	f441 1180 	orr.w	r1, r1, #1048576	; 0x100000
 800093c:	f04f 0e00 	mov.w	lr, #0
 8000940:	3c01      	subs	r4, #1
 8000942:	e690      	b.n	8000666 <__aeabi_dmul+0xde>
 8000944:	ea45 0e06 	orr.w	lr, r5, r6
 8000948:	e68d      	b.n	8000666 <__aeabi_dmul+0xde>
 800094a:	ea0c 5513 	and.w	r5, ip, r3, lsr #20
 800094e:	ea94 0f0c 	teq	r4, ip
 8000952:	bf08      	it	eq
 8000954:	ea95 0f0c 	teqeq	r5, ip
 8000958:	f43f af3b 	beq.w	80007d2 <__aeabi_dmul+0x24a>
 800095c:	ea94 0f0c 	teq	r4, ip
 8000960:	d10a      	bne.n	8000978 <__aeabi_ddiv+0x19c>
 8000962:	ea50 3401 	orrs.w	r4, r0, r1, lsl #12
 8000966:	f47f af34 	bne.w	80007d2 <__aeabi_dmul+0x24a>
 800096a:	ea95 0f0c 	teq	r5, ip
 800096e:	f47f af25 	bne.w	80007bc <__aeabi_dmul+0x234>
 8000972:	4610      	mov	r0, r2
 8000974:	4619      	mov	r1, r3
 8000976:	e72c      	b.n	80007d2 <__aeabi_dmul+0x24a>
 8000978:	ea95 0f0c 	teq	r5, ip
 800097c:	d106      	bne.n	800098c <__aeabi_ddiv+0x1b0>
 800097e:	ea52 3503 	orrs.w	r5, r2, r3, lsl #12
 8000982:	f43f aefd 	beq.w	8000780 <__aeabi_dmul+0x1f8>
 8000986:	4610      	mov	r0, r2
 8000988:	4619      	mov	r1, r3
 800098a:	e722      	b.n	80007d2 <__aeabi_dmul+0x24a>
 800098c:	ea50 0641 	orrs.w	r6, r0, r1, lsl #1
 8000990:	bf18      	it	ne
 8000992:	ea52 0643 	orrsne.w	r6, r2, r3, lsl #1
 8000996:	f47f aec5 	bne.w	8000724 <__aeabi_dmul+0x19c>
 800099a:	ea50 0441 	orrs.w	r4, r0, r1, lsl #1
 800099e:	f47f af0d 	bne.w	80007bc <__aeabi_dmul+0x234>
 80009a2:	ea52 0543 	orrs.w	r5, r2, r3, lsl #1
 80009a6:	f47f aeeb 	bne.w	8000780 <__aeabi_dmul+0x1f8>
 80009aa:	e712      	b.n	80007d2 <__aeabi_dmul+0x24a>

080009ac <__gedf2>:
 80009ac:	f04f 3cff 	mov.w	ip, #4294967295	; 0xffffffff
 80009b0:	e006      	b.n	80009c0 <__cmpdf2+0x4>
 80009b2:	bf00      	nop

080009b4 <__ledf2>:
 80009b4:	f04f 0c01 	mov.w	ip, #1
 80009b8:	e002      	b.n	80009c0 <__cmpdf2+0x4>
 80009ba:	bf00      	nop

080009bc <__cmpdf2>:
 80009bc:	f04f 0c01 	mov.w	ip, #1
 80009c0:	f84d cd04 	str.w	ip, [sp, #-4]!
 80009c4:	ea4f 0c41 	mov.w	ip, r1, lsl #1
 80009c8:	ea7f 5c6c 	mvns.w	ip, ip, asr #21
 80009cc:	ea4f 0c43 	mov.w	ip, r3, lsl #1
 80009d0:	bf18      	it	ne
 80009d2:	ea7f 5c6c 	mvnsne.w	ip, ip, asr #21
 80009d6:	d01b      	beq.n	8000a10 <__cmpdf2+0x54>
 80009d8:	b001      	add	sp, #4
 80009da:	ea50 0c41 	orrs.w	ip, r0, r1, lsl #1
 80009de:	bf0c      	ite	eq
 80009e0:	ea52 0c43 	orrseq.w	ip, r2, r3, lsl #1
 80009e4:	ea91 0f03 	teqne	r1, r3
 80009e8:	bf02      	ittt	eq
 80009ea:	ea90 0f02 	teqeq	r0, r2
 80009ee:	2000      	moveq	r0, #0
 80009f0:	4770      	bxeq	lr
 80009f2:	f110 0f00 	cmn.w	r0, #0
 80009f6:	ea91 0f03 	teq	r1, r3
 80009fa:	bf58      	it	pl
 80009fc:	4299      	cmppl	r1, r3
 80009fe:	bf08      	it	eq
 8000a00:	4290      	cmpeq	r0, r2
 8000a02:	bf2c      	ite	cs
 8000a04:	17d8      	asrcs	r0, r3, #31
 8000a06:	ea6f 70e3 	mvncc.w	r0, r3, asr #31
 8000a0a:	f040 0001 	orr.w	r0, r0, #1
 8000a0e:	4770      	bx	lr
 8000a10:	ea4f 0c41 	mov.w	ip, r1, lsl #1
 8000a14:	ea7f 5c6c 	mvns.w	ip, ip, asr #21
 8000a18:	d102      	bne.n	8000a20 <__cmpdf2+0x64>
 8000a1a:	ea50 3c01 	orrs.w	ip, r0, r1, lsl #12
 8000a1e:	d107      	bne.n	8000a30 <__cmpdf2+0x74>
 8000a20:	ea4f 0c43 	mov.w	ip, r3, lsl #1
 8000a24:	ea7f 5c6c 	mvns.w	ip, ip, asr #21
 8000a28:	d1d6      	bne.n	80009d8 <__cmpdf2+0x1c>
 8000a2a:	ea52 3c03 	orrs.w	ip, r2, r3, lsl #12
 8000a2e:	d0d3      	beq.n	80009d8 <__cmpdf2+0x1c>
 8000a30:	f85d 0b04 	ldr.w	r0, [sp], #4
 8000a34:	4770      	bx	lr
 8000a36:	bf00      	nop

08000a38 <__aeabi_cdrcmple>:
 8000a38:	4684      	mov	ip, r0
 8000a3a:	4610      	mov	r0, r2
 8000a3c:	4662      	mov	r2, ip
 8000a3e:	468c      	mov	ip, r1
 8000a40:	4619      	mov	r1, r3
 8000a42:	4663      	mov	r3, ip
 8000a44:	e000      	b.n	8000a48 <__aeabi_cdcmpeq>
 8000a46:	bf00      	nop

08000a48 <__aeabi_cdcmpeq>:
 8000a48:	b501      	push	{r0, lr}
 8000a4a:	f7ff ffb7 	bl	80009bc <__cmpdf2>
 8000a4e:	2800      	cmp	r0, #0
 8000a50:	bf48      	it	mi
 8000a52:	f110 0f00 	cmnmi.w	r0, #0
 8000a56:	bd01      	pop	{r0, pc}

08000a58 <__aeabi_dcmpeq>:
 8000a58:	f84d ed08 	str.w	lr, [sp, #-8]!
 8000a5c:	f7ff fff4 	bl	8000a48 <__aeabi_cdcmpeq>
 8000a60:	bf0c      	ite	eq
 8000a62:	2001      	moveq	r0, #1
 8000a64:	2000      	movne	r0, #0
 8000a66:	f85d fb08 	ldr.w	pc, [sp], #8
 8000a6a:	bf00      	nop

08000a6c <__aeabi_dcmplt>:
 8000a6c:	f84d ed08 	str.w	lr, [sp, #-8]!
 8000a70:	f7ff ffea 	bl	8000a48 <__aeabi_cdcmpeq>
 8000a74:	bf34      	ite	cc
 8000a76:	2001      	movcc	r0, #1
 8000a78:	2000      	movcs	r0, #0
 8000a7a:	f85d fb08 	ldr.w	pc, [sp], #8
 8000a7e:	bf00      	nop

08000a80 <__aeabi_dcmple>:
 8000a80:	f84d ed08 	str.w	lr, [sp, #-8]!
 8000a84:	f7ff ffe0 	bl	8000a48 <__aeabi_cdcmpeq>
 8000a88:	bf94      	ite	ls
 8000a8a:	2001      	movls	r0, #1
 8000a8c:	2000      	movhi	r0, #0
 8000a8e:	f85d fb08 	ldr.w	pc, [sp], #8
 8000a92:	bf00      	nop

08000a94 <__aeabi_dcmpge>:
 8000a94:	f84d ed08 	str.w	lr, [sp, #-8]!
 8000a98:	f7ff ffce 	bl	8000a38 <__aeabi_cdrcmple>
 8000a9c:	bf94      	ite	ls
 8000a9e:	2001      	movls	r0, #1
 8000aa0:	2000      	movhi	r0, #0
 8000aa2:	f85d fb08 	ldr.w	pc, [sp], #8
 8000aa6:	bf00      	nop

08000aa8 <__aeabi_dcmpgt>:
 8000aa8:	f84d ed08 	str.w	lr, [sp, #-8]!
 8000aac:	f7ff ffc4 	bl	8000a38 <__aeabi_cdrcmple>
 8000ab0:	bf34      	ite	cc
 8000ab2:	2001      	movcc	r0, #1
 8000ab4:	2000      	movcs	r0, #0
 8000ab6:	f85d fb08 	ldr.w	pc, [sp], #8
 8000aba:	bf00      	nop

08000abc <__aeabi_d2iz>:
 8000abc:	ea4f 0241 	mov.w	r2, r1, lsl #1
 8000ac0:	f512 1200 	adds.w	r2, r2, #2097152	; 0x200000
 8000ac4:	d215      	bcs.n	8000af2 <__aeabi_d2iz+0x36>
 8000ac6:	d511      	bpl.n	8000aec <__aeabi_d2iz+0x30>
 8000ac8:	f46f 7378 	mvn.w	r3, #992	; 0x3e0
 8000acc:	ebb3 5262 	subs.w	r2, r3, r2, asr #21
 8000ad0:	d912      	bls.n	8000af8 <__aeabi_d2iz+0x3c>
 8000ad2:	ea4f 23c1 	mov.w	r3, r1, lsl #11
 8000ad6:	f043 4300 	orr.w	r3, r3, #2147483648	; 0x80000000
 8000ada:	ea43 5350 	orr.w	r3, r3, r0, lsr #21
 8000ade:	f011 4f00 	tst.w	r1, #2147483648	; 0x80000000
 8000ae2:	fa23 f002 	lsr.w	r0, r3, r2
 8000ae6:	bf18      	it	ne
 8000ae8:	4240      	negne	r0, r0
 8000aea:	4770      	bx	lr
 8000aec:	f04f 0000 	mov.w	r0, #0
 8000af0:	4770      	bx	lr
 8000af2:	ea50 3001 	orrs.w	r0, r0, r1, lsl #12
 8000af6:	d105      	bne.n	8000b04 <__aeabi_d2iz+0x48>
 8000af8:	f011 4000 	ands.w	r0, r1, #2147483648	; 0x80000000
 8000afc:	bf08      	it	eq
 8000afe:	f06f 4000 	mvneq.w	r0, #2147483648	; 0x80000000
 8000b02:	4770      	bx	lr
 8000b04:	f04f 0000 	mov.w	r0, #0
 8000b08:	4770      	bx	lr
 8000b0a:	bf00      	nop

08000b0c <__aeabi_d2uiz>:
 8000b0c:	004a      	lsls	r2, r1, #1
 8000b0e:	d211      	bcs.n	8000b34 <__aeabi_d2uiz+0x28>
 8000b10:	f512 1200 	adds.w	r2, r2, #2097152	; 0x200000
 8000b14:	d211      	bcs.n	8000b3a <__aeabi_d2uiz+0x2e>
 8000b16:	d50d      	bpl.n	8000b34 <__aeabi_d2uiz+0x28>
 8000b18:	f46f 7378 	mvn.w	r3, #992	; 0x3e0
 8000b1c:	ebb3 5262 	subs.w	r2, r3, r2, asr #21
 8000b20:	d40e      	bmi.n	8000b40 <__aeabi_d2uiz+0x34>
 8000b22:	ea4f 23c1 	mov.w	r3, r1, lsl #11
 8000b26:	f043 4300 	orr.w	r3, r3, #2147483648	; 0x80000000
 8000b2a:	ea43 5350 	orr.w	r3, r3, r0, lsr #21
 8000b2e:	fa23 f002 	lsr.w	r0, r3, r2
 8000b32:	4770      	bx	lr
 8000b34:	f04f 0000 	mov.w	r0, #0
 8000b38:	4770      	bx	lr
 8000b3a:	ea50 3001 	orrs.w	r0, r0, r1, lsl #12
 8000b3e:	d102      	bne.n	8000b46 <__aeabi_d2uiz+0x3a>
 8000b40:	f04f 30ff 	mov.w	r0, #4294967295	; 0xffffffff
 8000b44:	4770      	bx	lr
 8000b46:	f04f 0000 	mov.w	r0, #0
 8000b4a:	4770      	bx	lr

08000b4c <__aeabi_uldivmod>:
 8000b4c:	b953      	cbnz	r3, 8000b64 <__aeabi_uldivmod+0x18>
 8000b4e:	b94a      	cbnz	r2, 8000b64 <__aeabi_uldivmod+0x18>
 8000b50:	2900      	cmp	r1, #0
 8000b52:	bf08      	it	eq
 8000b54:	2800      	cmpeq	r0, #0
 8000b56:	bf1c      	itt	ne
 8000b58:	f04f 31ff 	movne.w	r1, #4294967295	; 0xffffffff
 8000b5c:	f04f 30ff 	movne.w	r0, #4294967295	; 0xffffffff
 8000b60:	f000 b974 	b.w	8000e4c <__aeabi_idiv0>
 8000b64:	f1ad 0c08 	sub.w	ip, sp, #8
 8000b68:	e96d ce04 	strd	ip, lr, [sp, #-16]!
 8000b6c:	f000 f806 	bl	8000b7c <__udivmoddi4>
 8000b70:	f8dd e004 	ldr.w	lr, [sp, #4]
 8000b74:	e9dd 2302 	ldrd	r2, r3, [sp, #8]
 8000b78:	b004      	add	sp, #16
 8000b7a:	4770      	bx	lr

08000b7c <__udivmoddi4>:
 8000b7c:	e92d 47f0 	stmdb	sp!, {r4, r5, r6, r7, r8, r9, sl, lr}
 8000b80:	9e08      	ldr	r6, [sp, #32]
 8000b82:	4604      	mov	r4, r0
 8000b84:	4688      	mov	r8, r1
 8000b86:	2b00      	cmp	r3, #0
 8000b88:	f040 8085 	bne.w	8000c96 <__udivmoddi4+0x11a>
 8000b8c:	428a      	cmp	r2, r1
 8000b8e:	4615      	mov	r5, r2
 8000b90:	d948      	bls.n	8000c24 <__udivmoddi4+0xa8>
 8000b92:	fab2 f282 	clz	r2, r2
 8000b96:	b14a      	cbz	r2, 8000bac <__udivmoddi4+0x30>
 8000b98:	f1c2 0720 	rsb	r7, r2, #32
 8000b9c:	fa01 f302 	lsl.w	r3, r1, r2
 8000ba0:	fa20 f707 	lsr.w	r7, r0, r7
 8000ba4:	4095      	lsls	r5, r2
 8000ba6:	ea47 0803 	orr.w	r8, r7, r3
 8000baa:	4094      	lsls	r4, r2
 8000bac:	ea4f 4e15 	mov.w	lr, r5, lsr #16
 8000bb0:	0c23      	lsrs	r3, r4, #16
 8000bb2:	fbb8 f7fe 	udiv	r7, r8, lr
 8000bb6:	fa1f fc85 	uxth.w	ip, r5
 8000bba:	fb0e 8817 	mls	r8, lr, r7, r8
 8000bbe:	ea43 4308 	orr.w	r3, r3, r8, lsl #16
 8000bc2:	fb07 f10c 	mul.w	r1, r7, ip
 8000bc6:	4299      	cmp	r1, r3
 8000bc8:	d909      	bls.n	8000bde <__udivmoddi4+0x62>
 8000bca:	18eb      	adds	r3, r5, r3
 8000bcc:	f107 30ff 	add.w	r0, r7, #4294967295	; 0xffffffff
 8000bd0:	f080 80e3 	bcs.w	8000d9a <__udivmoddi4+0x21e>
 8000bd4:	4299      	cmp	r1, r3
 8000bd6:	f240 80e0 	bls.w	8000d9a <__udivmoddi4+0x21e>
 8000bda:	3f02      	subs	r7, #2
 8000bdc:	442b      	add	r3, r5
 8000bde:	1a5b      	subs	r3, r3, r1
 8000be0:	b2a4      	uxth	r4, r4
 8000be2:	fbb3 f0fe 	udiv	r0, r3, lr
 8000be6:	fb0e 3310 	mls	r3, lr, r0, r3
 8000bea:	ea44 4403 	orr.w	r4, r4, r3, lsl #16
 8000bee:	fb00 fc0c 	mul.w	ip, r0, ip
 8000bf2:	45a4      	cmp	ip, r4
 8000bf4:	d909      	bls.n	8000c0a <__udivmoddi4+0x8e>
 8000bf6:	192c      	adds	r4, r5, r4
 8000bf8:	f100 33ff 	add.w	r3, r0, #4294967295	; 0xffffffff
 8000bfc:	f080 80cb 	bcs.w	8000d96 <__udivmoddi4+0x21a>
 8000c00:	45a4      	cmp	ip, r4
 8000c02:	f240 80c8 	bls.w	8000d96 <__udivmoddi4+0x21a>
 8000c06:	3802      	subs	r0, #2
 8000c08:	442c      	add	r4, r5
 8000c0a:	ea40 4007 	orr.w	r0, r0, r7, lsl #16
 8000c0e:	eba4 040c 	sub.w	r4, r4, ip
 8000c12:	2700      	movs	r7, #0
 8000c14:	b11e      	cbz	r6, 8000c1e <__udivmoddi4+0xa2>
 8000c16:	40d4      	lsrs	r4, r2
 8000c18:	2300      	movs	r3, #0
 8000c1a:	e9c6 4300 	strd	r4, r3, [r6]
 8000c1e:	4639      	mov	r1, r7
 8000c20:	e8bd 87f0 	ldmia.w	sp!, {r4, r5, r6, r7, r8, r9, sl, pc}
 8000c24:	2a00      	cmp	r2, #0
 8000c26:	d053      	beq.n	8000cd0 <__udivmoddi4+0x154>
 8000c28:	fab2 f282 	clz	r2, r2
 8000c2c:	2a00      	cmp	r2, #0
 8000c2e:	f040 80b6 	bne.w	8000d9e <__udivmoddi4+0x222>
 8000c32:	1b49      	subs	r1, r1, r5
 8000c34:	ea4f 4e15 	mov.w	lr, r5, lsr #16
 8000c38:	fa1f f885 	uxth.w	r8, r5
 8000c3c:	2701      	movs	r7, #1
 8000c3e:	fbb1 fcfe 	udiv	ip, r1, lr
 8000c42:	0c23      	lsrs	r3, r4, #16
 8000c44:	fb0e 111c 	mls	r1, lr, ip, r1
 8000c48:	ea43 4301 	orr.w	r3, r3, r1, lsl #16
 8000c4c:	fb08 f10c 	mul.w	r1, r8, ip
 8000c50:	4299      	cmp	r1, r3
 8000c52:	d907      	bls.n	8000c64 <__udivmoddi4+0xe8>
 8000c54:	18eb      	adds	r3, r5, r3
 8000c56:	f10c 30ff 	add.w	r0, ip, #4294967295	; 0xffffffff
 8000c5a:	d202      	bcs.n	8000c62 <__udivmoddi4+0xe6>
 8000c5c:	4299      	cmp	r1, r3
 8000c5e:	f200 80ec 	bhi.w	8000e3a <__udivmoddi4+0x2be>
 8000c62:	4684      	mov	ip, r0
 8000c64:	1a59      	subs	r1, r3, r1
 8000c66:	b2a3      	uxth	r3, r4
 8000c68:	fbb1 f0fe 	udiv	r0, r1, lr
 8000c6c:	fb0e 1410 	mls	r4, lr, r0, r1
 8000c70:	ea43 4404 	orr.w	r4, r3, r4, lsl #16
 8000c74:	fb08 f800 	mul.w	r8, r8, r0
 8000c78:	45a0      	cmp	r8, r4
 8000c7a:	d907      	bls.n	8000c8c <__udivmoddi4+0x110>
 8000c7c:	192c      	adds	r4, r5, r4
 8000c7e:	f100 33ff 	add.w	r3, r0, #4294967295	; 0xffffffff
 8000c82:	d202      	bcs.n	8000c8a <__udivmoddi4+0x10e>
 8000c84:	45a0      	cmp	r8, r4
 8000c86:	f200 80dc 	bhi.w	8000e42 <__udivmoddi4+0x2c6>
 8000c8a:	4618      	mov	r0, r3
 8000c8c:	eba4 0408 	sub.w	r4, r4, r8
 8000c90:	ea40 400c 	orr.w	r0, r0, ip, lsl #16
 8000c94:	e7be      	b.n	8000c14 <__udivmoddi4+0x98>
 8000c96:	428b      	cmp	r3, r1
 8000c98:	d908      	bls.n	8000cac <__udivmoddi4+0x130>
 8000c9a:	2e00      	cmp	r6, #0
 8000c9c:	d078      	beq.n	8000d90 <__udivmoddi4+0x214>
 8000c9e:	2700      	movs	r7, #0
 8000ca0:	e9c6 0100 	strd	r0, r1, [r6]
 8000ca4:	4638      	mov	r0, r7
 8000ca6:	4639      	mov	r1, r7
 8000ca8:	e8bd 87f0 	ldmia.w	sp!, {r4, r5, r6, r7, r8, r9, sl, pc}
 8000cac:	fab3 f783 	clz	r7, r3
 8000cb0:	b97f      	cbnz	r7, 8000cd2 <__udivmoddi4+0x156>
 8000cb2:	428b      	cmp	r3, r1
 8000cb4:	d302      	bcc.n	8000cbc <__udivmoddi4+0x140>
 8000cb6:	4282      	cmp	r2, r0
 8000cb8:	f200 80bd 	bhi.w	8000e36 <__udivmoddi4+0x2ba>
 8000cbc:	1a84      	subs	r4, r0, r2
 8000cbe:	eb61 0303 	sbc.w	r3, r1, r3
 8000cc2:	2001      	movs	r0, #1
 8000cc4:	4698      	mov	r8, r3
 8000cc6:	2e00      	cmp	r6, #0
 8000cc8:	d0a9      	beq.n	8000c1e <__udivmoddi4+0xa2>
 8000cca:	e9c6 4800 	strd	r4, r8, [r6]
 8000cce:	e7a6      	b.n	8000c1e <__udivmoddi4+0xa2>
 8000cd0:	deff      	udf	#255	; 0xff
 8000cd2:	f1c7 0520 	rsb	r5, r7, #32
 8000cd6:	40bb      	lsls	r3, r7
 8000cd8:	fa22 fc05 	lsr.w	ip, r2, r5
 8000cdc:	ea4c 0c03 	orr.w	ip, ip, r3
 8000ce0:	fa01 f407 	lsl.w	r4, r1, r7
 8000ce4:	fa20 f805 	lsr.w	r8, r0, r5
 8000ce8:	fa21 f305 	lsr.w	r3, r1, r5
 8000cec:	ea4f 4e1c 	mov.w	lr, ip, lsr #16
 8000cf0:	ea48 0404 	orr.w	r4, r8, r4
 8000cf4:	fbb3 f9fe 	udiv	r9, r3, lr
 8000cf8:	0c21      	lsrs	r1, r4, #16
 8000cfa:	fb0e 3319 	mls	r3, lr, r9, r3
 8000cfe:	fa1f f88c 	uxth.w	r8, ip
 8000d02:	ea41 4303 	orr.w	r3, r1, r3, lsl #16
 8000d06:	fb09 fa08 	mul.w	sl, r9, r8
 8000d0a:	459a      	cmp	sl, r3
 8000d0c:	fa02 f207 	lsl.w	r2, r2, r7
 8000d10:	fa00 f107 	lsl.w	r1, r0, r7
 8000d14:	d90b      	bls.n	8000d2e <__udivmoddi4+0x1b2>
 8000d16:	eb1c 0303 	adds.w	r3, ip, r3
 8000d1a:	f109 30ff 	add.w	r0, r9, #4294967295	; 0xffffffff
 8000d1e:	f080 8088 	bcs.w	8000e32 <__udivmoddi4+0x2b6>
 8000d22:	459a      	cmp	sl, r3
 8000d24:	f240 8085 	bls.w	8000e32 <__udivmoddi4+0x2b6>
 8000d28:	f1a9 0902 	sub.w	r9, r9, #2
 8000d2c:	4463      	add	r3, ip
 8000d2e:	eba3 030a 	sub.w	r3, r3, sl
 8000d32:	b2a4      	uxth	r4, r4
 8000d34:	fbb3 f0fe 	udiv	r0, r3, lr
 8000d38:	fb0e 3310 	mls	r3, lr, r0, r3
 8000d3c:	ea44 4403 	orr.w	r4, r4, r3, lsl #16
 8000d40:	fb00 f808 	mul.w	r8, r0, r8
 8000d44:	45a0      	cmp	r8, r4
 8000d46:	d908      	bls.n	8000d5a <__udivmoddi4+0x1de>
 8000d48:	eb1c 0404 	adds.w	r4, ip, r4
 8000d4c:	f100 33ff 	add.w	r3, r0, #4294967295	; 0xffffffff
 8000d50:	d26b      	bcs.n	8000e2a <__udivmoddi4+0x2ae>
 8000d52:	45a0      	cmp	r8, r4
 8000d54:	d969      	bls.n	8000e2a <__udivmoddi4+0x2ae>
 8000d56:	3802      	subs	r0, #2
 8000d58:	4464      	add	r4, ip
 8000d5a:	ea40 4009 	orr.w	r0, r0, r9, lsl #16
 8000d5e:	eba4 0408 	sub.w	r4, r4, r8
 8000d62:	fba0 8902 	umull	r8, r9, r0, r2
 8000d66:	454c      	cmp	r4, r9
 8000d68:	46c6      	mov	lr, r8
 8000d6a:	464b      	mov	r3, r9
 8000d6c:	d354      	bcc.n	8000e18 <__udivmoddi4+0x29c>
 8000d6e:	d051      	beq.n	8000e14 <__udivmoddi4+0x298>
 8000d70:	2e00      	cmp	r6, #0
 8000d72:	d069      	beq.n	8000e48 <__udivmoddi4+0x2cc>
 8000d74:	ebb1 020e 	subs.w	r2, r1, lr
 8000d78:	eb64 0403 	sbc.w	r4, r4, r3
 8000d7c:	fa04 f505 	lsl.w	r5, r4, r5
 8000d80:	fa22 f307 	lsr.w	r3, r2, r7
 8000d84:	40fc      	lsrs	r4, r7
 8000d86:	431d      	orrs	r5, r3
 8000d88:	e9c6 5400 	strd	r5, r4, [r6]
 8000d8c:	2700      	movs	r7, #0
 8000d8e:	e746      	b.n	8000c1e <__udivmoddi4+0xa2>
 8000d90:	4637      	mov	r7, r6
 8000d92:	4630      	mov	r0, r6
 8000d94:	e743      	b.n	8000c1e <__udivmoddi4+0xa2>
 8000d96:	4618      	mov	r0, r3
 8000d98:	e737      	b.n	8000c0a <__udivmoddi4+0x8e>
 8000d9a:	4607      	mov	r7, r0
 8000d9c:	e71f      	b.n	8000bde <__udivmoddi4+0x62>
 8000d9e:	f1c2 0320 	rsb	r3, r2, #32
 8000da2:	fa20 f703 	lsr.w	r7, r0, r3
 8000da6:	4095      	lsls	r5, r2
 8000da8:	fa01 f002 	lsl.w	r0, r1, r2
 8000dac:	fa21 f303 	lsr.w	r3, r1, r3
 8000db0:	ea4f 4e15 	mov.w	lr, r5, lsr #16
 8000db4:	4338      	orrs	r0, r7
 8000db6:	0c01      	lsrs	r1, r0, #16
 8000db8:	fbb3 f7fe 	udiv	r7, r3, lr
 8000dbc:	fa1f f885 	uxth.w	r8, r5
 8000dc0:	fb0e 3317 	mls	r3, lr, r7, r3
 8000dc4:	ea41 4103 	orr.w	r1, r1, r3, lsl #16
 8000dc8:	fb07 f308 	mul.w	r3, r7, r8
 8000dcc:	428b      	cmp	r3, r1
 8000dce:	fa04 f402 	lsl.w	r4, r4, r2
 8000dd2:	d907      	bls.n	8000de4 <__udivmoddi4+0x268>
 8000dd4:	1869      	adds	r1, r5, r1
 8000dd6:	f107 3cff 	add.w	ip, r7, #4294967295	; 0xffffffff
 8000dda:	d228      	bcs.n	8000e2e <__udivmoddi4+0x2b2>
 8000ddc:	428b      	cmp	r3, r1
 8000dde:	d926      	bls.n	8000e2e <__udivmoddi4+0x2b2>
 8000de0:	3f02      	subs	r7, #2
 8000de2:	4429      	add	r1, r5
 8000de4:	1acb      	subs	r3, r1, r3
 8000de6:	b281      	uxth	r1, r0
 8000de8:	fbb3 f0fe 	udiv	r0, r3, lr
 8000dec:	fb0e 3310 	mls	r3, lr, r0, r3
 8000df0:	ea41 4103 	orr.w	r1, r1, r3, lsl #16
 8000df4:	fb00 f308 	mul.w	r3, r0, r8
 8000df8:	428b      	cmp	r3, r1
 8000dfa:	d907      	bls.n	8000e0c <__udivmoddi4+0x290>
 8000dfc:	1869      	adds	r1, r5, r1
 8000dfe:	f100 3cff 	add.w	ip, r0, #4294967295	; 0xffffffff
 8000e02:	d210      	bcs.n	8000e26 <__udivmoddi4+0x2aa>
 8000e04:	428b      	cmp	r3, r1
 8000e06:	d90e      	bls.n	8000e26 <__udivmoddi4+0x2aa>
 8000e08:	3802      	subs	r0, #2
 8000e0a:	4429      	add	r1, r5
 8000e0c:	1ac9      	subs	r1, r1, r3
 8000e0e:	ea40 4707 	orr.w	r7, r0, r7, lsl #16
 8000e12:	e714      	b.n	8000c3e <__udivmoddi4+0xc2>
 8000e14:	4541      	cmp	r1, r8
 8000e16:	d2ab      	bcs.n	8000d70 <__udivmoddi4+0x1f4>
 8000e18:	ebb8 0e02 	subs.w	lr, r8, r2
 8000e1c:	eb69 020c 	sbc.w	r2, r9, ip
 8000e20:	3801      	subs	r0, #1
 8000e22:	4613      	mov	r3, r2
 8000e24:	e7a4      	b.n	8000d70 <__udivmoddi4+0x1f4>
 8000e26:	4660      	mov	r0, ip
 8000e28:	e7f0      	b.n	8000e0c <__udivmoddi4+0x290>
 8000e2a:	4618      	mov	r0, r3
 8000e2c:	e795      	b.n	8000d5a <__udivmoddi4+0x1de>
 8000e2e:	4667      	mov	r7, ip
 8000e30:	e7d8      	b.n	8000de4 <__udivmoddi4+0x268>
 8000e32:	4681      	mov	r9, r0
 8000e34:	e77b      	b.n	8000d2e <__udivmoddi4+0x1b2>
 8000e36:	4638      	mov	r0, r7
 8000e38:	e745      	b.n	8000cc6 <__udivmoddi4+0x14a>
 8000e3a:	f1ac 0c02 	sub.w	ip, ip, #2
 8000e3e:	442b      	add	r3, r5
 8000e40:	e710      	b.n	8000c64 <__udivmoddi4+0xe8>
 8000e42:	3802      	subs	r0, #2
 8000e44:	442c      	add	r4, r5
 8000e46:	e721      	b.n	8000c8c <__udivmoddi4+0x110>
 8000e48:	4637      	mov	r7, r6
 8000e4a:	e6e8      	b.n	8000c1e <__udivmoddi4+0xa2>

08000e4c <__aeabi_idiv0>:
 8000e4c:	4770      	bx	lr
 8000e4e:	bf00      	nop

08000e50 <atexit>:
 8000e50:	2300      	movs	r3, #0
 8000e52:	4601      	mov	r1, r0
 8000e54:	461a      	mov	r2, r3
 8000e56:	4618      	mov	r0, r3
 8000e58:	f000 b86a 	b.w	8000f30 <__register_exitproc>

08000e5c <__libc_fini_array>:
 8000e5c:	b538      	push	{r3, r4, r5, lr}
 8000e5e:	4c0a      	ldr	r4, [pc, #40]	; (8000e88 <__libc_fini_array+0x2c>)
 8000e60:	4d0a      	ldr	r5, [pc, #40]	; (8000e8c <__libc_fini_array+0x30>)
 8000e62:	1b64      	subs	r4, r4, r5
 8000e64:	10a4      	asrs	r4, r4, #2
 8000e66:	d00a      	beq.n	8000e7e <__libc_fini_array+0x22>
 8000e68:	f104 4380 	add.w	r3, r4, #1073741824	; 0x40000000
 8000e6c:	3b01      	subs	r3, #1
 8000e6e:	eb05 0583 	add.w	r5, r5, r3, lsl #2
 8000e72:	3c01      	subs	r4, #1
 8000e74:	f855 3904 	ldr.w	r3, [r5], #-4
 8000e78:	4798      	blx	r3
 8000e7a:	2c00      	cmp	r4, #0
 8000e7c:	d1f9      	bne.n	8000e72 <__libc_fini_array+0x16>
 8000e7e:	e8bd 4038 	ldmia.w	sp!, {r3, r4, r5, lr}
 8000e82:	f003 bdfb 	b.w	8004a7c <_fini>
 8000e86:	bf00      	nop
 8000e88:	080058f8 	stmdaeq	r0, {r3, r4, r5, r6, r7, fp, ip, lr}
 8000e8c:	080058f4 	stmdaeq	r0, {r2, r4, r5, r6, r7, fp, ip, lr}

08000e90 <memset>:
 8000e90:	b4f0      	push	{r4, r5, r6, r7}
 8000e92:	0786      	lsls	r6, r0, #30
 8000e94:	d046      	beq.n	8000f24 <memset+0x94>
 8000e96:	1e54      	subs	r4, r2, #1
 8000e98:	2a00      	cmp	r2, #0
 8000e9a:	d03c      	beq.n	8000f16 <memset+0x86>
 8000e9c:	b2ca      	uxtb	r2, r1
 8000e9e:	4603      	mov	r3, r0
 8000ea0:	e002      	b.n	8000ea8 <memset+0x18>
 8000ea2:	f114 34ff 	adds.w	r4, r4, #4294967295	; 0xffffffff
 8000ea6:	d336      	bcc.n	8000f16 <memset+0x86>
 8000ea8:	f803 2b01 	strb.w	r2, [r3], #1
 8000eac:	079d      	lsls	r5, r3, #30
 8000eae:	d1f8      	bne.n	8000ea2 <memset+0x12>
 8000eb0:	2c03      	cmp	r4, #3
 8000eb2:	d929      	bls.n	8000f08 <memset+0x78>
 8000eb4:	b2cd      	uxtb	r5, r1
 8000eb6:	ea45 2505 	orr.w	r5, r5, r5, lsl #8
 8000eba:	2c0f      	cmp	r4, #15
 8000ebc:	ea45 4505 	orr.w	r5, r5, r5, lsl #16
 8000ec0:	d933      	bls.n	8000f2a <memset+0x9a>
 8000ec2:	f1a4 0610 	sub.w	r6, r4, #16
 8000ec6:	0936      	lsrs	r6, r6, #4
 8000ec8:	f103 0720 	add.w	r7, r3, #32
 8000ecc:	eb07 1706 	add.w	r7, r7, r6, lsl #4
 8000ed0:	f103 0210 	add.w	r2, r3, #16
 8000ed4:	e942 5504 	strd	r5, r5, [r2, #-16]
 8000ed8:	e942 5502 	strd	r5, r5, [r2, #-8]
 8000edc:	3210      	adds	r2, #16
 8000ede:	42ba      	cmp	r2, r7
 8000ee0:	d1f8      	bne.n	8000ed4 <memset+0x44>
 8000ee2:	1c72      	adds	r2, r6, #1
 8000ee4:	f014 0f0c 	tst.w	r4, #12
 8000ee8:	eb03 1202 	add.w	r2, r3, r2, lsl #4
 8000eec:	f004 060f 	and.w	r6, r4, #15
 8000ef0:	d013      	beq.n	8000f1a <memset+0x8a>
 8000ef2:	1f33      	subs	r3, r6, #4
 8000ef4:	f023 0303 	bic.w	r3, r3, #3
 8000ef8:	3304      	adds	r3, #4
 8000efa:	4413      	add	r3, r2
 8000efc:	f842 5b04 	str.w	r5, [r2], #4
 8000f00:	4293      	cmp	r3, r2
 8000f02:	d1fb      	bne.n	8000efc <memset+0x6c>
 8000f04:	f006 0403 	and.w	r4, r6, #3
 8000f08:	b12c      	cbz	r4, 8000f16 <memset+0x86>
 8000f0a:	b2c9      	uxtb	r1, r1
 8000f0c:	441c      	add	r4, r3
 8000f0e:	f803 1b01 	strb.w	r1, [r3], #1
 8000f12:	429c      	cmp	r4, r3
 8000f14:	d1fb      	bne.n	8000f0e <memset+0x7e>
 8000f16:	bcf0      	pop	{r4, r5, r6, r7}
 8000f18:	4770      	bx	lr
 8000f1a:	4634      	mov	r4, r6
 8000f1c:	4613      	mov	r3, r2
 8000f1e:	2c00      	cmp	r4, #0
 8000f20:	d1f3      	bne.n	8000f0a <memset+0x7a>
 8000f22:	e7f8      	b.n	8000f16 <memset+0x86>
 8000f24:	4614      	mov	r4, r2
 8000f26:	4603      	mov	r3, r0
 8000f28:	e7c2      	b.n	8000eb0 <memset+0x20>
 8000f2a:	461a      	mov	r2, r3
 8000f2c:	4626      	mov	r6, r4
 8000f2e:	e7e0      	b.n	8000ef2 <memset+0x62>

08000f30 <__register_exitproc>:
 8000f30:	b4f0      	push	{r4, r5, r6, r7}
 8000f32:	4c18      	ldr	r4, [pc, #96]	; (8000f94 <__register_exitproc+0x64>)
 8000f34:	6825      	ldr	r5, [r4, #0]
 8000f36:	f8d5 4148 	ldr.w	r4, [r5, #328]	; 0x148
 8000f3a:	b314      	cbz	r4, 8000f82 <__register_exitproc+0x52>
 8000f3c:	6865      	ldr	r5, [r4, #4]
 8000f3e:	2d1f      	cmp	r5, #31
 8000f40:	dc24      	bgt.n	8000f8c <__register_exitproc+0x5c>
 8000f42:	b938      	cbnz	r0, 8000f54 <__register_exitproc+0x24>
 8000f44:	1cab      	adds	r3, r5, #2
 8000f46:	3501      	adds	r5, #1
 8000f48:	6065      	str	r5, [r4, #4]
 8000f4a:	f844 1023 	str.w	r1, [r4, r3, lsl #2]
 8000f4e:	2000      	movs	r0, #0
 8000f50:	bcf0      	pop	{r4, r5, r6, r7}
 8000f52:	4770      	bx	lr
 8000f54:	eb04 0685 	add.w	r6, r4, r5, lsl #2
 8000f58:	2701      	movs	r7, #1
 8000f5a:	f8c6 2088 	str.w	r2, [r6, #136]	; 0x88
 8000f5e:	fa07 f205 	lsl.w	r2, r7, r5
 8000f62:	f8d4 7188 	ldr.w	r7, [r4, #392]	; 0x188
 8000f66:	2802      	cmp	r0, #2
 8000f68:	ea47 0702 	orr.w	r7, r7, r2
 8000f6c:	f8c4 7188 	str.w	r7, [r4, #392]	; 0x188
 8000f70:	f8c6 3108 	str.w	r3, [r6, #264]	; 0x108
 8000f74:	d1e6      	bne.n	8000f44 <__register_exitproc+0x14>
 8000f76:	f8d4 318c 	ldr.w	r3, [r4, #396]	; 0x18c
 8000f7a:	431a      	orrs	r2, r3
 8000f7c:	f8c4 218c 	str.w	r2, [r4, #396]	; 0x18c
 8000f80:	e7e0      	b.n	8000f44 <__register_exitproc+0x14>
 8000f82:	f505 74a6 	add.w	r4, r5, #332	; 0x14c
 8000f86:	f8c5 4148 	str.w	r4, [r5, #328]	; 0x148
 8000f8a:	e7d7      	b.n	8000f3c <__register_exitproc+0xc>
 8000f8c:	f04f 30ff 	mov.w	r0, #4294967295	; 0xffffffff
 8000f90:	e7de      	b.n	8000f50 <__register_exitproc+0x20>
 8000f92:	bf00      	nop
 8000f94:	080056e4 	stmdaeq	r0, {r2, r5, r6, r7, r9, sl, ip, lr}

08000f98 <main>:
  * @param  None
  * @retval None
  */
extern void task_start(void);
int main(void)
{
 8000f98:	b580      	push	{r7, lr}
 8000f9a:	af00      	add	r7, sp, #0
       - Configure the Flash prefetch, instruction and Data caches
       - Configure the Systick to generate an interrupt each 1 msec
       - Set NVIC Group Priority to 4
       - Global MSP (MCU Support Package) initialization
     */
  HAL_Init();
 8000f9c:	f000 f972 	bl	8001284 <HAL_Init>
  /* Configure the system clock to 84 MHz */
  // SystemClock_Config();

  serial_init();
 8000fa0:	f000 f80e 	bl	8000fc0 <serial_init>
  /* Output a message on Hyperterminal using printf function */
 printf("\n\r -- UART Printf Example: retarget the C library printf function to the UART, %d\n\r", 10/3);
 8000fa4:	2103      	movs	r1, #3
 8000fa6:	4803      	ldr	r0, [pc, #12]	; (8000fb4 <main+0x1c>)
 8000fa8:	f002 f8d0 	bl	800314c <printf_>
  __asm("svc 0");
 8000fac:	df00      	svc	0

    //   printf("&__shell_command_start=0x%x &__shell_command_end=0x%x\r\n",\
        &__shell_command_start, &__shell_command_end);
    // shell_command_t * scmd = &__shell_command_start;

  task_start();
 8000fae:	f002 fcf7 	bl	80039a0 <task_start>
  // exception_test();
  // backtrace_test();
  while (1) {
 8000fb2:	e7fe      	b.n	8000fb2 <main+0x1a>
 8000fb4:	08004aa4 	stmdaeq	r0, {r2, r5, r7, r9, fp, lr}

08000fb8 <Error_Handler>:
  * @brief  This function is executed in case of error occurrence.
  * @param  None
  * @retval None
  */
void Error_Handler(void)
{
 8000fb8:	b480      	push	{r7}
 8000fba:	af00      	add	r7, sp, #0
  /* Turn LED2 on */
  // BSP_LED_On(LED2);
  while(1)
 8000fbc:	e7fe      	b.n	8000fbc <Error_Handler+0x4>
	...

08000fc0 <serial_init>:
#define USART_DR_OFFSET   0x04

#define USART_DR_ADDR (USART1_BASE_ADDR+USART_DR_OFFSET)

void serial_init(void) 
{
 8000fc0:	b580      	push	{r7, lr}
 8000fc2:	af00      	add	r7, sp, #0
      - Stop Bit = One Stop bit
      - Parity = ODD parity
      - BaudRate = 9600 baud
      - Hardware flow control disabled (RTS and CTS signals) */
#ifdef HAL_DRIVER_ENABLE
  UartHandle.Instance          = USARTx;
 8000fc4:	4b11      	ldr	r3, [pc, #68]	; (800100c <serial_init+0x4c>)
 8000fc6:	4a12      	ldr	r2, [pc, #72]	; (8001010 <serial_init+0x50>)
 8000fc8:	601a      	str	r2, [r3, #0]
  
  UartHandle.Init.BaudRate     = 921600;
 8000fca:	4b10      	ldr	r3, [pc, #64]	; (800100c <serial_init+0x4c>)
 8000fcc:	f44f 2261 	mov.w	r2, #921600	; 0xe1000
 8000fd0:	605a      	str	r2, [r3, #4]
  UartHandle.Init.WordLength   = UART_WORDLENGTH_8B;
 8000fd2:	4b0e      	ldr	r3, [pc, #56]	; (800100c <serial_init+0x4c>)
 8000fd4:	2200      	movs	r2, #0
 8000fd6:	609a      	str	r2, [r3, #8]
  UartHandle.Init.StopBits     = UART_STOPBITS_1;
 8000fd8:	4b0c      	ldr	r3, [pc, #48]	; (800100c <serial_init+0x4c>)
 8000fda:	2200      	movs	r2, #0
 8000fdc:	60da      	str	r2, [r3, #12]
  UartHandle.Init.Parity       = UART_PARITY_NONE;
 8000fde:	4b0b      	ldr	r3, [pc, #44]	; (800100c <serial_init+0x4c>)
 8000fe0:	2200      	movs	r2, #0
 8000fe2:	611a      	str	r2, [r3, #16]
  UartHandle.Init.HwFlowCtl    = UART_HWCONTROL_NONE;
 8000fe4:	4b09      	ldr	r3, [pc, #36]	; (800100c <serial_init+0x4c>)
 8000fe6:	2200      	movs	r2, #0
 8000fe8:	619a      	str	r2, [r3, #24]
  UartHandle.Init.Mode         = UART_MODE_TX_RX;
 8000fea:	4b08      	ldr	r3, [pc, #32]	; (800100c <serial_init+0x4c>)
 8000fec:	220c      	movs	r2, #12
 8000fee:	615a      	str	r2, [r3, #20]
  UartHandle.Init.OverSampling = UART_OVERSAMPLING_16;
 8000ff0:	4b06      	ldr	r3, [pc, #24]	; (800100c <serial_init+0x4c>)
 8000ff2:	2200      	movs	r2, #0
 8000ff4:	61da      	str	r2, [r3, #28]
    
  if(HAL_UART_Init(&UartHandle) != HAL_OK) {
 8000ff6:	4805      	ldr	r0, [pc, #20]	; (800100c <serial_init+0x4c>)
 8000ff8:	f000 fdee 	bl	8001bd8 <HAL_UART_Init>
 8000ffc:	4603      	mov	r3, r0
 8000ffe:	2b00      	cmp	r3, #0
 8001000:	d001      	beq.n	8001006 <serial_init+0x46>
    /* Initialization Error */
    Error_Handler(); 
 8001002:	f7ff ffd9 	bl	8000fb8 <Error_Handler>
  }
#endif
}
 8001006:	bf00      	nop
 8001008:	bd80      	pop	{r7, pc}
 800100a:	bf00      	nop
 800100c:	20001744 	andcs	r1, r0, r4, asr #14
 8001010:	40004400 	andmi	r4, r0, r0, lsl #8

08001014 <__io_putchar>:
  * @brief  Retargets the C library printf function to the USART.
  * @param  None
  * @retval None
  */
PUTCHAR_PROTOTYPE
{
 8001014:	b480      	push	{r7}
 8001016:	b083      	sub	sp, #12
 8001018:	af00      	add	r7, sp, #0
 800101a:	6078      	str	r0, [r7, #4]
  /* Place your implementation of fputc here */
  /* e.g. write a character to the EVAL_COM1 and Loop until the end of transmission */
  // HAL_UART_Transmit(&UartHandle, (uint8_t *)&ch, 1, 0xFFFF); 
  *(volatile unsigned char*)(USART_DR_ADDR) = ch;
 800101c:	4b04      	ldr	r3, [pc, #16]	; (8001030 <__io_putchar+0x1c>)
 800101e:	687a      	ldr	r2, [r7, #4]
 8001020:	b2d2      	uxtb	r2, r2
 8001022:	701a      	strb	r2, [r3, #0]
  return ch;
 8001024:	687b      	ldr	r3, [r7, #4]
}
 8001026:	4618      	mov	r0, r3
 8001028:	370c      	adds	r7, #12
 800102a:	46bd      	mov	sp, r7
 800102c:	bc80      	pop	{r7}
 800102e:	4770      	bx	lr
 8001030:	40011004 	andmi	r1, r1, r4

08001034 <HAL_UART_MspInit>:
  *           - NVIC configuration for DMA interrupt request enable
  * @param huart: UART handle pointer
  * @retval None
  */
void HAL_UART_MspInit(UART_HandleTypeDef *huart)
{
 8001034:	b580      	push	{r7, lr}
 8001036:	b08c      	sub	sp, #48	; 0x30
 8001038:	af00      	add	r7, sp, #0
 800103a:	6078      	str	r0, [r7, #4]
  
  GPIO_InitTypeDef  GPIO_InitStruct;
  
  /*##-1- Enable peripherals and GPIO Clocks #################################*/
  /* Enable GPIO TX/RX clock */
  USARTx_TX_GPIO_CLK_ENABLE();
 800103c:	2300      	movs	r3, #0
 800103e:	61bb      	str	r3, [r7, #24]
 8001040:	4b6a      	ldr	r3, [pc, #424]	; (80011ec <HAL_UART_MspInit+0x1b8>)
 8001042:	6b1b      	ldr	r3, [r3, #48]	; 0x30
 8001044:	4a69      	ldr	r2, [pc, #420]	; (80011ec <HAL_UART_MspInit+0x1b8>)
 8001046:	f043 0301 	orr.w	r3, r3, #1
 800104a:	6313      	str	r3, [r2, #48]	; 0x30
 800104c:	4b67      	ldr	r3, [pc, #412]	; (80011ec <HAL_UART_MspInit+0x1b8>)
 800104e:	6b1b      	ldr	r3, [r3, #48]	; 0x30
 8001050:	f003 0301 	and.w	r3, r3, #1
 8001054:	61bb      	str	r3, [r7, #24]
 8001056:	69bb      	ldr	r3, [r7, #24]
  USARTx_RX_GPIO_CLK_ENABLE();
 8001058:	2300      	movs	r3, #0
 800105a:	617b      	str	r3, [r7, #20]
 800105c:	4b63      	ldr	r3, [pc, #396]	; (80011ec <HAL_UART_MspInit+0x1b8>)
 800105e:	6b1b      	ldr	r3, [r3, #48]	; 0x30
 8001060:	4a62      	ldr	r2, [pc, #392]	; (80011ec <HAL_UART_MspInit+0x1b8>)
 8001062:	f043 0301 	orr.w	r3, r3, #1
 8001066:	6313      	str	r3, [r2, #48]	; 0x30
 8001068:	4b60      	ldr	r3, [pc, #384]	; (80011ec <HAL_UART_MspInit+0x1b8>)
 800106a:	6b1b      	ldr	r3, [r3, #48]	; 0x30
 800106c:	f003 0301 	and.w	r3, r3, #1
 8001070:	617b      	str	r3, [r7, #20]
 8001072:	697b      	ldr	r3, [r7, #20]
  /* Enable USART2 clock */
  USARTx_CLK_ENABLE(); 
 8001074:	2300      	movs	r3, #0
 8001076:	613b      	str	r3, [r7, #16]
 8001078:	4b5c      	ldr	r3, [pc, #368]	; (80011ec <HAL_UART_MspInit+0x1b8>)
 800107a:	6c1b      	ldr	r3, [r3, #64]	; 0x40
 800107c:	4a5b      	ldr	r2, [pc, #364]	; (80011ec <HAL_UART_MspInit+0x1b8>)
 800107e:	f443 3300 	orr.w	r3, r3, #131072	; 0x20000
 8001082:	6413      	str	r3, [r2, #64]	; 0x40
 8001084:	4b59      	ldr	r3, [pc, #356]	; (80011ec <HAL_UART_MspInit+0x1b8>)
 8001086:	6c1b      	ldr	r3, [r3, #64]	; 0x40
 8001088:	f403 3300 	and.w	r3, r3, #131072	; 0x20000
 800108c:	613b      	str	r3, [r7, #16]
 800108e:	693b      	ldr	r3, [r7, #16]
  /* Enable DMA1 clock */
  DMAx_CLK_ENABLE();   
 8001090:	2300      	movs	r3, #0
 8001092:	60fb      	str	r3, [r7, #12]
 8001094:	4b55      	ldr	r3, [pc, #340]	; (80011ec <HAL_UART_MspInit+0x1b8>)
 8001096:	6b1b      	ldr	r3, [r3, #48]	; 0x30
 8001098:	4a54      	ldr	r2, [pc, #336]	; (80011ec <HAL_UART_MspInit+0x1b8>)
 800109a:	f443 1300 	orr.w	r3, r3, #2097152	; 0x200000
 800109e:	6313      	str	r3, [r2, #48]	; 0x30
 80010a0:	4b52      	ldr	r3, [pc, #328]	; (80011ec <HAL_UART_MspInit+0x1b8>)
 80010a2:	6b1b      	ldr	r3, [r3, #48]	; 0x30
 80010a4:	f403 1300 	and.w	r3, r3, #2097152	; 0x200000
 80010a8:	60fb      	str	r3, [r7, #12]
 80010aa:	68fb      	ldr	r3, [r7, #12]
  
  /*##-2- Configure peripheral GPIO ##########################################*/  
  /* UART TX GPIO pin configuration  */
  GPIO_InitStruct.Pin       = USARTx_TX_PIN;
 80010ac:	2304      	movs	r3, #4
 80010ae:	61fb      	str	r3, [r7, #28]
  GPIO_InitStruct.Mode      = GPIO_MODE_AF_PP;
 80010b0:	2302      	movs	r3, #2
 80010b2:	623b      	str	r3, [r7, #32]
  GPIO_InitStruct.Pull      = GPIO_NOPULL;
 80010b4:	2300      	movs	r3, #0
 80010b6:	627b      	str	r3, [r7, #36]	; 0x24
  GPIO_InitStruct.Speed     = GPIO_SPEED_FAST;
 80010b8:	2302      	movs	r3, #2
 80010ba:	62bb      	str	r3, [r7, #40]	; 0x28
  GPIO_InitStruct.Alternate = USARTx_TX_AF;
 80010bc:	2307      	movs	r3, #7
 80010be:	62fb      	str	r3, [r7, #44]	; 0x2c
  
  HAL_GPIO_Init(USARTx_TX_GPIO_PORT, &GPIO_InitStruct);
 80010c0:	f107 031c 	add.w	r3, r7, #28
 80010c4:	4619      	mov	r1, r3
 80010c6:	484a      	ldr	r0, [pc, #296]	; (80011f0 <HAL_UART_MspInit+0x1bc>)
 80010c8:	f000 fbec 	bl	80018a4 <HAL_GPIO_Init>
    
  /* UART RX GPIO pin configuration  */
  GPIO_InitStruct.Pin = USARTx_RX_PIN;
 80010cc:	2308      	movs	r3, #8
 80010ce:	61fb      	str	r3, [r7, #28]
  GPIO_InitStruct.Alternate = USARTx_RX_AF;
 80010d0:	2307      	movs	r3, #7
 80010d2:	62fb      	str	r3, [r7, #44]	; 0x2c
    
  HAL_GPIO_Init(USARTx_RX_GPIO_PORT, &GPIO_InitStruct);
 80010d4:	f107 031c 	add.w	r3, r7, #28
 80010d8:	4619      	mov	r1, r3
 80010da:	4845      	ldr	r0, [pc, #276]	; (80011f0 <HAL_UART_MspInit+0x1bc>)
 80010dc:	f000 fbe2 	bl	80018a4 <HAL_GPIO_Init>
    
  /*##-3- Configure the DMA streams ##########################################*/
  /* Configure the DMA handler for Transmission process */
  hdma_tx.Instance                 = USARTx_TX_DMA_STREAM;
 80010e0:	4b44      	ldr	r3, [pc, #272]	; (80011f4 <HAL_UART_MspInit+0x1c0>)
 80010e2:	4a45      	ldr	r2, [pc, #276]	; (80011f8 <HAL_UART_MspInit+0x1c4>)
 80010e4:	601a      	str	r2, [r3, #0]
  
  hdma_tx.Init.Channel             = USARTx_TX_DMA_CHANNEL;
 80010e6:	4b43      	ldr	r3, [pc, #268]	; (80011f4 <HAL_UART_MspInit+0x1c0>)
 80010e8:	f04f 6200 	mov.w	r2, #134217728	; 0x8000000
 80010ec:	605a      	str	r2, [r3, #4]
  hdma_tx.Init.Direction           = DMA_MEMORY_TO_PERIPH;
 80010ee:	4b41      	ldr	r3, [pc, #260]	; (80011f4 <HAL_UART_MspInit+0x1c0>)
 80010f0:	2240      	movs	r2, #64	; 0x40
 80010f2:	609a      	str	r2, [r3, #8]
  hdma_tx.Init.PeriphInc           = DMA_PINC_DISABLE;
 80010f4:	4b3f      	ldr	r3, [pc, #252]	; (80011f4 <HAL_UART_MspInit+0x1c0>)
 80010f6:	2200      	movs	r2, #0
 80010f8:	60da      	str	r2, [r3, #12]
  hdma_tx.Init.MemInc              = DMA_MINC_ENABLE;
 80010fa:	4b3e      	ldr	r3, [pc, #248]	; (80011f4 <HAL_UART_MspInit+0x1c0>)
 80010fc:	f44f 6280 	mov.w	r2, #1024	; 0x400
 8001100:	611a      	str	r2, [r3, #16]
  hdma_tx.Init.PeriphDataAlignment = DMA_PDATAALIGN_BYTE;
 8001102:	4b3c      	ldr	r3, [pc, #240]	; (80011f4 <HAL_UART_MspInit+0x1c0>)
 8001104:	2200      	movs	r2, #0
 8001106:	615a      	str	r2, [r3, #20]
  hdma_tx.Init.MemDataAlignment    = DMA_MDATAALIGN_BYTE;
 8001108:	4b3a      	ldr	r3, [pc, #232]	; (80011f4 <HAL_UART_MspInit+0x1c0>)
 800110a:	2200      	movs	r2, #0
 800110c:	619a      	str	r2, [r3, #24]
  hdma_tx.Init.Mode                = DMA_NORMAL;
 800110e:	4b39      	ldr	r3, [pc, #228]	; (80011f4 <HAL_UART_MspInit+0x1c0>)
 8001110:	2200      	movs	r2, #0
 8001112:	61da      	str	r2, [r3, #28]
  hdma_tx.Init.Priority            = DMA_PRIORITY_LOW;
 8001114:	4b37      	ldr	r3, [pc, #220]	; (80011f4 <HAL_UART_MspInit+0x1c0>)
 8001116:	2200      	movs	r2, #0
 8001118:	621a      	str	r2, [r3, #32]
  hdma_tx.Init.FIFOMode            = DMA_FIFOMODE_DISABLE;
 800111a:	4b36      	ldr	r3, [pc, #216]	; (80011f4 <HAL_UART_MspInit+0x1c0>)
 800111c:	2200      	movs	r2, #0
 800111e:	625a      	str	r2, [r3, #36]	; 0x24
  hdma_tx.Init.FIFOThreshold       = DMA_FIFO_THRESHOLD_FULL;
 8001120:	4b34      	ldr	r3, [pc, #208]	; (80011f4 <HAL_UART_MspInit+0x1c0>)
 8001122:	2203      	movs	r2, #3
 8001124:	629a      	str	r2, [r3, #40]	; 0x28
  hdma_tx.Init.MemBurst            = DMA_MBURST_INC4;
 8001126:	4b33      	ldr	r3, [pc, #204]	; (80011f4 <HAL_UART_MspInit+0x1c0>)
 8001128:	f44f 0200 	mov.w	r2, #8388608	; 0x800000
 800112c:	62da      	str	r2, [r3, #44]	; 0x2c
  hdma_tx.Init.PeriphBurst         = DMA_PBURST_INC4;
 800112e:	4b31      	ldr	r3, [pc, #196]	; (80011f4 <HAL_UART_MspInit+0x1c0>)
 8001130:	f44f 1200 	mov.w	r2, #2097152	; 0x200000
 8001134:	631a      	str	r2, [r3, #48]	; 0x30
  
  HAL_DMA_Init(&hdma_tx);   
 8001136:	482f      	ldr	r0, [pc, #188]	; (80011f4 <HAL_UART_MspInit+0x1c0>)
 8001138:	f000 fa58 	bl	80015ec <HAL_DMA_Init>
  
  /* Associate the initialized DMA handle to the the UART handle */
  __HAL_LINKDMA(huart, hdmatx, hdma_tx);
 800113c:	687b      	ldr	r3, [r7, #4]
 800113e:	4a2d      	ldr	r2, [pc, #180]	; (80011f4 <HAL_UART_MspInit+0x1c0>)
 8001140:	635a      	str	r2, [r3, #52]	; 0x34
 8001142:	4a2c      	ldr	r2, [pc, #176]	; (80011f4 <HAL_UART_MspInit+0x1c0>)
 8001144:	687b      	ldr	r3, [r7, #4]
 8001146:	6393      	str	r3, [r2, #56]	; 0x38
    
  /* Configure the DMA handler for Transmission process */
  hdma_rx.Instance                 = USARTx_RX_DMA_STREAM;
 8001148:	4b2c      	ldr	r3, [pc, #176]	; (80011fc <HAL_UART_MspInit+0x1c8>)
 800114a:	4a2d      	ldr	r2, [pc, #180]	; (8001200 <HAL_UART_MspInit+0x1cc>)
 800114c:	601a      	str	r2, [r3, #0]
  
  hdma_rx.Init.Channel             = USARTx_RX_DMA_CHANNEL;
 800114e:	4b2b      	ldr	r3, [pc, #172]	; (80011fc <HAL_UART_MspInit+0x1c8>)
 8001150:	f04f 6200 	mov.w	r2, #134217728	; 0x8000000
 8001154:	605a      	str	r2, [r3, #4]
  hdma_rx.Init.Direction           = DMA_PERIPH_TO_MEMORY;
 8001156:	4b29      	ldr	r3, [pc, #164]	; (80011fc <HAL_UART_MspInit+0x1c8>)
 8001158:	2200      	movs	r2, #0
 800115a:	609a      	str	r2, [r3, #8]
  hdma_rx.Init.PeriphInc           = DMA_PINC_DISABLE;
 800115c:	4b27      	ldr	r3, [pc, #156]	; (80011fc <HAL_UART_MspInit+0x1c8>)
 800115e:	2200      	movs	r2, #0
 8001160:	60da      	str	r2, [r3, #12]
  hdma_rx.Init.MemInc              = DMA_MINC_ENABLE;
 8001162:	4b26      	ldr	r3, [pc, #152]	; (80011fc <HAL_UART_MspInit+0x1c8>)
 8001164:	f44f 6280 	mov.w	r2, #1024	; 0x400
 8001168:	611a      	str	r2, [r3, #16]
  hdma_rx.Init.PeriphDataAlignment = DMA_PDATAALIGN_BYTE;
 800116a:	4b24      	ldr	r3, [pc, #144]	; (80011fc <HAL_UART_MspInit+0x1c8>)
 800116c:	2200      	movs	r2, #0
 800116e:	615a      	str	r2, [r3, #20]
  hdma_rx.Init.MemDataAlignment    = DMA_MDATAALIGN_BYTE;
 8001170:	4b22      	ldr	r3, [pc, #136]	; (80011fc <HAL_UART_MspInit+0x1c8>)
 8001172:	2200      	movs	r2, #0
 8001174:	619a      	str	r2, [r3, #24]
  hdma_rx.Init.Mode                = DMA_NORMAL;
 8001176:	4b21      	ldr	r3, [pc, #132]	; (80011fc <HAL_UART_MspInit+0x1c8>)
 8001178:	2200      	movs	r2, #0
 800117a:	61da      	str	r2, [r3, #28]
  hdma_rx.Init.Priority            = DMA_PRIORITY_HIGH;
 800117c:	4b1f      	ldr	r3, [pc, #124]	; (80011fc <HAL_UART_MspInit+0x1c8>)
 800117e:	f44f 3200 	mov.w	r2, #131072	; 0x20000
 8001182:	621a      	str	r2, [r3, #32]
  hdma_rx.Init.FIFOMode            = DMA_FIFOMODE_DISABLE;         
 8001184:	4b1d      	ldr	r3, [pc, #116]	; (80011fc <HAL_UART_MspInit+0x1c8>)
 8001186:	2200      	movs	r2, #0
 8001188:	625a      	str	r2, [r3, #36]	; 0x24
  hdma_rx.Init.FIFOThreshold       = DMA_FIFO_THRESHOLD_FULL;
 800118a:	4b1c      	ldr	r3, [pc, #112]	; (80011fc <HAL_UART_MspInit+0x1c8>)
 800118c:	2203      	movs	r2, #3
 800118e:	629a      	str	r2, [r3, #40]	; 0x28
  hdma_rx.Init.MemBurst            = DMA_MBURST_INC4;
 8001190:	4b1a      	ldr	r3, [pc, #104]	; (80011fc <HAL_UART_MspInit+0x1c8>)
 8001192:	f44f 0200 	mov.w	r2, #8388608	; 0x800000
 8001196:	62da      	str	r2, [r3, #44]	; 0x2c
  hdma_rx.Init.PeriphBurst         = DMA_PBURST_INC4; 
 8001198:	4b18      	ldr	r3, [pc, #96]	; (80011fc <HAL_UART_MspInit+0x1c8>)
 800119a:	f44f 1200 	mov.w	r2, #2097152	; 0x200000
 800119e:	631a      	str	r2, [r3, #48]	; 0x30

  HAL_DMA_Init(&hdma_rx);
 80011a0:	4816      	ldr	r0, [pc, #88]	; (80011fc <HAL_UART_MspInit+0x1c8>)
 80011a2:	f000 fa23 	bl	80015ec <HAL_DMA_Init>
    
  /* Associate the initialized DMA handle to the the UART handle */
  __HAL_LINKDMA(huart, hdmarx, hdma_rx);
 80011a6:	687b      	ldr	r3, [r7, #4]
 80011a8:	4a14      	ldr	r2, [pc, #80]	; (80011fc <HAL_UART_MspInit+0x1c8>)
 80011aa:	639a      	str	r2, [r3, #56]	; 0x38
 80011ac:	4a13      	ldr	r2, [pc, #76]	; (80011fc <HAL_UART_MspInit+0x1c8>)
 80011ae:	687b      	ldr	r3, [r7, #4]
 80011b0:	6393      	str	r3, [r2, #56]	; 0x38
    
  /*##-4- Configure the NVIC for DMA #########################################*/
  /* NVIC configuration for DMA transfer complete interrupt (USARTx_TX) */
  HAL_NVIC_SetPriority(USARTx_DMA_TX_IRQn, 0, 1);
 80011b2:	2201      	movs	r2, #1
 80011b4:	2100      	movs	r1, #0
 80011b6:	2011      	movs	r0, #17
 80011b8:	f000 f9af 	bl	800151a <HAL_NVIC_SetPriority>
  HAL_NVIC_EnableIRQ(USARTx_DMA_TX_IRQn);
 80011bc:	2011      	movs	r0, #17
 80011be:	f000 f9c8 	bl	8001552 <HAL_NVIC_EnableIRQ>
    
  /* NVIC configuration for DMA transfer complete interrupt (USARTx_RX) */
  HAL_NVIC_SetPriority(USARTx_DMA_RX_IRQn, 0, 0);   
 80011c2:	2200      	movs	r2, #0
 80011c4:	2100      	movs	r1, #0
 80011c6:	2010      	movs	r0, #16
 80011c8:	f000 f9a7 	bl	800151a <HAL_NVIC_SetPriority>
  HAL_NVIC_EnableIRQ(USARTx_DMA_RX_IRQn);
 80011cc:	2010      	movs	r0, #16
 80011ce:	f000 f9c0 	bl	8001552 <HAL_NVIC_EnableIRQ>
  
  /* NVIC configuration for USART TC interrupt */
  HAL_NVIC_SetPriority(USARTx_IRQn, 0, 0);
 80011d2:	2200      	movs	r2, #0
 80011d4:	2100      	movs	r1, #0
 80011d6:	2026      	movs	r0, #38	; 0x26
 80011d8:	f000 f99f 	bl	800151a <HAL_NVIC_SetPriority>
  HAL_NVIC_EnableIRQ(USARTx_IRQn);
 80011dc:	2026      	movs	r0, #38	; 0x26
 80011de:	f000 f9b8 	bl	8001552 <HAL_NVIC_EnableIRQ>
}
 80011e2:	bf00      	nop
 80011e4:	3730      	adds	r7, #48	; 0x30
 80011e6:	46bd      	mov	sp, r7
 80011e8:	bd80      	pop	{r7, pc}
 80011ea:	bf00      	nop
 80011ec:	40023800 	andmi	r3, r2, r0, lsl #16
 80011f0:	40020000 	andmi	r0, r2, r0
 80011f4:	2000053c 	andcs	r0, r0, ip, lsr r5
 80011f8:	400260a0 	andmi	r6, r2, r0, lsr #1
 80011fc:	2000059c 	mulcs	r0, ip, r5
 8001200:	40026088 	andmi	r6, r2, r8, lsl #1

08001204 <SVC_Handler>:
  * @brief  This function handles SVCall exception.
  * @param  None
  * @retval None
  */
void SVC_Handler(void)
{
 8001204:	b580      	push	{r7, lr}
 8001206:	af00      	add	r7, sp, #0
  printf("[%s] \n", __func__);
 8001208:	4902      	ldr	r1, [pc, #8]	; (8001214 <SVC_Handler+0x10>)
 800120a:	4803      	ldr	r0, [pc, #12]	; (8001218 <SVC_Handler+0x14>)
 800120c:	f001 ff9e 	bl	800314c <printf_>
}
 8001210:	bf00      	nop
 8001212:	bd80      	pop	{r7, pc}
 8001214:	080056e8 	stmdaeq	r0, {r3, r5, r6, r7, r9, sl, ip, lr}
 8001218:	08004af8 	stmdaeq	r0, {r3, r4, r5, r6, r7, r9, fp, lr}

0800121c <DebugMon_Handler>:
  * @brief  This function handles Debug Monitor exception.
  * @param  None
  * @retval None
  */
void DebugMon_Handler(void)
{
 800121c:	b480      	push	{r7}
 800121e:	af00      	add	r7, sp, #0
  
}
 8001220:	bf00      	nop
 8001222:	46bd      	mov	sp, r7
 8001224:	bc80      	pop	{r7}
 8001226:	4770      	bx	lr

08001228 <SystemInit>:
  *         configuration.
  * @param  None
  * @retval None
  */
void SystemInit(void)
{
 8001228:	b480      	push	{r7}
 800122a:	af00      	add	r7, sp, #0
  #if (__FPU_PRESENT == 1) && (__FPU_USED == 1)
    SCB->CPACR |= ((3UL << 10*2)|(3UL << 11*2));  /* set CP10 and CP11 Full Access */
  #endif
  /* Reset the RCC clock configuration to the default reset state ------------*/
  /* Set HSION bit */
  RCC->CR |= (uint32_t)0x00000001;
 800122c:	4b12      	ldr	r3, [pc, #72]	; (8001278 <SystemInit+0x50>)
 800122e:	681b      	ldr	r3, [r3, #0]
 8001230:	4a11      	ldr	r2, [pc, #68]	; (8001278 <SystemInit+0x50>)
 8001232:	f043 0301 	orr.w	r3, r3, #1
 8001236:	6013      	str	r3, [r2, #0]

  /* Reset CFGR register */
  RCC->CFGR = 0x00000000;
 8001238:	4b0f      	ldr	r3, [pc, #60]	; (8001278 <SystemInit+0x50>)
 800123a:	2200      	movs	r2, #0
 800123c:	609a      	str	r2, [r3, #8]

  /* Reset HSEON, CSSON and PLLON bits */
  RCC->CR &= (uint32_t)0xFEF6FFFF;
 800123e:	4b0e      	ldr	r3, [pc, #56]	; (8001278 <SystemInit+0x50>)
 8001240:	681b      	ldr	r3, [r3, #0]
 8001242:	4a0d      	ldr	r2, [pc, #52]	; (8001278 <SystemInit+0x50>)
 8001244:	f023 7384 	bic.w	r3, r3, #17301504	; 0x1080000
 8001248:	f423 3380 	bic.w	r3, r3, #65536	; 0x10000
 800124c:	6013      	str	r3, [r2, #0]

  /* Reset PLLCFGR register */
  RCC->PLLCFGR = 0x24003010;
 800124e:	4b0a      	ldr	r3, [pc, #40]	; (8001278 <SystemInit+0x50>)
 8001250:	4a0a      	ldr	r2, [pc, #40]	; (800127c <SystemInit+0x54>)
 8001252:	605a      	str	r2, [r3, #4]

  /* Reset HSEBYP bit */
  RCC->CR &= (uint32_t)0xFFFBFFFF;
 8001254:	4b08      	ldr	r3, [pc, #32]	; (8001278 <SystemInit+0x50>)
 8001256:	681b      	ldr	r3, [r3, #0]
 8001258:	4a07      	ldr	r2, [pc, #28]	; (8001278 <SystemInit+0x50>)
 800125a:	f423 2380 	bic.w	r3, r3, #262144	; 0x40000
 800125e:	6013      	str	r3, [r2, #0]

  /* Disable all interrupts */
  RCC->CIR = 0x00000000;
 8001260:	4b05      	ldr	r3, [pc, #20]	; (8001278 <SystemInit+0x50>)
 8001262:	2200      	movs	r2, #0
 8001264:	60da      	str	r2, [r3, #12]

  /* Configure the Vector Table location add offset address ------------------*/
#ifdef VECT_TAB_SRAM
  SCB->VTOR = SRAM_BASE | VECT_TAB_OFFSET; /* Vector Table Relocation in Internal SRAM */
#else
  SCB->VTOR = FLASH_BASE | VECT_TAB_OFFSET; /* Vector Table Relocation in Internal FLASH */
 8001266:	4b06      	ldr	r3, [pc, #24]	; (8001280 <SystemInit+0x58>)
 8001268:	f04f 6200 	mov.w	r2, #134217728	; 0x8000000
 800126c:	609a      	str	r2, [r3, #8]
#endif
}
 800126e:	bf00      	nop
 8001270:	46bd      	mov	sp, r7
 8001272:	bc80      	pop	{r7}
 8001274:	4770      	bx	lr
 8001276:	bf00      	nop
 8001278:	40023800 	andmi	r3, r2, r0, lsl #16
 800127c:	24003010 	strcs	r3, [r0], #-16
 8001280:	e000ed00 	and	lr, r0, r0, lsl #26

08001284 <HAL_Init>:
  *         need to ensure that the SysTick time base is always set to 1 millisecond
  *         to have correct HAL operation.
  * @retval HAL status
  */
HAL_StatusTypeDef HAL_Init(void)
{
 8001284:	b580      	push	{r7, lr}
 8001286:	af00      	add	r7, sp, #0
  /* Configure Flash prefetch, Instruction cache, Data cache */ 
#if (INSTRUCTION_CACHE_ENABLE != 0U)
  __HAL_FLASH_INSTRUCTION_CACHE_ENABLE();
 8001288:	4b0e      	ldr	r3, [pc, #56]	; (80012c4 <HAL_Init+0x40>)
 800128a:	681b      	ldr	r3, [r3, #0]
 800128c:	4a0d      	ldr	r2, [pc, #52]	; (80012c4 <HAL_Init+0x40>)
 800128e:	f443 7300 	orr.w	r3, r3, #512	; 0x200
 8001292:	6013      	str	r3, [r2, #0]
#endif /* INSTRUCTION_CACHE_ENABLE */

#if (DATA_CACHE_ENABLE != 0U)
  __HAL_FLASH_DATA_CACHE_ENABLE();
 8001294:	4b0b      	ldr	r3, [pc, #44]	; (80012c4 <HAL_Init+0x40>)
 8001296:	681b      	ldr	r3, [r3, #0]
 8001298:	4a0a      	ldr	r2, [pc, #40]	; (80012c4 <HAL_Init+0x40>)
 800129a:	f443 6380 	orr.w	r3, r3, #1024	; 0x400
 800129e:	6013      	str	r3, [r2, #0]
#endif /* DATA_CACHE_ENABLE */

#if (PREFETCH_ENABLE != 0U)
  __HAL_FLASH_PREFETCH_BUFFER_ENABLE();
 80012a0:	4b08      	ldr	r3, [pc, #32]	; (80012c4 <HAL_Init+0x40>)
 80012a2:	681b      	ldr	r3, [r3, #0]
 80012a4:	4a07      	ldr	r2, [pc, #28]	; (80012c4 <HAL_Init+0x40>)
 80012a6:	f443 7380 	orr.w	r3, r3, #256	; 0x100
 80012aa:	6013      	str	r3, [r2, #0]
#endif /* PREFETCH_ENABLE */

  /* Set Interrupt Group Priority */
  HAL_NVIC_SetPriorityGrouping(NVIC_PRIORITYGROUP_4);
 80012ac:	2003      	movs	r0, #3
 80012ae:	f000 f929 	bl	8001504 <HAL_NVIC_SetPriorityGrouping>

  /* Use systick as time base source and configure 1ms tick (default clock after Reset is HSI) */
  HAL_InitTick(TICK_INT_PRIORITY);
 80012b2:	200f      	movs	r0, #15
 80012b4:	f000 f808 	bl	80012c8 <HAL_InitTick>

  /* Init the low level hardware */
  HAL_MspInit();
 80012b8:	f000 f852 	bl	8001360 <HAL_MspInit>

  /* Return function status */
  return HAL_OK;
 80012bc:	2300      	movs	r3, #0
}
 80012be:	4618      	mov	r0, r3
 80012c0:	bd80      	pop	{r7, pc}
 80012c2:	bf00      	nop
 80012c4:	40023c00 	andmi	r3, r2, r0, lsl #24

080012c8 <HAL_InitTick>:
  *       implementation  in user file.
  * @param TickPriority Tick interrupt priority.
  * @retval HAL status
  */
__weak HAL_StatusTypeDef HAL_InitTick(uint32_t TickPriority)
{
 80012c8:	b580      	push	{r7, lr}
 80012ca:	b082      	sub	sp, #8
 80012cc:	af00      	add	r7, sp, #0
 80012ce:	6078      	str	r0, [r7, #4]
  /* Configure the SysTick to have interrupt in 1ms time basis*/
  if (HAL_SYSTICK_Config(SystemCoreClock / (1000U / uwTickFreq)) > 0U)
 80012d0:	4b12      	ldr	r3, [pc, #72]	; (800131c <HAL_InitTick+0x54>)
 80012d2:	681a      	ldr	r2, [r3, #0]
 80012d4:	4b12      	ldr	r3, [pc, #72]	; (8001320 <HAL_InitTick+0x58>)
 80012d6:	781b      	ldrb	r3, [r3, #0]
 80012d8:	4619      	mov	r1, r3
 80012da:	f44f 737a 	mov.w	r3, #1000	; 0x3e8
 80012de:	fbb3 f3f1 	udiv	r3, r3, r1
 80012e2:	fbb2 f3f3 	udiv	r3, r2, r3
 80012e6:	4618      	mov	r0, r3
 80012e8:	f000 f941 	bl	800156e <HAL_SYSTICK_Config>
 80012ec:	4603      	mov	r3, r0
 80012ee:	2b00      	cmp	r3, #0
 80012f0:	d001      	beq.n	80012f6 <HAL_InitTick+0x2e>
  {
    return HAL_ERROR;
 80012f2:	2301      	movs	r3, #1
 80012f4:	e00e      	b.n	8001314 <HAL_InitTick+0x4c>
  }

  /* Configure the SysTick IRQ priority */
  if (TickPriority < (1UL << __NVIC_PRIO_BITS))
 80012f6:	687b      	ldr	r3, [r7, #4]
 80012f8:	2b0f      	cmp	r3, #15
 80012fa:	d80a      	bhi.n	8001312 <HAL_InitTick+0x4a>
  {
    HAL_NVIC_SetPriority(SysTick_IRQn, TickPriority, 0U);
 80012fc:	2200      	movs	r2, #0
 80012fe:	6879      	ldr	r1, [r7, #4]
 8001300:	f04f 30ff 	mov.w	r0, #4294967295	; 0xffffffff
 8001304:	f000 f909 	bl	800151a <HAL_NVIC_SetPriority>
    uwTickPrio = TickPriority;
 8001308:	4a06      	ldr	r2, [pc, #24]	; (8001324 <HAL_InitTick+0x5c>)
 800130a:	687b      	ldr	r3, [r7, #4]
 800130c:	6013      	str	r3, [r2, #0]
  {
    return HAL_ERROR;
  }

  /* Return function status */
  return HAL_OK;
 800130e:	2300      	movs	r3, #0
 8001310:	e000      	b.n	8001314 <HAL_InitTick+0x4c>
    return HAL_ERROR;
 8001312:	2301      	movs	r3, #1
}
 8001314:	4618      	mov	r0, r3
 8001316:	3708      	adds	r7, #8
 8001318:	46bd      	mov	sp, r7
 800131a:	bd80      	pop	{r7, pc}
 800131c:	20000430 	andcs	r0, r0, r0, lsr r4
 8001320:	20000438 	andcs	r0, r0, r8, lsr r4
 8001324:	20000434 	andcs	r0, r0, r4, lsr r4

08001328 <HAL_IncTick>:
 * @note This function is declared as __weak to be overwritten in case of other 
  *      implementations in user file.
  * @retval None
  */
__weak void HAL_IncTick(void)
{
 8001328:	b480      	push	{r7}
 800132a:	af00      	add	r7, sp, #0
  uwTick += uwTickFreq;
 800132c:	4b05      	ldr	r3, [pc, #20]	; (8001344 <HAL_IncTick+0x1c>)
 800132e:	781b      	ldrb	r3, [r3, #0]
 8001330:	461a      	mov	r2, r3
 8001332:	4b05      	ldr	r3, [pc, #20]	; (8001348 <HAL_IncTick+0x20>)
 8001334:	681b      	ldr	r3, [r3, #0]
 8001336:	4413      	add	r3, r2
 8001338:	4a03      	ldr	r2, [pc, #12]	; (8001348 <HAL_IncTick+0x20>)
 800133a:	6013      	str	r3, [r2, #0]
}
 800133c:	bf00      	nop
 800133e:	46bd      	mov	sp, r7
 8001340:	bc80      	pop	{r7}
 8001342:	4770      	bx	lr
 8001344:	20000438 	andcs	r0, r0, r8, lsr r4
 8001348:	20001788 	andcs	r1, r0, r8, lsl #15

0800134c <HAL_GetTick>:
  * @note This function is declared as __weak to be overwritten in case of other 
  *       implementations in user file.
  * @retval tick value
  */
__weak uint32_t HAL_GetTick(void)
{
 800134c:	b480      	push	{r7}
 800134e:	af00      	add	r7, sp, #0
  return uwTick;
 8001350:	4b02      	ldr	r3, [pc, #8]	; (800135c <HAL_GetTick+0x10>)
 8001352:	681b      	ldr	r3, [r3, #0]
}
 8001354:	4618      	mov	r0, r3
 8001356:	46bd      	mov	sp, r7
 8001358:	bc80      	pop	{r7}
 800135a:	4770      	bx	lr
 800135c:	20001788 	andcs	r1, r0, r8, lsl #15

08001360 <HAL_MspInit>:
  * @note   This function is called from HAL_Init() function to perform system
  *         level initialization (GPIOs, clock, DMA, interrupt).
  * @retval None
  */
void HAL_MspInit(void)
{
 8001360:	b480      	push	{r7}
 8001362:	af00      	add	r7, sp, #0

}
 8001364:	bf00      	nop
 8001366:	46bd      	mov	sp, r7
 8001368:	bc80      	pop	{r7}
 800136a:	4770      	bx	lr

0800136c <__NVIC_SetPriorityGrouping>:
           In case of a conflict between priority grouping and available
           priority bits (__NVIC_PRIO_BITS), the smallest possible priority group is set.
  \param [in]      PriorityGroup  Priority grouping field.
 */
__STATIC_INLINE void __NVIC_SetPriorityGrouping(uint32_t PriorityGroup)
{
 800136c:	b480      	push	{r7}
 800136e:	b085      	sub	sp, #20
 8001370:	af00      	add	r7, sp, #0
 8001372:	6078      	str	r0, [r7, #4]
  uint32_t reg_value;
  uint32_t PriorityGroupTmp = (PriorityGroup & (uint32_t)0x07UL);             /* only values 0..7 are used          */
 8001374:	687b      	ldr	r3, [r7, #4]
 8001376:	f003 0307 	and.w	r3, r3, #7
 800137a:	60fb      	str	r3, [r7, #12]

  reg_value  =  SCB->AIRCR;                                                   /* read old register configuration    */
 800137c:	4b0c      	ldr	r3, [pc, #48]	; (80013b0 <__NVIC_SetPriorityGrouping+0x44>)
 800137e:	68db      	ldr	r3, [r3, #12]
 8001380:	60bb      	str	r3, [r7, #8]
  reg_value &= ~((uint32_t)(SCB_AIRCR_VECTKEY_Msk | SCB_AIRCR_PRIGROUP_Msk)); /* clear bits to change               */
 8001382:	68ba      	ldr	r2, [r7, #8]
 8001384:	f64f 03ff 	movw	r3, #63743	; 0xf8ff
 8001388:	4013      	ands	r3, r2
 800138a:	60bb      	str	r3, [r7, #8]
  reg_value  =  (reg_value                                   |
                ((uint32_t)0x5FAUL << SCB_AIRCR_VECTKEY_Pos) |
                (PriorityGroupTmp << SCB_AIRCR_PRIGROUP_Pos)  );              /* Insert write key and priority group */
 800138c:	68fb      	ldr	r3, [r7, #12]
 800138e:	021a      	lsls	r2, r3, #8
                ((uint32_t)0x5FAUL << SCB_AIRCR_VECTKEY_Pos) |
 8001390:	68bb      	ldr	r3, [r7, #8]
 8001392:	4313      	orrs	r3, r2
  reg_value  =  (reg_value                                   |
 8001394:	f043 63bf 	orr.w	r3, r3, #100139008	; 0x5f80000
 8001398:	f443 3300 	orr.w	r3, r3, #131072	; 0x20000
 800139c:	60bb      	str	r3, [r7, #8]
  SCB->AIRCR =  reg_value;
 800139e:	4a04      	ldr	r2, [pc, #16]	; (80013b0 <__NVIC_SetPriorityGrouping+0x44>)
 80013a0:	68bb      	ldr	r3, [r7, #8]
 80013a2:	60d3      	str	r3, [r2, #12]
}
 80013a4:	bf00      	nop
 80013a6:	3714      	adds	r7, #20
 80013a8:	46bd      	mov	sp, r7
 80013aa:	bc80      	pop	{r7}
 80013ac:	4770      	bx	lr
 80013ae:	bf00      	nop
 80013b0:	e000ed00 	and	lr, r0, r0, lsl #26

080013b4 <__NVIC_GetPriorityGrouping>:
  \brief   Get Priority Grouping
  \details Reads the priority grouping field from the NVIC Interrupt Controller.
  \return                Priority grouping field (SCB->AIRCR [10:8] PRIGROUP field).
 */
__STATIC_INLINE uint32_t __NVIC_GetPriorityGrouping(void)
{
 80013b4:	b480      	push	{r7}
 80013b6:	af00      	add	r7, sp, #0
  return ((uint32_t)((SCB->AIRCR & SCB_AIRCR_PRIGROUP_Msk) >> SCB_AIRCR_PRIGROUP_Pos));
 80013b8:	4b04      	ldr	r3, [pc, #16]	; (80013cc <__NVIC_GetPriorityGrouping+0x18>)
 80013ba:	68db      	ldr	r3, [r3, #12]
 80013bc:	0a1b      	lsrs	r3, r3, #8
 80013be:	f003 0307 	and.w	r3, r3, #7
}
 80013c2:	4618      	mov	r0, r3
 80013c4:	46bd      	mov	sp, r7
 80013c6:	bc80      	pop	{r7}
 80013c8:	4770      	bx	lr
 80013ca:	bf00      	nop
 80013cc:	e000ed00 	and	lr, r0, r0, lsl #26

080013d0 <__NVIC_EnableIRQ>:
  \details Enables a device specific interrupt in the NVIC interrupt controller.
  \param [in]      IRQn  Device specific interrupt number.
  \note    IRQn must not be negative.
 */
__STATIC_INLINE void __NVIC_EnableIRQ(IRQn_Type IRQn)
{
 80013d0:	b480      	push	{r7}
 80013d2:	b083      	sub	sp, #12
 80013d4:	af00      	add	r7, sp, #0
 80013d6:	4603      	mov	r3, r0
 80013d8:	71fb      	strb	r3, [r7, #7]
  if ((int32_t)(IRQn) >= 0)
 80013da:	f997 3007 	ldrsb.w	r3, [r7, #7]
 80013de:	2b00      	cmp	r3, #0
 80013e0:	db0b      	blt.n	80013fa <__NVIC_EnableIRQ+0x2a>
  {
    NVIC->ISER[(((uint32_t)IRQn) >> 5UL)] = (uint32_t)(1UL << (((uint32_t)IRQn) & 0x1FUL));
 80013e2:	79fb      	ldrb	r3, [r7, #7]
 80013e4:	f003 021f 	and.w	r2, r3, #31
 80013e8:	4906      	ldr	r1, [pc, #24]	; (8001404 <__NVIC_EnableIRQ+0x34>)
 80013ea:	f997 3007 	ldrsb.w	r3, [r7, #7]
 80013ee:	095b      	lsrs	r3, r3, #5
 80013f0:	2001      	movs	r0, #1
 80013f2:	fa00 f202 	lsl.w	r2, r0, r2
 80013f6:	f841 2023 	str.w	r2, [r1, r3, lsl #2]
  }
}
 80013fa:	bf00      	nop
 80013fc:	370c      	adds	r7, #12
 80013fe:	46bd      	mov	sp, r7
 8001400:	bc80      	pop	{r7}
 8001402:	4770      	bx	lr
 8001404:	e000e100 	and	lr, r0, r0, lsl #2

08001408 <__NVIC_SetPriority>:
  \param [in]      IRQn  Interrupt number.
  \param [in]  priority  Priority to set.
  \note    The priority cannot be set for every processor exception.
 */
__STATIC_INLINE void __NVIC_SetPriority(IRQn_Type IRQn, uint32_t priority)
{
 8001408:	b480      	push	{r7}
 800140a:	b083      	sub	sp, #12
 800140c:	af00      	add	r7, sp, #0
 800140e:	4603      	mov	r3, r0
 8001410:	6039      	str	r1, [r7, #0]
 8001412:	71fb      	strb	r3, [r7, #7]
  if ((int32_t)(IRQn) >= 0)
 8001414:	f997 3007 	ldrsb.w	r3, [r7, #7]
 8001418:	2b00      	cmp	r3, #0
 800141a:	db0a      	blt.n	8001432 <__NVIC_SetPriority+0x2a>
  {
    NVIC->IP[((uint32_t)IRQn)]               = (uint8_t)((priority << (8U - __NVIC_PRIO_BITS)) & (uint32_t)0xFFUL);
 800141c:	683b      	ldr	r3, [r7, #0]
 800141e:	b2da      	uxtb	r2, r3
 8001420:	490c      	ldr	r1, [pc, #48]	; (8001454 <__NVIC_SetPriority+0x4c>)
 8001422:	f997 3007 	ldrsb.w	r3, [r7, #7]
 8001426:	0112      	lsls	r2, r2, #4
 8001428:	b2d2      	uxtb	r2, r2
 800142a:	440b      	add	r3, r1
 800142c:	f883 2300 	strb.w	r2, [r3, #768]	; 0x300
  }
  else
  {
    SCB->SHP[(((uint32_t)IRQn) & 0xFUL)-4UL] = (uint8_t)((priority << (8U - __NVIC_PRIO_BITS)) & (uint32_t)0xFFUL);
  }
}
 8001430:	e00a      	b.n	8001448 <__NVIC_SetPriority+0x40>
    SCB->SHP[(((uint32_t)IRQn) & 0xFUL)-4UL] = (uint8_t)((priority << (8U - __NVIC_PRIO_BITS)) & (uint32_t)0xFFUL);
 8001432:	683b      	ldr	r3, [r7, #0]
 8001434:	b2da      	uxtb	r2, r3
 8001436:	4908      	ldr	r1, [pc, #32]	; (8001458 <__NVIC_SetPriority+0x50>)
 8001438:	79fb      	ldrb	r3, [r7, #7]
 800143a:	f003 030f 	and.w	r3, r3, #15
 800143e:	3b04      	subs	r3, #4
 8001440:	0112      	lsls	r2, r2, #4
 8001442:	b2d2      	uxtb	r2, r2
 8001444:	440b      	add	r3, r1
 8001446:	761a      	strb	r2, [r3, #24]
}
 8001448:	bf00      	nop
 800144a:	370c      	adds	r7, #12
 800144c:	46bd      	mov	sp, r7
 800144e:	bc80      	pop	{r7}
 8001450:	4770      	bx	lr
 8001452:	bf00      	nop
 8001454:	e000e100 	and	lr, r0, r0, lsl #2
 8001458:	e000ed00 	and	lr, r0, r0, lsl #26

0800145c <NVIC_EncodePriority>:
  \param [in]   PreemptPriority  Preemptive priority value (starting from 0).
  \param [in]       SubPriority  Subpriority value (starting from 0).
  \return                        Encoded priority. Value can be used in the function \ref NVIC_SetPriority().
 */
__STATIC_INLINE uint32_t NVIC_EncodePriority (uint32_t PriorityGroup, uint32_t PreemptPriority, uint32_t SubPriority)
{
 800145c:	b480      	push	{r7}
 800145e:	b089      	sub	sp, #36	; 0x24
 8001460:	af00      	add	r7, sp, #0
 8001462:	60f8      	str	r0, [r7, #12]
 8001464:	60b9      	str	r1, [r7, #8]
 8001466:	607a      	str	r2, [r7, #4]
  uint32_t PriorityGroupTmp = (PriorityGroup & (uint32_t)0x07UL);   /* only values 0..7 are used          */
 8001468:	68fb      	ldr	r3, [r7, #12]
 800146a:	f003 0307 	and.w	r3, r3, #7
 800146e:	61fb      	str	r3, [r7, #28]
  uint32_t PreemptPriorityBits;
  uint32_t SubPriorityBits;

  PreemptPriorityBits = ((7UL - PriorityGroupTmp) > (uint32_t)(__NVIC_PRIO_BITS)) ? (uint32_t)(__NVIC_PRIO_BITS) : (uint32_t)(7UL - PriorityGroupTmp);
 8001470:	69fb      	ldr	r3, [r7, #28]
 8001472:	f1c3 0307 	rsb	r3, r3, #7
 8001476:	2b04      	cmp	r3, #4
 8001478:	bf28      	it	cs
 800147a:	2304      	movcs	r3, #4
 800147c:	61bb      	str	r3, [r7, #24]
  SubPriorityBits     = ((PriorityGroupTmp + (uint32_t)(__NVIC_PRIO_BITS)) < (uint32_t)7UL) ? (uint32_t)0UL : (uint32_t)((PriorityGroupTmp - 7UL) + (uint32_t)(__NVIC_PRIO_BITS));
 800147e:	69fb      	ldr	r3, [r7, #28]
 8001480:	3304      	adds	r3, #4
 8001482:	2b06      	cmp	r3, #6
 8001484:	d902      	bls.n	800148c <NVIC_EncodePriority+0x30>
 8001486:	69fb      	ldr	r3, [r7, #28]
 8001488:	3b03      	subs	r3, #3
 800148a:	e000      	b.n	800148e <NVIC_EncodePriority+0x32>
 800148c:	2300      	movs	r3, #0
 800148e:	617b      	str	r3, [r7, #20]

  return (
           ((PreemptPriority & (uint32_t)((1UL << (PreemptPriorityBits)) - 1UL)) << SubPriorityBits) |
 8001490:	f04f 32ff 	mov.w	r2, #4294967295	; 0xffffffff
 8001494:	69bb      	ldr	r3, [r7, #24]
 8001496:	fa02 f303 	lsl.w	r3, r2, r3
 800149a:	43da      	mvns	r2, r3
 800149c:	68bb      	ldr	r3, [r7, #8]
 800149e:	401a      	ands	r2, r3
 80014a0:	697b      	ldr	r3, [r7, #20]
 80014a2:	409a      	lsls	r2, r3
           ((SubPriority     & (uint32_t)((1UL << (SubPriorityBits    )) - 1UL)))
 80014a4:	f04f 31ff 	mov.w	r1, #4294967295	; 0xffffffff
 80014a8:	697b      	ldr	r3, [r7, #20]
 80014aa:	fa01 f303 	lsl.w	r3, r1, r3
 80014ae:	43d9      	mvns	r1, r3
 80014b0:	687b      	ldr	r3, [r7, #4]
 80014b2:	400b      	ands	r3, r1
           ((PreemptPriority & (uint32_t)((1UL << (PreemptPriorityBits)) - 1UL)) << SubPriorityBits) |
 80014b4:	4313      	orrs	r3, r2
         );
}
 80014b6:	4618      	mov	r0, r3
 80014b8:	3724      	adds	r7, #36	; 0x24
 80014ba:	46bd      	mov	sp, r7
 80014bc:	bc80      	pop	{r7}
 80014be:	4770      	bx	lr

080014c0 <SysTick_Config>:
  \note    When the variable <b>__Vendor_SysTickConfig</b> is set to 1, then the
           function <b>SysTick_Config</b> is not included. In this case, the file <b><i>device</i>.h</b>
           must contain a vendor-specific implementation of this function.
 */
__STATIC_INLINE uint32_t SysTick_Config(uint32_t ticks)
{
 80014c0:	b580      	push	{r7, lr}
 80014c2:	b082      	sub	sp, #8
 80014c4:	af00      	add	r7, sp, #0
 80014c6:	6078      	str	r0, [r7, #4]
  if ((ticks - 1UL) > SysTick_LOAD_RELOAD_Msk)
 80014c8:	687b      	ldr	r3, [r7, #4]
 80014ca:	3b01      	subs	r3, #1
 80014cc:	f1b3 7f80 	cmp.w	r3, #16777216	; 0x1000000
 80014d0:	d301      	bcc.n	80014d6 <SysTick_Config+0x16>
  {
    return (1UL);                                                   /* Reload value impossible */
 80014d2:	2301      	movs	r3, #1
 80014d4:	e00f      	b.n	80014f6 <SysTick_Config+0x36>
  }

  SysTick->LOAD  = (uint32_t)(ticks - 1UL);                         /* set reload register */
 80014d6:	4a0a      	ldr	r2, [pc, #40]	; (8001500 <SysTick_Config+0x40>)
 80014d8:	687b      	ldr	r3, [r7, #4]
 80014da:	3b01      	subs	r3, #1
 80014dc:	6053      	str	r3, [r2, #4]
  NVIC_SetPriority (SysTick_IRQn, (1UL << __NVIC_PRIO_BITS) - 1UL); /* set Priority for Systick Interrupt */
 80014de:	210f      	movs	r1, #15
 80014e0:	f04f 30ff 	mov.w	r0, #4294967295	; 0xffffffff
 80014e4:	f7ff ff90 	bl	8001408 <__NVIC_SetPriority>
  SysTick->VAL   = 0UL;                                             /* Load the SysTick Counter Value */
 80014e8:	4b05      	ldr	r3, [pc, #20]	; (8001500 <SysTick_Config+0x40>)
 80014ea:	2200      	movs	r2, #0
 80014ec:	609a      	str	r2, [r3, #8]
  SysTick->CTRL  = SysTick_CTRL_CLKSOURCE_Msk |
 80014ee:	4b04      	ldr	r3, [pc, #16]	; (8001500 <SysTick_Config+0x40>)
 80014f0:	2207      	movs	r2, #7
 80014f2:	601a      	str	r2, [r3, #0]
                   SysTick_CTRL_TICKINT_Msk   |
                   SysTick_CTRL_ENABLE_Msk;                         /* Enable SysTick IRQ and SysTick Timer */
  return (0UL);                                                     /* Function successful */
 80014f4:	2300      	movs	r3, #0
}
 80014f6:	4618      	mov	r0, r3
 80014f8:	3708      	adds	r7, #8
 80014fa:	46bd      	mov	sp, r7
 80014fc:	bd80      	pop	{r7, pc}
 80014fe:	bf00      	nop
 8001500:	e000e010 	and	lr, r0, r0, lsl r0

08001504 <HAL_NVIC_SetPriorityGrouping>:
  * @note   When the NVIC_PriorityGroup_0 is selected, IRQ preemption is no more possible. 
  *         The pending IRQ priority will be managed only by the subpriority. 
  * @retval None
  */
void HAL_NVIC_SetPriorityGrouping(uint32_t PriorityGroup)
{
 8001504:	b580      	push	{r7, lr}
 8001506:	b082      	sub	sp, #8
 8001508:	af00      	add	r7, sp, #0
 800150a:	6078      	str	r0, [r7, #4]
  /* Check the parameters */
  assert_param(IS_NVIC_PRIORITY_GROUP(PriorityGroup));
  
  /* Set the PRIGROUP[10:8] bits according to the PriorityGroup parameter value */
  NVIC_SetPriorityGrouping(PriorityGroup);
 800150c:	6878      	ldr	r0, [r7, #4]
 800150e:	f7ff ff2d 	bl	800136c <__NVIC_SetPriorityGrouping>
}
 8001512:	bf00      	nop
 8001514:	3708      	adds	r7, #8
 8001516:	46bd      	mov	sp, r7
 8001518:	bd80      	pop	{r7, pc}

0800151a <HAL_NVIC_SetPriority>:
  *         This parameter can be a value between 0 and 15
  *         A lower priority value indicates a higher priority.          
  * @retval None
  */
void HAL_NVIC_SetPriority(IRQn_Type IRQn, uint32_t PreemptPriority, uint32_t SubPriority)
{ 
 800151a:	b580      	push	{r7, lr}
 800151c:	b086      	sub	sp, #24
 800151e:	af00      	add	r7, sp, #0
 8001520:	4603      	mov	r3, r0
 8001522:	60b9      	str	r1, [r7, #8]
 8001524:	607a      	str	r2, [r7, #4]
 8001526:	73fb      	strb	r3, [r7, #15]
  uint32_t prioritygroup = 0x00U;
 8001528:	2300      	movs	r3, #0
 800152a:	617b      	str	r3, [r7, #20]
  
  /* Check the parameters */
  assert_param(IS_NVIC_SUB_PRIORITY(SubPriority));
  assert_param(IS_NVIC_PREEMPTION_PRIORITY(PreemptPriority));
  
  prioritygroup = NVIC_GetPriorityGrouping();
 800152c:	f7ff ff42 	bl	80013b4 <__NVIC_GetPriorityGrouping>
 8001530:	6178      	str	r0, [r7, #20]
  
  NVIC_SetPriority(IRQn, NVIC_EncodePriority(prioritygroup, PreemptPriority, SubPriority));
 8001532:	687a      	ldr	r2, [r7, #4]
 8001534:	68b9      	ldr	r1, [r7, #8]
 8001536:	6978      	ldr	r0, [r7, #20]
 8001538:	f7ff ff90 	bl	800145c <NVIC_EncodePriority>
 800153c:	4602      	mov	r2, r0
 800153e:	f997 300f 	ldrsb.w	r3, [r7, #15]
 8001542:	4611      	mov	r1, r2
 8001544:	4618      	mov	r0, r3
 8001546:	f7ff ff5f 	bl	8001408 <__NVIC_SetPriority>
}
 800154a:	bf00      	nop
 800154c:	3718      	adds	r7, #24
 800154e:	46bd      	mov	sp, r7
 8001550:	bd80      	pop	{r7, pc}

08001552 <HAL_NVIC_EnableIRQ>:
  *         This parameter can be an enumerator of IRQn_Type enumeration
  *         (For the complete STM32 Devices IRQ Channels list, please refer to the appropriate CMSIS device file (stm32f4xxxx.h))
  * @retval None
  */
void HAL_NVIC_EnableIRQ(IRQn_Type IRQn)
{
 8001552:	b580      	push	{r7, lr}
 8001554:	b082      	sub	sp, #8
 8001556:	af00      	add	r7, sp, #0
 8001558:	4603      	mov	r3, r0
 800155a:	71fb      	strb	r3, [r7, #7]
  /* Check the parameters */
  assert_param(IS_NVIC_DEVICE_IRQ(IRQn));
  
  /* Enable interrupt */
  NVIC_EnableIRQ(IRQn);
 800155c:	f997 3007 	ldrsb.w	r3, [r7, #7]
 8001560:	4618      	mov	r0, r3
 8001562:	f7ff ff35 	bl	80013d0 <__NVIC_EnableIRQ>
}
 8001566:	bf00      	nop
 8001568:	3708      	adds	r7, #8
 800156a:	46bd      	mov	sp, r7
 800156c:	bd80      	pop	{r7, pc}

0800156e <HAL_SYSTICK_Config>:
  * @param  TicksNumb Specifies the ticks Number of ticks between two interrupts.
  * @retval status:  - 0  Function succeeded.
  *                  - 1  Function failed.
  */
uint32_t HAL_SYSTICK_Config(uint32_t TicksNumb)
{
 800156e:	b580      	push	{r7, lr}
 8001570:	b082      	sub	sp, #8
 8001572:	af00      	add	r7, sp, #0
 8001574:	6078      	str	r0, [r7, #4]
   return SysTick_Config(TicksNumb);
 8001576:	6878      	ldr	r0, [r7, #4]
 8001578:	f7ff ffa2 	bl	80014c0 <SysTick_Config>
 800157c:	4603      	mov	r3, r0
}
 800157e:	4618      	mov	r0, r3
 8001580:	3708      	adds	r7, #8
 8001582:	46bd      	mov	sp, r7
 8001584:	bd80      	pop	{r7, pc}
	...

08001588 <HAL_RCC_GetHCLKFreq>:
  * @note   The SystemCoreClock CMSIS variable is used to store System Clock Frequency
  *         and updated within this function
  * @retval HCLK frequency
  */
uint32_t HAL_RCC_GetHCLKFreq(void)
{
 8001588:	b480      	push	{r7}
 800158a:	af00      	add	r7, sp, #0
  return SystemCoreClock;
 800158c:	4b02      	ldr	r3, [pc, #8]	; (8001598 <HAL_RCC_GetHCLKFreq+0x10>)
 800158e:	681b      	ldr	r3, [r3, #0]
}
 8001590:	4618      	mov	r0, r3
 8001592:	46bd      	mov	sp, r7
 8001594:	bc80      	pop	{r7}
 8001596:	4770      	bx	lr
 8001598:	20000430 	andcs	r0, r0, r0, lsr r4

0800159c <HAL_RCC_GetPCLK1Freq>:
  * @note   Each time PCLK1 changes, this function must be called to update the
  *         right PCLK1 value. Otherwise, any configuration based on this function will be incorrect.
  * @retval PCLK1 frequency
  */
uint32_t HAL_RCC_GetPCLK1Freq(void)
{
 800159c:	b580      	push	{r7, lr}
 800159e:	af00      	add	r7, sp, #0
  /* Get HCLK source and Compute PCLK1 frequency ---------------------------*/
  return (HAL_RCC_GetHCLKFreq() >> APBPrescTable[(RCC->CFGR & RCC_CFGR_PPRE1)>> RCC_CFGR_PPRE1_Pos]);
 80015a0:	f7ff fff2 	bl	8001588 <HAL_RCC_GetHCLKFreq>
 80015a4:	4601      	mov	r1, r0
 80015a6:	4b05      	ldr	r3, [pc, #20]	; (80015bc <HAL_RCC_GetPCLK1Freq+0x20>)
 80015a8:	689b      	ldr	r3, [r3, #8]
 80015aa:	0a9b      	lsrs	r3, r3, #10
 80015ac:	f003 0307 	and.w	r3, r3, #7
 80015b0:	4a03      	ldr	r2, [pc, #12]	; (80015c0 <HAL_RCC_GetPCLK1Freq+0x24>)
 80015b2:	5cd3      	ldrb	r3, [r2, r3]
 80015b4:	fa21 f303 	lsr.w	r3, r1, r3
}
 80015b8:	4618      	mov	r0, r3
 80015ba:	bd80      	pop	{r7, pc}
 80015bc:	40023800 	andmi	r3, r2, r0, lsl #16
 80015c0:	080056f4 	stmdaeq	r0, {r2, r4, r5, r6, r7, r9, sl, ip, lr}

080015c4 <HAL_RCC_GetPCLK2Freq>:
  * @note   Each time PCLK2 changes, this function must be called to update the
  *         right PCLK2 value. Otherwise, any configuration based on this function will be incorrect.
  * @retval PCLK2 frequency
  */
uint32_t HAL_RCC_GetPCLK2Freq(void)
{
 80015c4:	b580      	push	{r7, lr}
 80015c6:	af00      	add	r7, sp, #0
  /* Get HCLK source and Compute PCLK2 frequency ---------------------------*/
  return (HAL_RCC_GetHCLKFreq()>> APBPrescTable[(RCC->CFGR & RCC_CFGR_PPRE2)>> RCC_CFGR_PPRE2_Pos]);
 80015c8:	f7ff ffde 	bl	8001588 <HAL_RCC_GetHCLKFreq>
 80015cc:	4601      	mov	r1, r0
 80015ce:	4b05      	ldr	r3, [pc, #20]	; (80015e4 <HAL_RCC_GetPCLK2Freq+0x20>)
 80015d0:	689b      	ldr	r3, [r3, #8]
 80015d2:	0b5b      	lsrs	r3, r3, #13
 80015d4:	f003 0307 	and.w	r3, r3, #7
 80015d8:	4a03      	ldr	r2, [pc, #12]	; (80015e8 <HAL_RCC_GetPCLK2Freq+0x24>)
 80015da:	5cd3      	ldrb	r3, [r2, r3]
 80015dc:	fa21 f303 	lsr.w	r3, r1, r3
}
 80015e0:	4618      	mov	r0, r3
 80015e2:	bd80      	pop	{r7, pc}
 80015e4:	40023800 	andmi	r3, r2, r0, lsl #16
 80015e8:	080056f4 	stmdaeq	r0, {r2, r4, r5, r6, r7, r9, sl, ip, lr}

080015ec <HAL_DMA_Init>:
  * @param  hdma Pointer to a DMA_HandleTypeDef structure that contains
  *               the configuration information for the specified DMA Stream.  
  * @retval HAL status
  */
HAL_StatusTypeDef HAL_DMA_Init(DMA_HandleTypeDef *hdma)
{
 80015ec:	b580      	push	{r7, lr}
 80015ee:	b086      	sub	sp, #24
 80015f0:	af00      	add	r7, sp, #0
 80015f2:	6078      	str	r0, [r7, #4]
  uint32_t tmp = 0U;
 80015f4:	2300      	movs	r3, #0
 80015f6:	617b      	str	r3, [r7, #20]
  uint32_t tickstart = HAL_GetTick();
 80015f8:	f7ff fea8 	bl	800134c <HAL_GetTick>
 80015fc:	6138      	str	r0, [r7, #16]
  DMA_Base_Registers *regs;

  /* Check the DMA peripheral state */
  if(hdma == NULL)
 80015fe:	687b      	ldr	r3, [r7, #4]
 8001600:	2b00      	cmp	r3, #0
 8001602:	d101      	bne.n	8001608 <HAL_DMA_Init+0x1c>
  {
    return HAL_ERROR;
 8001604:	2301      	movs	r3, #1
 8001606:	e099      	b.n	800173c <HAL_DMA_Init+0x150>
    assert_param(IS_DMA_MEMORY_BURST(hdma->Init.MemBurst));
    assert_param(IS_DMA_PERIPHERAL_BURST(hdma->Init.PeriphBurst));
  }
  
  /* Allocate lock resource */
  __HAL_UNLOCK(hdma);
 8001608:	687b      	ldr	r3, [r7, #4]
 800160a:	2200      	movs	r2, #0
 800160c:	f883 2034 	strb.w	r2, [r3, #52]	; 0x34

  /* Change DMA peripheral state */
  hdma->State = HAL_DMA_STATE_BUSY;
 8001610:	687b      	ldr	r3, [r7, #4]
 8001612:	2202      	movs	r2, #2
 8001614:	f883 2035 	strb.w	r2, [r3, #53]	; 0x35
  
  /* Disable the peripheral */
  __HAL_DMA_DISABLE(hdma);
 8001618:	687b      	ldr	r3, [r7, #4]
 800161a:	681b      	ldr	r3, [r3, #0]
 800161c:	681a      	ldr	r2, [r3, #0]
 800161e:	687b      	ldr	r3, [r7, #4]
 8001620:	681b      	ldr	r3, [r3, #0]
 8001622:	f022 0201 	bic.w	r2, r2, #1
 8001626:	601a      	str	r2, [r3, #0]
  
  /* Check if the DMA Stream is effectively disabled */
  while((hdma->Instance->CR & DMA_SxCR_EN) != RESET)
 8001628:	e00f      	b.n	800164a <HAL_DMA_Init+0x5e>
  {
    /* Check for the Timeout */
    if((HAL_GetTick() - tickstart ) > HAL_TIMEOUT_DMA_ABORT)
 800162a:	f7ff fe8f 	bl	800134c <HAL_GetTick>
 800162e:	4602      	mov	r2, r0
 8001630:	693b      	ldr	r3, [r7, #16]
 8001632:	1ad3      	subs	r3, r2, r3
 8001634:	2b05      	cmp	r3, #5
 8001636:	d908      	bls.n	800164a <HAL_DMA_Init+0x5e>
    {
      /* Update error code */
      hdma->ErrorCode = HAL_DMA_ERROR_TIMEOUT;
 8001638:	687b      	ldr	r3, [r7, #4]
 800163a:	2220      	movs	r2, #32
 800163c:	655a      	str	r2, [r3, #84]	; 0x54
      
      /* Change the DMA state */
      hdma->State = HAL_DMA_STATE_TIMEOUT;
 800163e:	687b      	ldr	r3, [r7, #4]
 8001640:	2203      	movs	r2, #3
 8001642:	f883 2035 	strb.w	r2, [r3, #53]	; 0x35
      
      return HAL_TIMEOUT;
 8001646:	2303      	movs	r3, #3
 8001648:	e078      	b.n	800173c <HAL_DMA_Init+0x150>
  while((hdma->Instance->CR & DMA_SxCR_EN) != RESET)
 800164a:	687b      	ldr	r3, [r7, #4]
 800164c:	681b      	ldr	r3, [r3, #0]
 800164e:	681b      	ldr	r3, [r3, #0]
 8001650:	f003 0301 	and.w	r3, r3, #1
 8001654:	2b00      	cmp	r3, #0
 8001656:	d1e8      	bne.n	800162a <HAL_DMA_Init+0x3e>
    }
  }
  
  /* Get the CR register value */
  tmp = hdma->Instance->CR;
 8001658:	687b      	ldr	r3, [r7, #4]
 800165a:	681b      	ldr	r3, [r3, #0]
 800165c:	681b      	ldr	r3, [r3, #0]
 800165e:	617b      	str	r3, [r7, #20]

  /* Clear CHSEL, MBURST, PBURST, PL, MSIZE, PSIZE, MINC, PINC, CIRC, DIR, CT and DBM bits */
  tmp &= ((uint32_t)~(DMA_SxCR_CHSEL | DMA_SxCR_MBURST | DMA_SxCR_PBURST | \
 8001660:	697a      	ldr	r2, [r7, #20]
 8001662:	4b38      	ldr	r3, [pc, #224]	; (8001744 <HAL_DMA_Init+0x158>)
 8001664:	4013      	ands	r3, r2
 8001666:	617b      	str	r3, [r7, #20]
                      DMA_SxCR_PL    | DMA_SxCR_MSIZE  | DMA_SxCR_PSIZE  | \
                      DMA_SxCR_MINC  | DMA_SxCR_PINC   | DMA_SxCR_CIRC   | \
                      DMA_SxCR_DIR   | DMA_SxCR_CT     | DMA_SxCR_DBM));

  /* Prepare the DMA Stream configuration */
  tmp |=  hdma->Init.Channel             | hdma->Init.Direction        |
 8001668:	687b      	ldr	r3, [r7, #4]
 800166a:	685a      	ldr	r2, [r3, #4]
 800166c:	687b      	ldr	r3, [r7, #4]
 800166e:	689b      	ldr	r3, [r3, #8]
 8001670:	431a      	orrs	r2, r3
          hdma->Init.PeriphInc           | hdma->Init.MemInc           |
 8001672:	687b      	ldr	r3, [r7, #4]
 8001674:	68db      	ldr	r3, [r3, #12]
  tmp |=  hdma->Init.Channel             | hdma->Init.Direction        |
 8001676:	431a      	orrs	r2, r3
          hdma->Init.PeriphInc           | hdma->Init.MemInc           |
 8001678:	687b      	ldr	r3, [r7, #4]
 800167a:	691b      	ldr	r3, [r3, #16]
 800167c:	431a      	orrs	r2, r3
          hdma->Init.PeriphDataAlignment | hdma->Init.MemDataAlignment |
 800167e:	687b      	ldr	r3, [r7, #4]
 8001680:	695b      	ldr	r3, [r3, #20]
          hdma->Init.PeriphInc           | hdma->Init.MemInc           |
 8001682:	431a      	orrs	r2, r3
          hdma->Init.PeriphDataAlignment | hdma->Init.MemDataAlignment |
 8001684:	687b      	ldr	r3, [r7, #4]
 8001686:	699b      	ldr	r3, [r3, #24]
 8001688:	431a      	orrs	r2, r3
          hdma->Init.Mode                | hdma->Init.Priority;
 800168a:	687b      	ldr	r3, [r7, #4]
 800168c:	69db      	ldr	r3, [r3, #28]
          hdma->Init.PeriphDataAlignment | hdma->Init.MemDataAlignment |
 800168e:	431a      	orrs	r2, r3
          hdma->Init.Mode                | hdma->Init.Priority;
 8001690:	687b      	ldr	r3, [r7, #4]
 8001692:	6a1b      	ldr	r3, [r3, #32]
 8001694:	4313      	orrs	r3, r2
  tmp |=  hdma->Init.Channel             | hdma->Init.Direction        |
 8001696:	697a      	ldr	r2, [r7, #20]
 8001698:	4313      	orrs	r3, r2
 800169a:	617b      	str	r3, [r7, #20]

  /* the Memory burst and peripheral burst are not used when the FIFO is disabled */
  if(hdma->Init.FIFOMode == DMA_FIFOMODE_ENABLE)
 800169c:	687b      	ldr	r3, [r7, #4]
 800169e:	6a5b      	ldr	r3, [r3, #36]	; 0x24
 80016a0:	2b04      	cmp	r3, #4
 80016a2:	d107      	bne.n	80016b4 <HAL_DMA_Init+0xc8>
  {
    /* Get memory burst and peripheral burst */
    tmp |=  hdma->Init.MemBurst | hdma->Init.PeriphBurst;
 80016a4:	687b      	ldr	r3, [r7, #4]
 80016a6:	6ada      	ldr	r2, [r3, #44]	; 0x2c
 80016a8:	687b      	ldr	r3, [r7, #4]
 80016aa:	6b1b      	ldr	r3, [r3, #48]	; 0x30
 80016ac:	4313      	orrs	r3, r2
 80016ae:	697a      	ldr	r2, [r7, #20]
 80016b0:	4313      	orrs	r3, r2
 80016b2:	617b      	str	r3, [r7, #20]
  }
  
  /* Write to DMA Stream CR register */
  hdma->Instance->CR = tmp;  
 80016b4:	687b      	ldr	r3, [r7, #4]
 80016b6:	681b      	ldr	r3, [r3, #0]
 80016b8:	697a      	ldr	r2, [r7, #20]
 80016ba:	601a      	str	r2, [r3, #0]

  /* Get the FCR register value */
  tmp = hdma->Instance->FCR;
 80016bc:	687b      	ldr	r3, [r7, #4]
 80016be:	681b      	ldr	r3, [r3, #0]
 80016c0:	695b      	ldr	r3, [r3, #20]
 80016c2:	617b      	str	r3, [r7, #20]

  /* Clear Direct mode and FIFO threshold bits */
  tmp &= (uint32_t)~(DMA_SxFCR_DMDIS | DMA_SxFCR_FTH);
 80016c4:	697b      	ldr	r3, [r7, #20]
 80016c6:	f023 0307 	bic.w	r3, r3, #7
 80016ca:	617b      	str	r3, [r7, #20]

  /* Prepare the DMA Stream FIFO configuration */
  tmp |= hdma->Init.FIFOMode;
 80016cc:	687b      	ldr	r3, [r7, #4]
 80016ce:	6a5b      	ldr	r3, [r3, #36]	; 0x24
 80016d0:	697a      	ldr	r2, [r7, #20]
 80016d2:	4313      	orrs	r3, r2
 80016d4:	617b      	str	r3, [r7, #20]

  /* The FIFO threshold is not used when the FIFO mode is disabled */
  if(hdma->Init.FIFOMode == DMA_FIFOMODE_ENABLE)
 80016d6:	687b      	ldr	r3, [r7, #4]
 80016d8:	6a5b      	ldr	r3, [r3, #36]	; 0x24
 80016da:	2b04      	cmp	r3, #4
 80016dc:	d117      	bne.n	800170e <HAL_DMA_Init+0x122>
  {
    /* Get the FIFO threshold */
    tmp |= hdma->Init.FIFOThreshold;
 80016de:	687b      	ldr	r3, [r7, #4]
 80016e0:	6a9b      	ldr	r3, [r3, #40]	; 0x28
 80016e2:	697a      	ldr	r2, [r7, #20]
 80016e4:	4313      	orrs	r3, r2
 80016e6:	617b      	str	r3, [r7, #20]
    
    /* Check compatibility between FIFO threshold level and size of the memory burst */
    /* for INCR4, INCR8, INCR16 bursts */
    if (hdma->Init.MemBurst != DMA_MBURST_SINGLE)
 80016e8:	687b      	ldr	r3, [r7, #4]
 80016ea:	6adb      	ldr	r3, [r3, #44]	; 0x2c
 80016ec:	2b00      	cmp	r3, #0
 80016ee:	d00e      	beq.n	800170e <HAL_DMA_Init+0x122>
    {
      if (DMA_CheckFifoParam(hdma) != HAL_OK)
 80016f0:	6878      	ldr	r0, [r7, #4]
 80016f2:	f000 f85d 	bl	80017b0 <DMA_CheckFifoParam>
 80016f6:	4603      	mov	r3, r0
 80016f8:	2b00      	cmp	r3, #0
 80016fa:	d008      	beq.n	800170e <HAL_DMA_Init+0x122>
      {
        /* Update error code */
        hdma->ErrorCode = HAL_DMA_ERROR_PARAM;
 80016fc:	687b      	ldr	r3, [r7, #4]
 80016fe:	2240      	movs	r2, #64	; 0x40
 8001700:	655a      	str	r2, [r3, #84]	; 0x54
        
        /* Change the DMA state */
        hdma->State = HAL_DMA_STATE_READY;
 8001702:	687b      	ldr	r3, [r7, #4]
 8001704:	2201      	movs	r2, #1
 8001706:	f883 2035 	strb.w	r2, [r3, #53]	; 0x35
        
        return HAL_ERROR; 
 800170a:	2301      	movs	r3, #1
 800170c:	e016      	b.n	800173c <HAL_DMA_Init+0x150>
      }
    }
  }
  
  /* Write to DMA Stream FCR */
  hdma->Instance->FCR = tmp;
 800170e:	687b      	ldr	r3, [r7, #4]
 8001710:	681b      	ldr	r3, [r3, #0]
 8001712:	697a      	ldr	r2, [r7, #20]
 8001714:	615a      	str	r2, [r3, #20]

  /* Initialize StreamBaseAddress and StreamIndex parameters to be used to calculate
     DMA steam Base Address needed by HAL_DMA_IRQHandler() and HAL_DMA_PollForTransfer() */
  regs = (DMA_Base_Registers *)DMA_CalcBaseAndBitshift(hdma);
 8001716:	6878      	ldr	r0, [r7, #4]
 8001718:	f000 f816 	bl	8001748 <DMA_CalcBaseAndBitshift>
 800171c:	4603      	mov	r3, r0
 800171e:	60fb      	str	r3, [r7, #12]
  
  /* Clear all interrupt flags */
  regs->IFCR = 0x3FU << hdma->StreamIndex;
 8001720:	687b      	ldr	r3, [r7, #4]
 8001722:	6ddb      	ldr	r3, [r3, #92]	; 0x5c
 8001724:	223f      	movs	r2, #63	; 0x3f
 8001726:	409a      	lsls	r2, r3
 8001728:	68fb      	ldr	r3, [r7, #12]
 800172a:	609a      	str	r2, [r3, #8]

  /* Initialize the error code */
  hdma->ErrorCode = HAL_DMA_ERROR_NONE;
 800172c:	687b      	ldr	r3, [r7, #4]
 800172e:	2200      	movs	r2, #0
 8001730:	655a      	str	r2, [r3, #84]	; 0x54
                                                                                     
  /* Initialize the DMA state */
  hdma->State = HAL_DMA_STATE_READY;
 8001732:	687b      	ldr	r3, [r7, #4]
 8001734:	2201      	movs	r2, #1
 8001736:	f883 2035 	strb.w	r2, [r3, #53]	; 0x35

  return HAL_OK;
 800173a:	2300      	movs	r3, #0
}
 800173c:	4618      	mov	r0, r3
 800173e:	3718      	adds	r7, #24
 8001740:	46bd      	mov	sp, r7
 8001742:	bd80      	pop	{r7, pc}
 8001744:	f010803f 			; <UNDEFINED> instruction: 0xf010803f

08001748 <DMA_CalcBaseAndBitshift>:
  * @param  hdma       pointer to a DMA_HandleTypeDef structure that contains
  *                     the configuration information for the specified DMA Stream. 
  * @retval Stream base address
  */
static uint32_t DMA_CalcBaseAndBitshift(DMA_HandleTypeDef *hdma)
{
 8001748:	b480      	push	{r7}
 800174a:	b085      	sub	sp, #20
 800174c:	af00      	add	r7, sp, #0
 800174e:	6078      	str	r0, [r7, #4]
  uint32_t stream_number = (((uint32_t)hdma->Instance & 0xFFU) - 16U) / 24U;
 8001750:	687b      	ldr	r3, [r7, #4]
 8001752:	681b      	ldr	r3, [r3, #0]
 8001754:	b2db      	uxtb	r3, r3
 8001756:	3b10      	subs	r3, #16
 8001758:	4a13      	ldr	r2, [pc, #76]	; (80017a8 <DMA_CalcBaseAndBitshift+0x60>)
 800175a:	fba2 2303 	umull	r2, r3, r2, r3
 800175e:	091b      	lsrs	r3, r3, #4
 8001760:	60fb      	str	r3, [r7, #12]
  
  /* lookup table for necessary bitshift of flags within status registers */
  static const uint8_t flagBitshiftOffset[8U] = {0U, 6U, 16U, 22U, 0U, 6U, 16U, 22U};
  hdma->StreamIndex = flagBitshiftOffset[stream_number];
 8001762:	4a12      	ldr	r2, [pc, #72]	; (80017ac <DMA_CalcBaseAndBitshift+0x64>)
 8001764:	68fb      	ldr	r3, [r7, #12]
 8001766:	4413      	add	r3, r2
 8001768:	781b      	ldrb	r3, [r3, #0]
 800176a:	461a      	mov	r2, r3
 800176c:	687b      	ldr	r3, [r7, #4]
 800176e:	65da      	str	r2, [r3, #92]	; 0x5c
  
  if (stream_number > 3U)
 8001770:	68fb      	ldr	r3, [r7, #12]
 8001772:	2b03      	cmp	r3, #3
 8001774:	d909      	bls.n	800178a <DMA_CalcBaseAndBitshift+0x42>
  {
    /* return pointer to HISR and HIFCR */
    hdma->StreamBaseAddress = (((uint32_t)hdma->Instance & (uint32_t)(~0x3FFU)) + 4U);
 8001776:	687b      	ldr	r3, [r7, #4]
 8001778:	681b      	ldr	r3, [r3, #0]
 800177a:	f423 737f 	bic.w	r3, r3, #1020	; 0x3fc
 800177e:	f023 0303 	bic.w	r3, r3, #3
 8001782:	1d1a      	adds	r2, r3, #4
 8001784:	687b      	ldr	r3, [r7, #4]
 8001786:	659a      	str	r2, [r3, #88]	; 0x58
 8001788:	e007      	b.n	800179a <DMA_CalcBaseAndBitshift+0x52>
  }
  else
  {
    /* return pointer to LISR and LIFCR */
    hdma->StreamBaseAddress = ((uint32_t)hdma->Instance & (uint32_t)(~0x3FFU));
 800178a:	687b      	ldr	r3, [r7, #4]
 800178c:	681b      	ldr	r3, [r3, #0]
 800178e:	f423 737f 	bic.w	r3, r3, #1020	; 0x3fc
 8001792:	f023 0303 	bic.w	r3, r3, #3
 8001796:	687a      	ldr	r2, [r7, #4]
 8001798:	6593      	str	r3, [r2, #88]	; 0x58
  }
  
  return hdma->StreamBaseAddress;
 800179a:	687b      	ldr	r3, [r7, #4]
 800179c:	6d9b      	ldr	r3, [r3, #88]	; 0x58
}
 800179e:	4618      	mov	r0, r3
 80017a0:	3714      	adds	r7, #20
 80017a2:	46bd      	mov	sp, r7
 80017a4:	bc80      	pop	{r7}
 80017a6:	4770      	bx	lr
 80017a8:	aaaaaaab 	bge	6aac25c <_stacksize+0x6aab25c>
 80017ac:	080056fc 	stmdaeq	r0, {r2, r3, r4, r5, r6, r7, r9, sl, ip, lr}

080017b0 <DMA_CheckFifoParam>:
  * @param  hdma       pointer to a DMA_HandleTypeDef structure that contains
  *                     the configuration information for the specified DMA Stream. 
  * @retval HAL status
  */
static HAL_StatusTypeDef DMA_CheckFifoParam(DMA_HandleTypeDef *hdma)
{
 80017b0:	b480      	push	{r7}
 80017b2:	b085      	sub	sp, #20
 80017b4:	af00      	add	r7, sp, #0
 80017b6:	6078      	str	r0, [r7, #4]
  HAL_StatusTypeDef status = HAL_OK;
 80017b8:	2300      	movs	r3, #0
 80017ba:	73fb      	strb	r3, [r7, #15]
  uint32_t tmp = hdma->Init.FIFOThreshold;
 80017bc:	687b      	ldr	r3, [r7, #4]
 80017be:	6a9b      	ldr	r3, [r3, #40]	; 0x28
 80017c0:	60bb      	str	r3, [r7, #8]
  
  /* Memory Data size equal to Byte */
  if(hdma->Init.MemDataAlignment == DMA_MDATAALIGN_BYTE)
 80017c2:	687b      	ldr	r3, [r7, #4]
 80017c4:	699b      	ldr	r3, [r3, #24]
 80017c6:	2b00      	cmp	r3, #0
 80017c8:	d11f      	bne.n	800180a <DMA_CheckFifoParam+0x5a>
  {
    switch (tmp)
 80017ca:	68bb      	ldr	r3, [r7, #8]
 80017cc:	2b03      	cmp	r3, #3
 80017ce:	d856      	bhi.n	800187e <DMA_CheckFifoParam+0xce>
 80017d0:	a201      	add	r2, pc, #4	; (adr r2, 80017d8 <DMA_CheckFifoParam+0x28>)
 80017d2:	f852 f023 	ldr.w	pc, [r2, r3, lsl #2]
 80017d6:	bf00      	nop
 80017d8:	080017e9 	stmdaeq	r0, {r0, r3, r5, r6, r7, r8, r9, sl, ip}
 80017dc:	080017fb 	stmdaeq	r0, {r0, r1, r3, r4, r5, r6, r7, r8, r9, sl, ip}
 80017e0:	080017e9 	stmdaeq	r0, {r0, r3, r5, r6, r7, r8, r9, sl, ip}
 80017e4:	0800187f 	stmdaeq	r0, {r0, r1, r2, r3, r4, r5, r6, fp, ip}
    {
    case DMA_FIFO_THRESHOLD_1QUARTERFULL:
    case DMA_FIFO_THRESHOLD_3QUARTERSFULL:
      if ((hdma->Init.MemBurst & DMA_SxCR_MBURST_1) == DMA_SxCR_MBURST_1)
 80017e8:	687b      	ldr	r3, [r7, #4]
 80017ea:	6adb      	ldr	r3, [r3, #44]	; 0x2c
 80017ec:	f003 7380 	and.w	r3, r3, #16777216	; 0x1000000
 80017f0:	2b00      	cmp	r3, #0
 80017f2:	d046      	beq.n	8001882 <DMA_CheckFifoParam+0xd2>
      {
        status = HAL_ERROR;
 80017f4:	2301      	movs	r3, #1
 80017f6:	73fb      	strb	r3, [r7, #15]
      }
      break;
 80017f8:	e043      	b.n	8001882 <DMA_CheckFifoParam+0xd2>
    case DMA_FIFO_THRESHOLD_HALFFULL:
      if (hdma->Init.MemBurst == DMA_MBURST_INC16)
 80017fa:	687b      	ldr	r3, [r7, #4]
 80017fc:	6adb      	ldr	r3, [r3, #44]	; 0x2c
 80017fe:	f1b3 7fc0 	cmp.w	r3, #25165824	; 0x1800000
 8001802:	d140      	bne.n	8001886 <DMA_CheckFifoParam+0xd6>
      {
        status = HAL_ERROR;
 8001804:	2301      	movs	r3, #1
 8001806:	73fb      	strb	r3, [r7, #15]
      }
      break;
 8001808:	e03d      	b.n	8001886 <DMA_CheckFifoParam+0xd6>
      break;
    }
  }
  
  /* Memory Data size equal to Half-Word */
  else if (hdma->Init.MemDataAlignment == DMA_MDATAALIGN_HALFWORD)
 800180a:	687b      	ldr	r3, [r7, #4]
 800180c:	699b      	ldr	r3, [r3, #24]
 800180e:	f5b3 5f00 	cmp.w	r3, #8192	; 0x2000
 8001812:	d121      	bne.n	8001858 <DMA_CheckFifoParam+0xa8>
  {
    switch (tmp)
 8001814:	68bb      	ldr	r3, [r7, #8]
 8001816:	2b03      	cmp	r3, #3
 8001818:	d837      	bhi.n	800188a <DMA_CheckFifoParam+0xda>
 800181a:	a201      	add	r2, pc, #4	; (adr r2, 8001820 <DMA_CheckFifoParam+0x70>)
 800181c:	f852 f023 	ldr.w	pc, [r2, r3, lsl #2]
 8001820:	08001831 	stmdaeq	r0, {r0, r4, r5, fp, ip}
 8001824:	08001837 	stmdaeq	r0, {r0, r1, r2, r4, r5, fp, ip}
 8001828:	08001831 	stmdaeq	r0, {r0, r4, r5, fp, ip}
 800182c:	08001849 	stmdaeq	r0, {r0, r3, r6, fp, ip}
    {
    case DMA_FIFO_THRESHOLD_1QUARTERFULL:
    case DMA_FIFO_THRESHOLD_3QUARTERSFULL:
      status = HAL_ERROR;
 8001830:	2301      	movs	r3, #1
 8001832:	73fb      	strb	r3, [r7, #15]
      break;
 8001834:	e030      	b.n	8001898 <DMA_CheckFifoParam+0xe8>
    case DMA_FIFO_THRESHOLD_HALFFULL:
      if ((hdma->Init.MemBurst & DMA_SxCR_MBURST_1) == DMA_SxCR_MBURST_1)
 8001836:	687b      	ldr	r3, [r7, #4]
 8001838:	6adb      	ldr	r3, [r3, #44]	; 0x2c
 800183a:	f003 7380 	and.w	r3, r3, #16777216	; 0x1000000
 800183e:	2b00      	cmp	r3, #0
 8001840:	d025      	beq.n	800188e <DMA_CheckFifoParam+0xde>
      {
        status = HAL_ERROR;
 8001842:	2301      	movs	r3, #1
 8001844:	73fb      	strb	r3, [r7, #15]
      }
      break;
 8001846:	e022      	b.n	800188e <DMA_CheckFifoParam+0xde>
    case DMA_FIFO_THRESHOLD_FULL:
      if (hdma->Init.MemBurst == DMA_MBURST_INC16)
 8001848:	687b      	ldr	r3, [r7, #4]
 800184a:	6adb      	ldr	r3, [r3, #44]	; 0x2c
 800184c:	f1b3 7fc0 	cmp.w	r3, #25165824	; 0x1800000
 8001850:	d11f      	bne.n	8001892 <DMA_CheckFifoParam+0xe2>
      {
        status = HAL_ERROR;
 8001852:	2301      	movs	r3, #1
 8001854:	73fb      	strb	r3, [r7, #15]
      }
      break;   
 8001856:	e01c      	b.n	8001892 <DMA_CheckFifoParam+0xe2>
  }
  
  /* Memory Data size equal to Word */
  else
  {
    switch (tmp)
 8001858:	68bb      	ldr	r3, [r7, #8]
 800185a:	2b02      	cmp	r3, #2
 800185c:	d903      	bls.n	8001866 <DMA_CheckFifoParam+0xb6>
 800185e:	68bb      	ldr	r3, [r7, #8]
 8001860:	2b03      	cmp	r3, #3
 8001862:	d003      	beq.n	800186c <DMA_CheckFifoParam+0xbc>
      {
        status = HAL_ERROR;
      }
      break;
    default:
      break;
 8001864:	e018      	b.n	8001898 <DMA_CheckFifoParam+0xe8>
      status = HAL_ERROR;
 8001866:	2301      	movs	r3, #1
 8001868:	73fb      	strb	r3, [r7, #15]
      break;
 800186a:	e015      	b.n	8001898 <DMA_CheckFifoParam+0xe8>
      if ((hdma->Init.MemBurst & DMA_SxCR_MBURST_1) == DMA_SxCR_MBURST_1)
 800186c:	687b      	ldr	r3, [r7, #4]
 800186e:	6adb      	ldr	r3, [r3, #44]	; 0x2c
 8001870:	f003 7380 	and.w	r3, r3, #16777216	; 0x1000000
 8001874:	2b00      	cmp	r3, #0
 8001876:	d00e      	beq.n	8001896 <DMA_CheckFifoParam+0xe6>
        status = HAL_ERROR;
 8001878:	2301      	movs	r3, #1
 800187a:	73fb      	strb	r3, [r7, #15]
      break;
 800187c:	e00b      	b.n	8001896 <DMA_CheckFifoParam+0xe6>
      break;
 800187e:	bf00      	nop
 8001880:	e00a      	b.n	8001898 <DMA_CheckFifoParam+0xe8>
      break;
 8001882:	bf00      	nop
 8001884:	e008      	b.n	8001898 <DMA_CheckFifoParam+0xe8>
      break;
 8001886:	bf00      	nop
 8001888:	e006      	b.n	8001898 <DMA_CheckFifoParam+0xe8>
      break;
 800188a:	bf00      	nop
 800188c:	e004      	b.n	8001898 <DMA_CheckFifoParam+0xe8>
      break;
 800188e:	bf00      	nop
 8001890:	e002      	b.n	8001898 <DMA_CheckFifoParam+0xe8>
      break;   
 8001892:	bf00      	nop
 8001894:	e000      	b.n	8001898 <DMA_CheckFifoParam+0xe8>
      break;
 8001896:	bf00      	nop
    }
  } 
  
  return status; 
 8001898:	7bfb      	ldrb	r3, [r7, #15]
}
 800189a:	4618      	mov	r0, r3
 800189c:	3714      	adds	r7, #20
 800189e:	46bd      	mov	sp, r7
 80018a0:	bc80      	pop	{r7}
 80018a2:	4770      	bx	lr

080018a4 <HAL_GPIO_Init>:
  * @param  GPIO_Init pointer to a GPIO_InitTypeDef structure that contains
  *         the configuration information for the specified GPIO peripheral.
  * @retval None
  */
void HAL_GPIO_Init(GPIO_TypeDef  *GPIOx, GPIO_InitTypeDef *GPIO_Init)
{
 80018a4:	b480      	push	{r7}
 80018a6:	b089      	sub	sp, #36	; 0x24
 80018a8:	af00      	add	r7, sp, #0
 80018aa:	6078      	str	r0, [r7, #4]
 80018ac:	6039      	str	r1, [r7, #0]
  uint32_t position;
  uint32_t ioposition = 0x00U;
 80018ae:	2300      	movs	r3, #0
 80018b0:	617b      	str	r3, [r7, #20]
  uint32_t iocurrent = 0x00U;
 80018b2:	2300      	movs	r3, #0
 80018b4:	613b      	str	r3, [r7, #16]
  uint32_t temp = 0x00U;
 80018b6:	2300      	movs	r3, #0
 80018b8:	61bb      	str	r3, [r7, #24]
  assert_param(IS_GPIO_PIN(GPIO_Init->Pin));
  assert_param(IS_GPIO_MODE(GPIO_Init->Mode));
  assert_param(IS_GPIO_PULL(GPIO_Init->Pull));

  /* Configure the port pins */
  for(position = 0U; position < GPIO_NUMBER; position++)
 80018ba:	2300      	movs	r3, #0
 80018bc:	61fb      	str	r3, [r7, #28]
 80018be:	e16b      	b.n	8001b98 <HAL_GPIO_Init+0x2f4>
  {
    /* Get the IO position */
    ioposition = 0x01U << position;
 80018c0:	2201      	movs	r2, #1
 80018c2:	69fb      	ldr	r3, [r7, #28]
 80018c4:	fa02 f303 	lsl.w	r3, r2, r3
 80018c8:	617b      	str	r3, [r7, #20]
    /* Get the current IO position */
    iocurrent = (uint32_t)(GPIO_Init->Pin) & ioposition;
 80018ca:	683b      	ldr	r3, [r7, #0]
 80018cc:	681b      	ldr	r3, [r3, #0]
 80018ce:	697a      	ldr	r2, [r7, #20]
 80018d0:	4013      	ands	r3, r2
 80018d2:	613b      	str	r3, [r7, #16]

    if(iocurrent == ioposition)
 80018d4:	693a      	ldr	r2, [r7, #16]
 80018d6:	697b      	ldr	r3, [r7, #20]
 80018d8:	429a      	cmp	r2, r3
 80018da:	f040 815a 	bne.w	8001b92 <HAL_GPIO_Init+0x2ee>
    {
      /*--------------------- GPIO Mode Configuration ------------------------*/
      /* In case of Output or Alternate function mode selection */
      if(((GPIO_Init->Mode & GPIO_MODE) == MODE_OUTPUT) || \
 80018de:	683b      	ldr	r3, [r7, #0]
 80018e0:	685b      	ldr	r3, [r3, #4]
 80018e2:	f003 0303 	and.w	r3, r3, #3
 80018e6:	2b01      	cmp	r3, #1
 80018e8:	d005      	beq.n	80018f6 <HAL_GPIO_Init+0x52>
          (GPIO_Init->Mode & GPIO_MODE) == MODE_AF)
 80018ea:	683b      	ldr	r3, [r7, #0]
 80018ec:	685b      	ldr	r3, [r3, #4]
 80018ee:	f003 0303 	and.w	r3, r3, #3
      if(((GPIO_Init->Mode & GPIO_MODE) == MODE_OUTPUT) || \
 80018f2:	2b02      	cmp	r3, #2
 80018f4:	d130      	bne.n	8001958 <HAL_GPIO_Init+0xb4>
      {
        /* Check the Speed parameter */
        assert_param(IS_GPIO_SPEED(GPIO_Init->Speed));
        /* Configure the IO Speed */
        temp = GPIOx->OSPEEDR; 
 80018f6:	687b      	ldr	r3, [r7, #4]
 80018f8:	689b      	ldr	r3, [r3, #8]
 80018fa:	61bb      	str	r3, [r7, #24]
        temp &= ~(GPIO_OSPEEDER_OSPEEDR0 << (position * 2U));
 80018fc:	69fb      	ldr	r3, [r7, #28]
 80018fe:	005b      	lsls	r3, r3, #1
 8001900:	2203      	movs	r2, #3
 8001902:	fa02 f303 	lsl.w	r3, r2, r3
 8001906:	43db      	mvns	r3, r3
 8001908:	69ba      	ldr	r2, [r7, #24]
 800190a:	4013      	ands	r3, r2
 800190c:	61bb      	str	r3, [r7, #24]
        temp |= (GPIO_Init->Speed << (position * 2U));
 800190e:	683b      	ldr	r3, [r7, #0]
 8001910:	68da      	ldr	r2, [r3, #12]
 8001912:	69fb      	ldr	r3, [r7, #28]
 8001914:	005b      	lsls	r3, r3, #1
 8001916:	fa02 f303 	lsl.w	r3, r2, r3
 800191a:	69ba      	ldr	r2, [r7, #24]
 800191c:	4313      	orrs	r3, r2
 800191e:	61bb      	str	r3, [r7, #24]
        GPIOx->OSPEEDR = temp;
 8001920:	687b      	ldr	r3, [r7, #4]
 8001922:	69ba      	ldr	r2, [r7, #24]
 8001924:	609a      	str	r2, [r3, #8]

        /* Configure the IO Output Type */
        temp = GPIOx->OTYPER;
 8001926:	687b      	ldr	r3, [r7, #4]
 8001928:	685b      	ldr	r3, [r3, #4]
 800192a:	61bb      	str	r3, [r7, #24]
        temp &= ~(GPIO_OTYPER_OT_0 << position) ;
 800192c:	2201      	movs	r2, #1
 800192e:	69fb      	ldr	r3, [r7, #28]
 8001930:	fa02 f303 	lsl.w	r3, r2, r3
 8001934:	43db      	mvns	r3, r3
 8001936:	69ba      	ldr	r2, [r7, #24]
 8001938:	4013      	ands	r3, r2
 800193a:	61bb      	str	r3, [r7, #24]
        temp |= (((GPIO_Init->Mode & GPIO_OUTPUT_TYPE) >> 4U) << position);
 800193c:	683b      	ldr	r3, [r7, #0]
 800193e:	685b      	ldr	r3, [r3, #4]
 8001940:	091b      	lsrs	r3, r3, #4
 8001942:	f003 0201 	and.w	r2, r3, #1
 8001946:	69fb      	ldr	r3, [r7, #28]
 8001948:	fa02 f303 	lsl.w	r3, r2, r3
 800194c:	69ba      	ldr	r2, [r7, #24]
 800194e:	4313      	orrs	r3, r2
 8001950:	61bb      	str	r3, [r7, #24]
        GPIOx->OTYPER = temp;
 8001952:	687b      	ldr	r3, [r7, #4]
 8001954:	69ba      	ldr	r2, [r7, #24]
 8001956:	605a      	str	r2, [r3, #4]
       }

      if((GPIO_Init->Mode & GPIO_MODE) != MODE_ANALOG)
 8001958:	683b      	ldr	r3, [r7, #0]
 800195a:	685b      	ldr	r3, [r3, #4]
 800195c:	f003 0303 	and.w	r3, r3, #3
 8001960:	2b03      	cmp	r3, #3
 8001962:	d017      	beq.n	8001994 <HAL_GPIO_Init+0xf0>
      {
        /* Activate the Pull-up or Pull down resistor for the current IO */
        temp = GPIOx->PUPDR;
 8001964:	687b      	ldr	r3, [r7, #4]
 8001966:	68db      	ldr	r3, [r3, #12]
 8001968:	61bb      	str	r3, [r7, #24]
        temp &= ~(GPIO_PUPDR_PUPDR0 << (position * 2U));
 800196a:	69fb      	ldr	r3, [r7, #28]
 800196c:	005b      	lsls	r3, r3, #1
 800196e:	2203      	movs	r2, #3
 8001970:	fa02 f303 	lsl.w	r3, r2, r3
 8001974:	43db      	mvns	r3, r3
 8001976:	69ba      	ldr	r2, [r7, #24]
 8001978:	4013      	ands	r3, r2
 800197a:	61bb      	str	r3, [r7, #24]
        temp |= ((GPIO_Init->Pull) << (position * 2U));
 800197c:	683b      	ldr	r3, [r7, #0]
 800197e:	689a      	ldr	r2, [r3, #8]
 8001980:	69fb      	ldr	r3, [r7, #28]
 8001982:	005b      	lsls	r3, r3, #1
 8001984:	fa02 f303 	lsl.w	r3, r2, r3
 8001988:	69ba      	ldr	r2, [r7, #24]
 800198a:	4313      	orrs	r3, r2
 800198c:	61bb      	str	r3, [r7, #24]
        GPIOx->PUPDR = temp;
 800198e:	687b      	ldr	r3, [r7, #4]
 8001990:	69ba      	ldr	r2, [r7, #24]
 8001992:	60da      	str	r2, [r3, #12]
      }

      /* In case of Alternate function mode selection */
      if((GPIO_Init->Mode & GPIO_MODE) == MODE_AF)
 8001994:	683b      	ldr	r3, [r7, #0]
 8001996:	685b      	ldr	r3, [r3, #4]
 8001998:	f003 0303 	and.w	r3, r3, #3
 800199c:	2b02      	cmp	r3, #2
 800199e:	d123      	bne.n	80019e8 <HAL_GPIO_Init+0x144>
      {
        /* Check the Alternate function parameter */
        assert_param(IS_GPIO_AF(GPIO_Init->Alternate));
        /* Configure Alternate function mapped with the current IO */
        temp = GPIOx->AFR[position >> 3U];
 80019a0:	69fb      	ldr	r3, [r7, #28]
 80019a2:	08da      	lsrs	r2, r3, #3
 80019a4:	687b      	ldr	r3, [r7, #4]
 80019a6:	3208      	adds	r2, #8
 80019a8:	f853 3022 	ldr.w	r3, [r3, r2, lsl #2]
 80019ac:	61bb      	str	r3, [r7, #24]
        temp &= ~(0xFU << ((uint32_t)(position & 0x07U) * 4U)) ;
 80019ae:	69fb      	ldr	r3, [r7, #28]
 80019b0:	f003 0307 	and.w	r3, r3, #7
 80019b4:	009b      	lsls	r3, r3, #2
 80019b6:	220f      	movs	r2, #15
 80019b8:	fa02 f303 	lsl.w	r3, r2, r3
 80019bc:	43db      	mvns	r3, r3
 80019be:	69ba      	ldr	r2, [r7, #24]
 80019c0:	4013      	ands	r3, r2
 80019c2:	61bb      	str	r3, [r7, #24]
        temp |= ((uint32_t)(GPIO_Init->Alternate) << (((uint32_t)position & 0x07U) * 4U));
 80019c4:	683b      	ldr	r3, [r7, #0]
 80019c6:	691a      	ldr	r2, [r3, #16]
 80019c8:	69fb      	ldr	r3, [r7, #28]
 80019ca:	f003 0307 	and.w	r3, r3, #7
 80019ce:	009b      	lsls	r3, r3, #2
 80019d0:	fa02 f303 	lsl.w	r3, r2, r3
 80019d4:	69ba      	ldr	r2, [r7, #24]
 80019d6:	4313      	orrs	r3, r2
 80019d8:	61bb      	str	r3, [r7, #24]
        GPIOx->AFR[position >> 3U] = temp;
 80019da:	69fb      	ldr	r3, [r7, #28]
 80019dc:	08da      	lsrs	r2, r3, #3
 80019de:	687b      	ldr	r3, [r7, #4]
 80019e0:	3208      	adds	r2, #8
 80019e2:	69b9      	ldr	r1, [r7, #24]
 80019e4:	f843 1022 	str.w	r1, [r3, r2, lsl #2]
      }

      /* Configure IO Direction mode (Input, Output, Alternate or Analog) */
      temp = GPIOx->MODER;
 80019e8:	687b      	ldr	r3, [r7, #4]
 80019ea:	681b      	ldr	r3, [r3, #0]
 80019ec:	61bb      	str	r3, [r7, #24]
      temp &= ~(GPIO_MODER_MODER0 << (position * 2U));
 80019ee:	69fb      	ldr	r3, [r7, #28]
 80019f0:	005b      	lsls	r3, r3, #1
 80019f2:	2203      	movs	r2, #3
 80019f4:	fa02 f303 	lsl.w	r3, r2, r3
 80019f8:	43db      	mvns	r3, r3
 80019fa:	69ba      	ldr	r2, [r7, #24]
 80019fc:	4013      	ands	r3, r2
 80019fe:	61bb      	str	r3, [r7, #24]
      temp |= ((GPIO_Init->Mode & GPIO_MODE) << (position * 2U));
 8001a00:	683b      	ldr	r3, [r7, #0]
 8001a02:	685b      	ldr	r3, [r3, #4]
 8001a04:	f003 0203 	and.w	r2, r3, #3
 8001a08:	69fb      	ldr	r3, [r7, #28]
 8001a0a:	005b      	lsls	r3, r3, #1
 8001a0c:	fa02 f303 	lsl.w	r3, r2, r3
 8001a10:	69ba      	ldr	r2, [r7, #24]
 8001a12:	4313      	orrs	r3, r2
 8001a14:	61bb      	str	r3, [r7, #24]
      GPIOx->MODER = temp;
 8001a16:	687b      	ldr	r3, [r7, #4]
 8001a18:	69ba      	ldr	r2, [r7, #24]
 8001a1a:	601a      	str	r2, [r3, #0]

      /*--------------------- EXTI Mode Configuration ------------------------*/
      /* Configure the External Interrupt or event for the current IO */
      if((GPIO_Init->Mode & EXTI_MODE) == EXTI_MODE)
 8001a1c:	683b      	ldr	r3, [r7, #0]
 8001a1e:	685b      	ldr	r3, [r3, #4]
 8001a20:	f003 5380 	and.w	r3, r3, #268435456	; 0x10000000
 8001a24:	2b00      	cmp	r3, #0
 8001a26:	f000 80b4 	beq.w	8001b92 <HAL_GPIO_Init+0x2ee>
      {
        /* Enable SYSCFG Clock */
        __HAL_RCC_SYSCFG_CLK_ENABLE();
 8001a2a:	2300      	movs	r3, #0
 8001a2c:	60fb      	str	r3, [r7, #12]
 8001a2e:	4b5f      	ldr	r3, [pc, #380]	; (8001bac <HAL_GPIO_Init+0x308>)
 8001a30:	6c5b      	ldr	r3, [r3, #68]	; 0x44
 8001a32:	4a5e      	ldr	r2, [pc, #376]	; (8001bac <HAL_GPIO_Init+0x308>)
 8001a34:	f443 4380 	orr.w	r3, r3, #16384	; 0x4000
 8001a38:	6453      	str	r3, [r2, #68]	; 0x44
 8001a3a:	4b5c      	ldr	r3, [pc, #368]	; (8001bac <HAL_GPIO_Init+0x308>)
 8001a3c:	6c5b      	ldr	r3, [r3, #68]	; 0x44
 8001a3e:	f403 4380 	and.w	r3, r3, #16384	; 0x4000
 8001a42:	60fb      	str	r3, [r7, #12]
 8001a44:	68fb      	ldr	r3, [r7, #12]

        temp = SYSCFG->EXTICR[position >> 2U];
 8001a46:	4a5a      	ldr	r2, [pc, #360]	; (8001bb0 <HAL_GPIO_Init+0x30c>)
 8001a48:	69fb      	ldr	r3, [r7, #28]
 8001a4a:	089b      	lsrs	r3, r3, #2
 8001a4c:	3302      	adds	r3, #2
 8001a4e:	f852 3023 	ldr.w	r3, [r2, r3, lsl #2]
 8001a52:	61bb      	str	r3, [r7, #24]
        temp &= ~(0x0FU << (4U * (position & 0x03U)));
 8001a54:	69fb      	ldr	r3, [r7, #28]
 8001a56:	f003 0303 	and.w	r3, r3, #3
 8001a5a:	009b      	lsls	r3, r3, #2
 8001a5c:	220f      	movs	r2, #15
 8001a5e:	fa02 f303 	lsl.w	r3, r2, r3
 8001a62:	43db      	mvns	r3, r3
 8001a64:	69ba      	ldr	r2, [r7, #24]
 8001a66:	4013      	ands	r3, r2
 8001a68:	61bb      	str	r3, [r7, #24]
        temp |= ((uint32_t)(GPIO_GET_INDEX(GPIOx)) << (4U * (position & 0x03U)));
 8001a6a:	687b      	ldr	r3, [r7, #4]
 8001a6c:	4a51      	ldr	r2, [pc, #324]	; (8001bb4 <HAL_GPIO_Init+0x310>)
 8001a6e:	4293      	cmp	r3, r2
 8001a70:	d02b      	beq.n	8001aca <HAL_GPIO_Init+0x226>
 8001a72:	687b      	ldr	r3, [r7, #4]
 8001a74:	4a50      	ldr	r2, [pc, #320]	; (8001bb8 <HAL_GPIO_Init+0x314>)
 8001a76:	4293      	cmp	r3, r2
 8001a78:	d025      	beq.n	8001ac6 <HAL_GPIO_Init+0x222>
 8001a7a:	687b      	ldr	r3, [r7, #4]
 8001a7c:	4a4f      	ldr	r2, [pc, #316]	; (8001bbc <HAL_GPIO_Init+0x318>)
 8001a7e:	4293      	cmp	r3, r2
 8001a80:	d01f      	beq.n	8001ac2 <HAL_GPIO_Init+0x21e>
 8001a82:	687b      	ldr	r3, [r7, #4]
 8001a84:	4a4e      	ldr	r2, [pc, #312]	; (8001bc0 <HAL_GPIO_Init+0x31c>)
 8001a86:	4293      	cmp	r3, r2
 8001a88:	d019      	beq.n	8001abe <HAL_GPIO_Init+0x21a>
 8001a8a:	687b      	ldr	r3, [r7, #4]
 8001a8c:	4a4d      	ldr	r2, [pc, #308]	; (8001bc4 <HAL_GPIO_Init+0x320>)
 8001a8e:	4293      	cmp	r3, r2
 8001a90:	d013      	beq.n	8001aba <HAL_GPIO_Init+0x216>
 8001a92:	687b      	ldr	r3, [r7, #4]
 8001a94:	4a4c      	ldr	r2, [pc, #304]	; (8001bc8 <HAL_GPIO_Init+0x324>)
 8001a96:	4293      	cmp	r3, r2
 8001a98:	d00d      	beq.n	8001ab6 <HAL_GPIO_Init+0x212>
 8001a9a:	687b      	ldr	r3, [r7, #4]
 8001a9c:	4a4b      	ldr	r2, [pc, #300]	; (8001bcc <HAL_GPIO_Init+0x328>)
 8001a9e:	4293      	cmp	r3, r2
 8001aa0:	d007      	beq.n	8001ab2 <HAL_GPIO_Init+0x20e>
 8001aa2:	687b      	ldr	r3, [r7, #4]
 8001aa4:	4a4a      	ldr	r2, [pc, #296]	; (8001bd0 <HAL_GPIO_Init+0x32c>)
 8001aa6:	4293      	cmp	r3, r2
 8001aa8:	d101      	bne.n	8001aae <HAL_GPIO_Init+0x20a>
 8001aaa:	2307      	movs	r3, #7
 8001aac:	e00e      	b.n	8001acc <HAL_GPIO_Init+0x228>
 8001aae:	2308      	movs	r3, #8
 8001ab0:	e00c      	b.n	8001acc <HAL_GPIO_Init+0x228>
 8001ab2:	2306      	movs	r3, #6
 8001ab4:	e00a      	b.n	8001acc <HAL_GPIO_Init+0x228>
 8001ab6:	2305      	movs	r3, #5
 8001ab8:	e008      	b.n	8001acc <HAL_GPIO_Init+0x228>
 8001aba:	2304      	movs	r3, #4
 8001abc:	e006      	b.n	8001acc <HAL_GPIO_Init+0x228>
 8001abe:	2303      	movs	r3, #3
 8001ac0:	e004      	b.n	8001acc <HAL_GPIO_Init+0x228>
 8001ac2:	2302      	movs	r3, #2
 8001ac4:	e002      	b.n	8001acc <HAL_GPIO_Init+0x228>
 8001ac6:	2301      	movs	r3, #1
 8001ac8:	e000      	b.n	8001acc <HAL_GPIO_Init+0x228>
 8001aca:	2300      	movs	r3, #0
 8001acc:	69fa      	ldr	r2, [r7, #28]
 8001ace:	f002 0203 	and.w	r2, r2, #3
 8001ad2:	0092      	lsls	r2, r2, #2
 8001ad4:	4093      	lsls	r3, r2
 8001ad6:	69ba      	ldr	r2, [r7, #24]
 8001ad8:	4313      	orrs	r3, r2
 8001ada:	61bb      	str	r3, [r7, #24]
        SYSCFG->EXTICR[position >> 2U] = temp;
 8001adc:	4934      	ldr	r1, [pc, #208]	; (8001bb0 <HAL_GPIO_Init+0x30c>)
 8001ade:	69fb      	ldr	r3, [r7, #28]
 8001ae0:	089b      	lsrs	r3, r3, #2
 8001ae2:	3302      	adds	r3, #2
 8001ae4:	69ba      	ldr	r2, [r7, #24]
 8001ae6:	f841 2023 	str.w	r2, [r1, r3, lsl #2]

        /* Clear EXTI line configuration */
        temp = EXTI->IMR;
 8001aea:	4b3a      	ldr	r3, [pc, #232]	; (8001bd4 <HAL_GPIO_Init+0x330>)
 8001aec:	681b      	ldr	r3, [r3, #0]
 8001aee:	61bb      	str	r3, [r7, #24]
        temp &= ~((uint32_t)iocurrent);
 8001af0:	693b      	ldr	r3, [r7, #16]
 8001af2:	43db      	mvns	r3, r3
 8001af4:	69ba      	ldr	r2, [r7, #24]
 8001af6:	4013      	ands	r3, r2
 8001af8:	61bb      	str	r3, [r7, #24]
        if((GPIO_Init->Mode & GPIO_MODE_IT) == GPIO_MODE_IT)
 8001afa:	683b      	ldr	r3, [r7, #0]
 8001afc:	685b      	ldr	r3, [r3, #4]
 8001afe:	f403 3380 	and.w	r3, r3, #65536	; 0x10000
 8001b02:	2b00      	cmp	r3, #0
 8001b04:	d003      	beq.n	8001b0e <HAL_GPIO_Init+0x26a>
        {
          temp |= iocurrent;
 8001b06:	69ba      	ldr	r2, [r7, #24]
 8001b08:	693b      	ldr	r3, [r7, #16]
 8001b0a:	4313      	orrs	r3, r2
 8001b0c:	61bb      	str	r3, [r7, #24]
        }
        EXTI->IMR = temp;
 8001b0e:	4a31      	ldr	r2, [pc, #196]	; (8001bd4 <HAL_GPIO_Init+0x330>)
 8001b10:	69bb      	ldr	r3, [r7, #24]
 8001b12:	6013      	str	r3, [r2, #0]

        temp = EXTI->EMR;
 8001b14:	4b2f      	ldr	r3, [pc, #188]	; (8001bd4 <HAL_GPIO_Init+0x330>)
 8001b16:	685b      	ldr	r3, [r3, #4]
 8001b18:	61bb      	str	r3, [r7, #24]
        temp &= ~((uint32_t)iocurrent);
 8001b1a:	693b      	ldr	r3, [r7, #16]
 8001b1c:	43db      	mvns	r3, r3
 8001b1e:	69ba      	ldr	r2, [r7, #24]
 8001b20:	4013      	ands	r3, r2
 8001b22:	61bb      	str	r3, [r7, #24]
        if((GPIO_Init->Mode & GPIO_MODE_EVT) == GPIO_MODE_EVT)
 8001b24:	683b      	ldr	r3, [r7, #0]
 8001b26:	685b      	ldr	r3, [r3, #4]
 8001b28:	f403 3300 	and.w	r3, r3, #131072	; 0x20000
 8001b2c:	2b00      	cmp	r3, #0
 8001b2e:	d003      	beq.n	8001b38 <HAL_GPIO_Init+0x294>
        {
          temp |= iocurrent;
 8001b30:	69ba      	ldr	r2, [r7, #24]
 8001b32:	693b      	ldr	r3, [r7, #16]
 8001b34:	4313      	orrs	r3, r2
 8001b36:	61bb      	str	r3, [r7, #24]
        }
        EXTI->EMR = temp;
 8001b38:	4a26      	ldr	r2, [pc, #152]	; (8001bd4 <HAL_GPIO_Init+0x330>)
 8001b3a:	69bb      	ldr	r3, [r7, #24]
 8001b3c:	6053      	str	r3, [r2, #4]

        /* Clear Rising Falling edge configuration */
        temp = EXTI->RTSR;
 8001b3e:	4b25      	ldr	r3, [pc, #148]	; (8001bd4 <HAL_GPIO_Init+0x330>)
 8001b40:	689b      	ldr	r3, [r3, #8]
 8001b42:	61bb      	str	r3, [r7, #24]
        temp &= ~((uint32_t)iocurrent);
 8001b44:	693b      	ldr	r3, [r7, #16]
 8001b46:	43db      	mvns	r3, r3
 8001b48:	69ba      	ldr	r2, [r7, #24]
 8001b4a:	4013      	ands	r3, r2
 8001b4c:	61bb      	str	r3, [r7, #24]
        if((GPIO_Init->Mode & RISING_EDGE) == RISING_EDGE)
 8001b4e:	683b      	ldr	r3, [r7, #0]
 8001b50:	685b      	ldr	r3, [r3, #4]
 8001b52:	f403 1380 	and.w	r3, r3, #1048576	; 0x100000
 8001b56:	2b00      	cmp	r3, #0
 8001b58:	d003      	beq.n	8001b62 <HAL_GPIO_Init+0x2be>
        {
          temp |= iocurrent;
 8001b5a:	69ba      	ldr	r2, [r7, #24]
 8001b5c:	693b      	ldr	r3, [r7, #16]
 8001b5e:	4313      	orrs	r3, r2
 8001b60:	61bb      	str	r3, [r7, #24]
        }
        EXTI->RTSR = temp;
 8001b62:	4a1c      	ldr	r2, [pc, #112]	; (8001bd4 <HAL_GPIO_Init+0x330>)
 8001b64:	69bb      	ldr	r3, [r7, #24]
 8001b66:	6093      	str	r3, [r2, #8]

        temp = EXTI->FTSR;
 8001b68:	4b1a      	ldr	r3, [pc, #104]	; (8001bd4 <HAL_GPIO_Init+0x330>)
 8001b6a:	68db      	ldr	r3, [r3, #12]
 8001b6c:	61bb      	str	r3, [r7, #24]
        temp &= ~((uint32_t)iocurrent);
 8001b6e:	693b      	ldr	r3, [r7, #16]
 8001b70:	43db      	mvns	r3, r3
 8001b72:	69ba      	ldr	r2, [r7, #24]
 8001b74:	4013      	ands	r3, r2
 8001b76:	61bb      	str	r3, [r7, #24]
        if((GPIO_Init->Mode & FALLING_EDGE) == FALLING_EDGE)
 8001b78:	683b      	ldr	r3, [r7, #0]
 8001b7a:	685b      	ldr	r3, [r3, #4]
 8001b7c:	f403 1300 	and.w	r3, r3, #2097152	; 0x200000
 8001b80:	2b00      	cmp	r3, #0
 8001b82:	d003      	beq.n	8001b8c <HAL_GPIO_Init+0x2e8>
        {
          temp |= iocurrent;
 8001b84:	69ba      	ldr	r2, [r7, #24]
 8001b86:	693b      	ldr	r3, [r7, #16]
 8001b88:	4313      	orrs	r3, r2
 8001b8a:	61bb      	str	r3, [r7, #24]
        }
        EXTI->FTSR = temp;
 8001b8c:	4a11      	ldr	r2, [pc, #68]	; (8001bd4 <HAL_GPIO_Init+0x330>)
 8001b8e:	69bb      	ldr	r3, [r7, #24]
 8001b90:	60d3      	str	r3, [r2, #12]
  for(position = 0U; position < GPIO_NUMBER; position++)
 8001b92:	69fb      	ldr	r3, [r7, #28]
 8001b94:	3301      	adds	r3, #1
 8001b96:	61fb      	str	r3, [r7, #28]
 8001b98:	69fb      	ldr	r3, [r7, #28]
 8001b9a:	2b0f      	cmp	r3, #15
 8001b9c:	f67f ae90 	bls.w	80018c0 <HAL_GPIO_Init+0x1c>
      }
    }
  }
}
 8001ba0:	bf00      	nop
 8001ba2:	3724      	adds	r7, #36	; 0x24
 8001ba4:	46bd      	mov	sp, r7
 8001ba6:	bc80      	pop	{r7}
 8001ba8:	4770      	bx	lr
 8001baa:	bf00      	nop
 8001bac:	40023800 	andmi	r3, r2, r0, lsl #16
 8001bb0:	40013800 	andmi	r3, r1, r0, lsl #16
 8001bb4:	40020000 	andmi	r0, r2, r0
 8001bb8:	40020400 	andmi	r0, r2, r0, lsl #8
 8001bbc:	40020800 	andmi	r0, r2, r0, lsl #16
 8001bc0:	40020c00 	andmi	r0, r2, r0, lsl #24
 8001bc4:	40021000 	andmi	r1, r2, r0
 8001bc8:	40021400 	andmi	r1, r2, r0, lsl #8
 8001bcc:	40021800 	andmi	r1, r2, r0, lsl #16
 8001bd0:	40021c00 	andmi	r1, r2, r0, lsl #24
 8001bd4:	40013c00 	andmi	r3, r1, r0, lsl #24

08001bd8 <HAL_UART_Init>:
  * @param  huart  Pointer to a UART_HandleTypeDef structure that contains
  *                the configuration information for the specified UART module.
  * @retval HAL status
  */
HAL_StatusTypeDef HAL_UART_Init(UART_HandleTypeDef *huart)
{
 8001bd8:	b580      	push	{r7, lr}
 8001bda:	b082      	sub	sp, #8
 8001bdc:	af00      	add	r7, sp, #0
 8001bde:	6078      	str	r0, [r7, #4]
  /* Check the UART handle allocation */
  if (huart == NULL)
 8001be0:	687b      	ldr	r3, [r7, #4]
 8001be2:	2b00      	cmp	r3, #0
 8001be4:	d101      	bne.n	8001bea <HAL_UART_Init+0x12>
  {
    return HAL_ERROR;
 8001be6:	2301      	movs	r3, #1
 8001be8:	e03f      	b.n	8001c6a <HAL_UART_Init+0x92>
    assert_param(IS_UART_INSTANCE(huart->Instance));
  }
  assert_param(IS_UART_WORD_LENGTH(huart->Init.WordLength));
  assert_param(IS_UART_OVERSAMPLING(huart->Init.OverSampling));

  if (huart->gState == HAL_UART_STATE_RESET)
 8001bea:	687b      	ldr	r3, [r7, #4]
 8001bec:	f893 303d 	ldrb.w	r3, [r3, #61]	; 0x3d
 8001bf0:	b2db      	uxtb	r3, r3
 8001bf2:	2b00      	cmp	r3, #0
 8001bf4:	d106      	bne.n	8001c04 <HAL_UART_Init+0x2c>
  {
    /* Allocate lock resource and initialize it */
    huart->Lock = HAL_UNLOCKED;
 8001bf6:	687b      	ldr	r3, [r7, #4]
 8001bf8:	2200      	movs	r2, #0
 8001bfa:	f883 203c 	strb.w	r2, [r3, #60]	; 0x3c

    /* Init the low level hardware */
    huart->MspInitCallback(huart);
#else
    /* Init the low level hardware : GPIO, CLOCK */
    HAL_UART_MspInit(huart);
 8001bfe:	6878      	ldr	r0, [r7, #4]
 8001c00:	f7ff fa18 	bl	8001034 <HAL_UART_MspInit>
#endif /* (USE_HAL_UART_REGISTER_CALLBACKS) */
  }

  huart->gState = HAL_UART_STATE_BUSY;
 8001c04:	687b      	ldr	r3, [r7, #4]
 8001c06:	2224      	movs	r2, #36	; 0x24
 8001c08:	f883 203d 	strb.w	r2, [r3, #61]	; 0x3d

  /* Disable the peripheral */
  __HAL_UART_DISABLE(huart);
 8001c0c:	687b      	ldr	r3, [r7, #4]
 8001c0e:	681b      	ldr	r3, [r3, #0]
 8001c10:	68da      	ldr	r2, [r3, #12]
 8001c12:	687b      	ldr	r3, [r7, #4]
 8001c14:	681b      	ldr	r3, [r3, #0]
 8001c16:	f422 5200 	bic.w	r2, r2, #8192	; 0x2000
 8001c1a:	60da      	str	r2, [r3, #12]

  /* Set the UART Communication parameters */
  UART_SetConfig(huart);
 8001c1c:	6878      	ldr	r0, [r7, #4]
 8001c1e:	f000 f829 	bl	8001c74 <UART_SetConfig>

  /* In asynchronous mode, the following bits must be kept cleared:
     - LINEN and CLKEN bits in the USART_CR2 register,
     - SCEN, HDSEL and IREN  bits in the USART_CR3 register.*/
  CLEAR_BIT(huart->Instance->CR2, (USART_CR2_LINEN | USART_CR2_CLKEN));
 8001c22:	687b      	ldr	r3, [r7, #4]
 8001c24:	681b      	ldr	r3, [r3, #0]
 8001c26:	691a      	ldr	r2, [r3, #16]
 8001c28:	687b      	ldr	r3, [r7, #4]
 8001c2a:	681b      	ldr	r3, [r3, #0]
 8001c2c:	f422 4290 	bic.w	r2, r2, #18432	; 0x4800
 8001c30:	611a      	str	r2, [r3, #16]
  CLEAR_BIT(huart->Instance->CR3, (USART_CR3_SCEN | USART_CR3_HDSEL | USART_CR3_IREN));
 8001c32:	687b      	ldr	r3, [r7, #4]
 8001c34:	681b      	ldr	r3, [r3, #0]
 8001c36:	695a      	ldr	r2, [r3, #20]
 8001c38:	687b      	ldr	r3, [r7, #4]
 8001c3a:	681b      	ldr	r3, [r3, #0]
 8001c3c:	f022 022a 	bic.w	r2, r2, #42	; 0x2a
 8001c40:	615a      	str	r2, [r3, #20]

  /* Enable the peripheral */
  __HAL_UART_ENABLE(huart);
 8001c42:	687b      	ldr	r3, [r7, #4]
 8001c44:	681b      	ldr	r3, [r3, #0]
 8001c46:	68da      	ldr	r2, [r3, #12]
 8001c48:	687b      	ldr	r3, [r7, #4]
 8001c4a:	681b      	ldr	r3, [r3, #0]
 8001c4c:	f442 5200 	orr.w	r2, r2, #8192	; 0x2000
 8001c50:	60da      	str	r2, [r3, #12]

  /* Initialize the UART state */
  huart->ErrorCode = HAL_UART_ERROR_NONE;
 8001c52:	687b      	ldr	r3, [r7, #4]
 8001c54:	2200      	movs	r2, #0
 8001c56:	641a      	str	r2, [r3, #64]	; 0x40
  huart->gState = HAL_UART_STATE_READY;
 8001c58:	687b      	ldr	r3, [r7, #4]
 8001c5a:	2220      	movs	r2, #32
 8001c5c:	f883 203d 	strb.w	r2, [r3, #61]	; 0x3d
  huart->RxState = HAL_UART_STATE_READY;
 8001c60:	687b      	ldr	r3, [r7, #4]
 8001c62:	2220      	movs	r2, #32
 8001c64:	f883 203e 	strb.w	r2, [r3, #62]	; 0x3e

  return HAL_OK;
 8001c68:	2300      	movs	r3, #0
}
 8001c6a:	4618      	mov	r0, r3
 8001c6c:	3708      	adds	r7, #8
 8001c6e:	46bd      	mov	sp, r7
 8001c70:	bd80      	pop	{r7, pc}
	...

08001c74 <UART_SetConfig>:
  * @param  huart  Pointer to a UART_HandleTypeDef structure that contains
  *                the configuration information for the specified UART module.
  * @retval None
  */
static void UART_SetConfig(UART_HandleTypeDef *huart)
{
 8001c74:	e92d 4ff0 	stmdb	sp!, {r4, r5, r6, r7, r8, r9, sl, fp, lr}
 8001c78:	b09f      	sub	sp, #124	; 0x7c
 8001c7a:	af00      	add	r7, sp, #0
 8001c7c:	66f8      	str	r0, [r7, #108]	; 0x6c
  assert_param(IS_UART_MODE(huart->Init.Mode));

  /*-------------------------- USART CR2 Configuration -----------------------*/
  /* Configure the UART Stop Bits: Set STOP[13:12] bits
     according to huart->Init.StopBits value */
  MODIFY_REG(huart->Instance->CR2, USART_CR2_STOP, huart->Init.StopBits);
 8001c7e:	6efb      	ldr	r3, [r7, #108]	; 0x6c
 8001c80:	681b      	ldr	r3, [r3, #0]
 8001c82:	691b      	ldr	r3, [r3, #16]
 8001c84:	f423 5040 	bic.w	r0, r3, #12288	; 0x3000
 8001c88:	6efb      	ldr	r3, [r7, #108]	; 0x6c
 8001c8a:	68d9      	ldr	r1, [r3, #12]
 8001c8c:	6efb      	ldr	r3, [r7, #108]	; 0x6c
 8001c8e:	681a      	ldr	r2, [r3, #0]
 8001c90:	ea40 0301 	orr.w	r3, r0, r1
 8001c94:	6113      	str	r3, [r2, #16]
     Set the M bits according to huart->Init.WordLength value
     Set PCE and PS bits according to huart->Init.Parity value
     Set TE and RE bits according to huart->Init.Mode value
     Set OVER8 bit according to huart->Init.OverSampling value */

  tmpreg = (uint32_t)huart->Init.WordLength | huart->Init.Parity | huart->Init.Mode | huart->Init.OverSampling;
 8001c96:	6efb      	ldr	r3, [r7, #108]	; 0x6c
 8001c98:	689a      	ldr	r2, [r3, #8]
 8001c9a:	6efb      	ldr	r3, [r7, #108]	; 0x6c
 8001c9c:	691b      	ldr	r3, [r3, #16]
 8001c9e:	431a      	orrs	r2, r3
 8001ca0:	6efb      	ldr	r3, [r7, #108]	; 0x6c
 8001ca2:	695b      	ldr	r3, [r3, #20]
 8001ca4:	431a      	orrs	r2, r3
 8001ca6:	6efb      	ldr	r3, [r7, #108]	; 0x6c
 8001ca8:	69db      	ldr	r3, [r3, #28]
 8001caa:	4313      	orrs	r3, r2
 8001cac:	673b      	str	r3, [r7, #112]	; 0x70
  MODIFY_REG(huart->Instance->CR1,
 8001cae:	6efb      	ldr	r3, [r7, #108]	; 0x6c
 8001cb0:	681b      	ldr	r3, [r3, #0]
 8001cb2:	68db      	ldr	r3, [r3, #12]
 8001cb4:	f423 4116 	bic.w	r1, r3, #38400	; 0x9600
 8001cb8:	f021 010c 	bic.w	r1, r1, #12
 8001cbc:	6efb      	ldr	r3, [r7, #108]	; 0x6c
 8001cbe:	681a      	ldr	r2, [r3, #0]
 8001cc0:	6f3b      	ldr	r3, [r7, #112]	; 0x70
 8001cc2:	430b      	orrs	r3, r1
 8001cc4:	60d3      	str	r3, [r2, #12]
             (uint32_t)(USART_CR1_M | USART_CR1_PCE | USART_CR1_PS | USART_CR1_TE | USART_CR1_RE | USART_CR1_OVER8),
             tmpreg);

  /*-------------------------- USART CR3 Configuration -----------------------*/
  /* Configure the UART HFC: Set CTSE and RTSE bits according to huart->Init.HwFlowCtl value */
  MODIFY_REG(huart->Instance->CR3, (USART_CR3_RTSE | USART_CR3_CTSE), huart->Init.HwFlowCtl);
 8001cc6:	6efb      	ldr	r3, [r7, #108]	; 0x6c
 8001cc8:	681b      	ldr	r3, [r3, #0]
 8001cca:	695b      	ldr	r3, [r3, #20]
 8001ccc:	f423 7040 	bic.w	r0, r3, #768	; 0x300
 8001cd0:	6efb      	ldr	r3, [r7, #108]	; 0x6c
 8001cd2:	6999      	ldr	r1, [r3, #24]
 8001cd4:	6efb      	ldr	r3, [r7, #108]	; 0x6c
 8001cd6:	681a      	ldr	r2, [r3, #0]
 8001cd8:	ea40 0301 	orr.w	r3, r0, r1
 8001cdc:	6153      	str	r3, [r2, #20]
    if ((huart->Instance == USART1) || (huart->Instance == USART6) || (huart->Instance == UART9) || (huart->Instance == UART10))
    {
      pclk = HAL_RCC_GetPCLK2Freq();
    }
#elif defined(USART6)
    if ((huart->Instance == USART1) || (huart->Instance == USART6))
 8001cde:	6efb      	ldr	r3, [r7, #108]	; 0x6c
 8001ce0:	681a      	ldr	r2, [r3, #0]
 8001ce2:	4b6d      	ldr	r3, [pc, #436]	; (8001e98 <UART_SetConfig+0x224>)
 8001ce4:	429a      	cmp	r2, r3
 8001ce6:	d004      	beq.n	8001cf2 <UART_SetConfig+0x7e>
 8001ce8:	6efb      	ldr	r3, [r7, #108]	; 0x6c
 8001cea:	681a      	ldr	r2, [r3, #0]
 8001cec:	4b6b      	ldr	r3, [pc, #428]	; (8001e9c <UART_SetConfig+0x228>)
 8001cee:	429a      	cmp	r2, r3
 8001cf0:	d103      	bne.n	8001cfa <UART_SetConfig+0x86>
    {
      pclk = HAL_RCC_GetPCLK2Freq();
 8001cf2:	f7ff fc67 	bl	80015c4 <HAL_RCC_GetPCLK2Freq>
 8001cf6:	6778      	str	r0, [r7, #116]	; 0x74
 8001cf8:	e002      	b.n	8001d00 <UART_SetConfig+0x8c>
      pclk = HAL_RCC_GetPCLK2Freq();
    }
#endif /* USART6 */
    else
    {
      pclk = HAL_RCC_GetPCLK1Freq();
 8001cfa:	f7ff fc4f 	bl	800159c <HAL_RCC_GetPCLK1Freq>
 8001cfe:	6778      	str	r0, [r7, #116]	; 0x74
    }
  /*-------------------------- USART BRR Configuration ---------------------*/
  if (huart->Init.OverSampling == UART_OVERSAMPLING_8)
 8001d00:	6efb      	ldr	r3, [r7, #108]	; 0x6c
 8001d02:	69db      	ldr	r3, [r3, #28]
 8001d04:	f5b3 4f00 	cmp.w	r3, #32768	; 0x8000
 8001d08:	f040 80cc 	bne.w	8001ea4 <UART_SetConfig+0x230>
  {
    huart->Instance->BRR = UART_BRR_SAMPLING8(pclk, huart->Init.BaudRate);
 8001d0c:	6f7b      	ldr	r3, [r7, #116]	; 0x74
 8001d0e:	461d      	mov	r5, r3
 8001d10:	f04f 0600 	mov.w	r6, #0
 8001d14:	462b      	mov	r3, r5
 8001d16:	4634      	mov	r4, r6
 8001d18:	eb13 0a03 	adds.w	sl, r3, r3
 8001d1c:	eb44 0b04 	adc.w	fp, r4, r4
 8001d20:	4653      	mov	r3, sl
 8001d22:	465c      	mov	r4, fp
 8001d24:	195b      	adds	r3, r3, r5
 8001d26:	eb46 0404 	adc.w	r4, r6, r4
 8001d2a:	f04f 0100 	mov.w	r1, #0
 8001d2e:	f04f 0200 	mov.w	r2, #0
 8001d32:	00e2      	lsls	r2, r4, #3
 8001d34:	ea42 7253 	orr.w	r2, r2, r3, lsr #29
 8001d38:	00d9      	lsls	r1, r3, #3
 8001d3a:	460b      	mov	r3, r1
 8001d3c:	4614      	mov	r4, r2
 8001d3e:	195a      	adds	r2, r3, r5
 8001d40:	663a      	str	r2, [r7, #96]	; 0x60
 8001d42:	eb44 0306 	adc.w	r3, r4, r6
 8001d46:	667b      	str	r3, [r7, #100]	; 0x64
 8001d48:	6efb      	ldr	r3, [r7, #108]	; 0x6c
 8001d4a:	685b      	ldr	r3, [r3, #4]
 8001d4c:	f04f 0400 	mov.w	r4, #0
 8001d50:	18da      	adds	r2, r3, r3
 8001d52:	633a      	str	r2, [r7, #48]	; 0x30
 8001d54:	eb44 0304 	adc.w	r3, r4, r4
 8001d58:	637b      	str	r3, [r7, #52]	; 0x34
 8001d5a:	e9d7 340c 	ldrd	r3, r4, [r7, #48]	; 0x30
 8001d5e:	461a      	mov	r2, r3
 8001d60:	4623      	mov	r3, r4
 8001d62:	e9d7 0118 	ldrd	r0, r1, [r7, #96]	; 0x60
 8001d66:	f7fe fef1 	bl	8000b4c <__aeabi_uldivmod>
 8001d6a:	4603      	mov	r3, r0
 8001d6c:	460c      	mov	r4, r1
 8001d6e:	461a      	mov	r2, r3
 8001d70:	4b4b      	ldr	r3, [pc, #300]	; (8001ea0 <UART_SetConfig+0x22c>)
 8001d72:	fba3 2302 	umull	r2, r3, r3, r2
 8001d76:	095b      	lsrs	r3, r3, #5
 8001d78:	ea4f 1803 	mov.w	r8, r3, lsl #4
 8001d7c:	6f7b      	ldr	r3, [r7, #116]	; 0x74
 8001d7e:	461d      	mov	r5, r3
 8001d80:	f04f 0600 	mov.w	r6, #0
 8001d84:	462b      	mov	r3, r5
 8001d86:	4634      	mov	r4, r6
 8001d88:	18da      	adds	r2, r3, r3
 8001d8a:	62ba      	str	r2, [r7, #40]	; 0x28
 8001d8c:	eb44 0304 	adc.w	r3, r4, r4
 8001d90:	62fb      	str	r3, [r7, #44]	; 0x2c
 8001d92:	e9d7 340a 	ldrd	r3, r4, [r7, #40]	; 0x28
 8001d96:	195b      	adds	r3, r3, r5
 8001d98:	eb46 0404 	adc.w	r4, r6, r4
 8001d9c:	f04f 0100 	mov.w	r1, #0
 8001da0:	f04f 0200 	mov.w	r2, #0
 8001da4:	00e2      	lsls	r2, r4, #3
 8001da6:	ea42 7253 	orr.w	r2, r2, r3, lsr #29
 8001daa:	00d9      	lsls	r1, r3, #3
 8001dac:	460b      	mov	r3, r1
 8001dae:	4614      	mov	r4, r2
 8001db0:	195a      	adds	r2, r3, r5
 8001db2:	65ba      	str	r2, [r7, #88]	; 0x58
 8001db4:	eb44 0306 	adc.w	r3, r4, r6
 8001db8:	65fb      	str	r3, [r7, #92]	; 0x5c
 8001dba:	6efb      	ldr	r3, [r7, #108]	; 0x6c
 8001dbc:	685b      	ldr	r3, [r3, #4]
 8001dbe:	f04f 0400 	mov.w	r4, #0
 8001dc2:	18da      	adds	r2, r3, r3
 8001dc4:	623a      	str	r2, [r7, #32]
 8001dc6:	eb44 0304 	adc.w	r3, r4, r4
 8001dca:	627b      	str	r3, [r7, #36]	; 0x24
 8001dcc:	e9d7 3408 	ldrd	r3, r4, [r7, #32]
 8001dd0:	461a      	mov	r2, r3
 8001dd2:	4623      	mov	r3, r4
 8001dd4:	e9d7 0116 	ldrd	r0, r1, [r7, #88]	; 0x58
 8001dd8:	f7fe feb8 	bl	8000b4c <__aeabi_uldivmod>
 8001ddc:	4603      	mov	r3, r0
 8001dde:	460c      	mov	r4, r1
 8001de0:	461a      	mov	r2, r3
 8001de2:	4b2f      	ldr	r3, [pc, #188]	; (8001ea0 <UART_SetConfig+0x22c>)
 8001de4:	fba3 1302 	umull	r1, r3, r3, r2
 8001de8:	095b      	lsrs	r3, r3, #5
 8001dea:	2164      	movs	r1, #100	; 0x64
 8001dec:	fb01 f303 	mul.w	r3, r1, r3
 8001df0:	1ad3      	subs	r3, r2, r3
 8001df2:	00db      	lsls	r3, r3, #3
 8001df4:	3332      	adds	r3, #50	; 0x32
 8001df6:	4a2a      	ldr	r2, [pc, #168]	; (8001ea0 <UART_SetConfig+0x22c>)
 8001df8:	fba2 2303 	umull	r2, r3, r2, r3
 8001dfc:	095b      	lsrs	r3, r3, #5
 8001dfe:	005b      	lsls	r3, r3, #1
 8001e00:	f403 73f8 	and.w	r3, r3, #496	; 0x1f0
 8001e04:	4498      	add	r8, r3
 8001e06:	6f7b      	ldr	r3, [r7, #116]	; 0x74
 8001e08:	4619      	mov	r1, r3
 8001e0a:	f04f 0200 	mov.w	r2, #0
 8001e0e:	460b      	mov	r3, r1
 8001e10:	4614      	mov	r4, r2
 8001e12:	18d8      	adds	r0, r3, r3
 8001e14:	61b8      	str	r0, [r7, #24]
 8001e16:	eb44 0304 	adc.w	r3, r4, r4
 8001e1a:	61fb      	str	r3, [r7, #28]
 8001e1c:	e9d7 3406 	ldrd	r3, r4, [r7, #24]
 8001e20:	185b      	adds	r3, r3, r1
 8001e22:	eb42 0404 	adc.w	r4, r2, r4
 8001e26:	f04f 0500 	mov.w	r5, #0
 8001e2a:	f04f 0600 	mov.w	r6, #0
 8001e2e:	00e6      	lsls	r6, r4, #3
 8001e30:	ea46 7653 	orr.w	r6, r6, r3, lsr #29
 8001e34:	00dd      	lsls	r5, r3, #3
 8001e36:	462b      	mov	r3, r5
 8001e38:	4634      	mov	r4, r6
 8001e3a:	1858      	adds	r0, r3, r1
 8001e3c:	6538      	str	r0, [r7, #80]	; 0x50
 8001e3e:	eb44 0302 	adc.w	r3, r4, r2
 8001e42:	657b      	str	r3, [r7, #84]	; 0x54
 8001e44:	6efb      	ldr	r3, [r7, #108]	; 0x6c
 8001e46:	685b      	ldr	r3, [r3, #4]
 8001e48:	f04f 0400 	mov.w	r4, #0
 8001e4c:	18da      	adds	r2, r3, r3
 8001e4e:	613a      	str	r2, [r7, #16]
 8001e50:	eb44 0304 	adc.w	r3, r4, r4
 8001e54:	617b      	str	r3, [r7, #20]
 8001e56:	e9d7 3404 	ldrd	r3, r4, [r7, #16]
 8001e5a:	461a      	mov	r2, r3
 8001e5c:	4623      	mov	r3, r4
 8001e5e:	e9d7 0114 	ldrd	r0, r1, [r7, #80]	; 0x50
 8001e62:	f7fe fe73 	bl	8000b4c <__aeabi_uldivmod>
 8001e66:	4603      	mov	r3, r0
 8001e68:	460c      	mov	r4, r1
 8001e6a:	461a      	mov	r2, r3
 8001e6c:	4b0c      	ldr	r3, [pc, #48]	; (8001ea0 <UART_SetConfig+0x22c>)
 8001e6e:	fba3 1302 	umull	r1, r3, r3, r2
 8001e72:	095b      	lsrs	r3, r3, #5
 8001e74:	2164      	movs	r1, #100	; 0x64
 8001e76:	fb01 f303 	mul.w	r3, r1, r3
 8001e7a:	1ad3      	subs	r3, r2, r3
 8001e7c:	00db      	lsls	r3, r3, #3
 8001e7e:	3332      	adds	r3, #50	; 0x32
 8001e80:	4a07      	ldr	r2, [pc, #28]	; (8001ea0 <UART_SetConfig+0x22c>)
 8001e82:	fba2 2303 	umull	r2, r3, r2, r3
 8001e86:	095b      	lsrs	r3, r3, #5
 8001e88:	f003 0207 	and.w	r2, r3, #7
 8001e8c:	6efb      	ldr	r3, [r7, #108]	; 0x6c
 8001e8e:	681b      	ldr	r3, [r3, #0]
 8001e90:	4442      	add	r2, r8
 8001e92:	609a      	str	r2, [r3, #8]
  }
  else
  {
    huart->Instance->BRR = UART_BRR_SAMPLING16(pclk, huart->Init.BaudRate);
  }
}
 8001e94:	e0cf      	b.n	8002036 <UART_SetConfig+0x3c2>
 8001e96:	bf00      	nop
 8001e98:	40011000 	andmi	r1, r1, r0
 8001e9c:	40011400 	andmi	r1, r1, r0, lsl #8
 8001ea0:	51eb851f 	mvnpl	r8, pc, lsl r5
    huart->Instance->BRR = UART_BRR_SAMPLING16(pclk, huart->Init.BaudRate);
 8001ea4:	6f7b      	ldr	r3, [r7, #116]	; 0x74
 8001ea6:	461d      	mov	r5, r3
 8001ea8:	f04f 0600 	mov.w	r6, #0
 8001eac:	462b      	mov	r3, r5
 8001eae:	4634      	mov	r4, r6
 8001eb0:	eb13 0803 	adds.w	r8, r3, r3
 8001eb4:	eb44 0904 	adc.w	r9, r4, r4
 8001eb8:	4643      	mov	r3, r8
 8001eba:	464c      	mov	r4, r9
 8001ebc:	195b      	adds	r3, r3, r5
 8001ebe:	eb46 0404 	adc.w	r4, r6, r4
 8001ec2:	f04f 0100 	mov.w	r1, #0
 8001ec6:	f04f 0200 	mov.w	r2, #0
 8001eca:	00e2      	lsls	r2, r4, #3
 8001ecc:	ea42 7253 	orr.w	r2, r2, r3, lsr #29
 8001ed0:	00d9      	lsls	r1, r3, #3
 8001ed2:	460b      	mov	r3, r1
 8001ed4:	4614      	mov	r4, r2
 8001ed6:	195a      	adds	r2, r3, r5
 8001ed8:	64ba      	str	r2, [r7, #72]	; 0x48
 8001eda:	eb44 0306 	adc.w	r3, r4, r6
 8001ede:	64fb      	str	r3, [r7, #76]	; 0x4c
 8001ee0:	6efb      	ldr	r3, [r7, #108]	; 0x6c
 8001ee2:	685b      	ldr	r3, [r3, #4]
 8001ee4:	4619      	mov	r1, r3
 8001ee6:	f04f 0200 	mov.w	r2, #0
 8001eea:	f04f 0300 	mov.w	r3, #0
 8001eee:	f04f 0400 	mov.w	r4, #0
 8001ef2:	0094      	lsls	r4, r2, #2
 8001ef4:	ea44 7491 	orr.w	r4, r4, r1, lsr #30
 8001ef8:	008b      	lsls	r3, r1, #2
 8001efa:	461a      	mov	r2, r3
 8001efc:	4623      	mov	r3, r4
 8001efe:	e9d7 0112 	ldrd	r0, r1, [r7, #72]	; 0x48
 8001f02:	f7fe fe23 	bl	8000b4c <__aeabi_uldivmod>
 8001f06:	4603      	mov	r3, r0
 8001f08:	460c      	mov	r4, r1
 8001f0a:	461a      	mov	r2, r3
 8001f0c:	4b4c      	ldr	r3, [pc, #304]	; (8002040 <UART_SetConfig+0x3cc>)
 8001f0e:	fba3 2302 	umull	r2, r3, r3, r2
 8001f12:	095b      	lsrs	r3, r3, #5
 8001f14:	ea4f 1803 	mov.w	r8, r3, lsl #4
 8001f18:	6f7b      	ldr	r3, [r7, #116]	; 0x74
 8001f1a:	4619      	mov	r1, r3
 8001f1c:	f04f 0200 	mov.w	r2, #0
 8001f20:	460b      	mov	r3, r1
 8001f22:	4614      	mov	r4, r2
 8001f24:	18d8      	adds	r0, r3, r3
 8001f26:	60b8      	str	r0, [r7, #8]
 8001f28:	eb44 0304 	adc.w	r3, r4, r4
 8001f2c:	60fb      	str	r3, [r7, #12]
 8001f2e:	e9d7 3402 	ldrd	r3, r4, [r7, #8]
 8001f32:	185b      	adds	r3, r3, r1
 8001f34:	eb42 0404 	adc.w	r4, r2, r4
 8001f38:	f04f 0500 	mov.w	r5, #0
 8001f3c:	f04f 0600 	mov.w	r6, #0
 8001f40:	00e6      	lsls	r6, r4, #3
 8001f42:	ea46 7653 	orr.w	r6, r6, r3, lsr #29
 8001f46:	00dd      	lsls	r5, r3, #3
 8001f48:	462b      	mov	r3, r5
 8001f4a:	4634      	mov	r4, r6
 8001f4c:	1858      	adds	r0, r3, r1
 8001f4e:	6438      	str	r0, [r7, #64]	; 0x40
 8001f50:	eb44 0302 	adc.w	r3, r4, r2
 8001f54:	647b      	str	r3, [r7, #68]	; 0x44
 8001f56:	6efb      	ldr	r3, [r7, #108]	; 0x6c
 8001f58:	685b      	ldr	r3, [r3, #4]
 8001f5a:	4619      	mov	r1, r3
 8001f5c:	f04f 0200 	mov.w	r2, #0
 8001f60:	f04f 0300 	mov.w	r3, #0
 8001f64:	f04f 0400 	mov.w	r4, #0
 8001f68:	0094      	lsls	r4, r2, #2
 8001f6a:	ea44 7491 	orr.w	r4, r4, r1, lsr #30
 8001f6e:	008b      	lsls	r3, r1, #2
 8001f70:	461a      	mov	r2, r3
 8001f72:	4623      	mov	r3, r4
 8001f74:	e9d7 0110 	ldrd	r0, r1, [r7, #64]	; 0x40
 8001f78:	f7fe fde8 	bl	8000b4c <__aeabi_uldivmod>
 8001f7c:	4603      	mov	r3, r0
 8001f7e:	460c      	mov	r4, r1
 8001f80:	461a      	mov	r2, r3
 8001f82:	4b2f      	ldr	r3, [pc, #188]	; (8002040 <UART_SetConfig+0x3cc>)
 8001f84:	fba3 1302 	umull	r1, r3, r3, r2
 8001f88:	095b      	lsrs	r3, r3, #5
 8001f8a:	2164      	movs	r1, #100	; 0x64
 8001f8c:	fb01 f303 	mul.w	r3, r1, r3
 8001f90:	1ad3      	subs	r3, r2, r3
 8001f92:	011b      	lsls	r3, r3, #4
 8001f94:	3332      	adds	r3, #50	; 0x32
 8001f96:	4a2a      	ldr	r2, [pc, #168]	; (8002040 <UART_SetConfig+0x3cc>)
 8001f98:	fba2 2303 	umull	r2, r3, r2, r3
 8001f9c:	095b      	lsrs	r3, r3, #5
 8001f9e:	f003 03f0 	and.w	r3, r3, #240	; 0xf0
 8001fa2:	4498      	add	r8, r3
 8001fa4:	6f7b      	ldr	r3, [r7, #116]	; 0x74
 8001fa6:	4619      	mov	r1, r3
 8001fa8:	f04f 0200 	mov.w	r2, #0
 8001fac:	460b      	mov	r3, r1
 8001fae:	4614      	mov	r4, r2
 8001fb0:	18d8      	adds	r0, r3, r3
 8001fb2:	6038      	str	r0, [r7, #0]
 8001fb4:	eb44 0304 	adc.w	r3, r4, r4
 8001fb8:	607b      	str	r3, [r7, #4]
 8001fba:	e9d7 3400 	ldrd	r3, r4, [r7]
 8001fbe:	185b      	adds	r3, r3, r1
 8001fc0:	eb42 0404 	adc.w	r4, r2, r4
 8001fc4:	f04f 0500 	mov.w	r5, #0
 8001fc8:	f04f 0600 	mov.w	r6, #0
 8001fcc:	00e6      	lsls	r6, r4, #3
 8001fce:	ea46 7653 	orr.w	r6, r6, r3, lsr #29
 8001fd2:	00dd      	lsls	r5, r3, #3
 8001fd4:	462b      	mov	r3, r5
 8001fd6:	4634      	mov	r4, r6
 8001fd8:	1858      	adds	r0, r3, r1
 8001fda:	63b8      	str	r0, [r7, #56]	; 0x38
 8001fdc:	eb44 0302 	adc.w	r3, r4, r2
 8001fe0:	63fb      	str	r3, [r7, #60]	; 0x3c
 8001fe2:	6efb      	ldr	r3, [r7, #108]	; 0x6c
 8001fe4:	685b      	ldr	r3, [r3, #4]
 8001fe6:	4619      	mov	r1, r3
 8001fe8:	f04f 0200 	mov.w	r2, #0
 8001fec:	f04f 0300 	mov.w	r3, #0
 8001ff0:	f04f 0400 	mov.w	r4, #0
 8001ff4:	0094      	lsls	r4, r2, #2
 8001ff6:	ea44 7491 	orr.w	r4, r4, r1, lsr #30
 8001ffa:	008b      	lsls	r3, r1, #2
 8001ffc:	461a      	mov	r2, r3
 8001ffe:	4623      	mov	r3, r4
 8002000:	e9d7 010e 	ldrd	r0, r1, [r7, #56]	; 0x38
 8002004:	f7fe fda2 	bl	8000b4c <__aeabi_uldivmod>
 8002008:	4603      	mov	r3, r0
 800200a:	460c      	mov	r4, r1
 800200c:	461a      	mov	r2, r3
 800200e:	4b0c      	ldr	r3, [pc, #48]	; (8002040 <UART_SetConfig+0x3cc>)
 8002010:	fba3 1302 	umull	r1, r3, r3, r2
 8002014:	095b      	lsrs	r3, r3, #5
 8002016:	2164      	movs	r1, #100	; 0x64
 8002018:	fb01 f303 	mul.w	r3, r1, r3
 800201c:	1ad3      	subs	r3, r2, r3
 800201e:	011b      	lsls	r3, r3, #4
 8002020:	3332      	adds	r3, #50	; 0x32
 8002022:	4a07      	ldr	r2, [pc, #28]	; (8002040 <UART_SetConfig+0x3cc>)
 8002024:	fba2 2303 	umull	r2, r3, r2, r3
 8002028:	095b      	lsrs	r3, r3, #5
 800202a:	f003 020f 	and.w	r2, r3, #15
 800202e:	6efb      	ldr	r3, [r7, #108]	; 0x6c
 8002030:	681b      	ldr	r3, [r3, #0]
 8002032:	4442      	add	r2, r8
 8002034:	609a      	str	r2, [r3, #8]
}
 8002036:	bf00      	nop
 8002038:	377c      	adds	r7, #124	; 0x7c
 800203a:	46bd      	mov	sp, r7
 800203c:	e8bd 8ff0 	ldmia.w	sp!, {r4, r5, r6, r7, r8, r9, sl, fp, pc}
 8002040:	51eb851f 	mvnpl	r8, pc, lsl r5

08002044 <_out_buffer>:
} out_fct_wrap_type;


// internal buffer output
static inline void _out_buffer(char character, void* buffer, size_t idx, size_t maxlen)
{
 8002044:	b480      	push	{r7}
 8002046:	b085      	sub	sp, #20
 8002048:	af00      	add	r7, sp, #0
 800204a:	60b9      	str	r1, [r7, #8]
 800204c:	607a      	str	r2, [r7, #4]
 800204e:	603b      	str	r3, [r7, #0]
 8002050:	4603      	mov	r3, r0
 8002052:	73fb      	strb	r3, [r7, #15]
  if (idx < maxlen) {
 8002054:	687a      	ldr	r2, [r7, #4]
 8002056:	683b      	ldr	r3, [r7, #0]
 8002058:	429a      	cmp	r2, r3
 800205a:	d204      	bcs.n	8002066 <_out_buffer+0x22>
    ((char*)buffer)[idx] = character;
 800205c:	68ba      	ldr	r2, [r7, #8]
 800205e:	687b      	ldr	r3, [r7, #4]
 8002060:	4413      	add	r3, r2
 8002062:	7bfa      	ldrb	r2, [r7, #15]
 8002064:	701a      	strb	r2, [r3, #0]
  }
}
 8002066:	bf00      	nop
 8002068:	3714      	adds	r7, #20
 800206a:	46bd      	mov	sp, r7
 800206c:	bc80      	pop	{r7}
 800206e:	4770      	bx	lr

08002070 <_out_null>:


// internal null output
static inline void _out_null(char character, void* buffer, size_t idx, size_t maxlen)
{
 8002070:	b480      	push	{r7}
 8002072:	b085      	sub	sp, #20
 8002074:	af00      	add	r7, sp, #0
 8002076:	60b9      	str	r1, [r7, #8]
 8002078:	607a      	str	r2, [r7, #4]
 800207a:	603b      	str	r3, [r7, #0]
 800207c:	4603      	mov	r3, r0
 800207e:	73fb      	strb	r3, [r7, #15]
  (void)character; (void)buffer; (void)idx; (void)maxlen;
}
 8002080:	bf00      	nop
 8002082:	3714      	adds	r7, #20
 8002084:	46bd      	mov	sp, r7
 8002086:	bc80      	pop	{r7}
 8002088:	4770      	bx	lr

0800208a <_out_char>:


// internal _putchar wrapper
static inline void _out_char(char character, void* buffer, size_t idx, size_t maxlen)
{
 800208a:	b580      	push	{r7, lr}
 800208c:	b084      	sub	sp, #16
 800208e:	af00      	add	r7, sp, #0
 8002090:	60b9      	str	r1, [r7, #8]
 8002092:	607a      	str	r2, [r7, #4]
 8002094:	603b      	str	r3, [r7, #0]
 8002096:	4603      	mov	r3, r0
 8002098:	73fb      	strb	r3, [r7, #15]
  (void)buffer; (void)idx; (void)maxlen;
  if (character) {
 800209a:	7bfb      	ldrb	r3, [r7, #15]
 800209c:	2b00      	cmp	r3, #0
 800209e:	d003      	beq.n	80020a8 <_out_char+0x1e>
    _putchar(character);
 80020a0:	7bfb      	ldrb	r3, [r7, #15]
 80020a2:	4618      	mov	r0, r3
 80020a4:	f001 f88a 	bl	80031bc <_putchar>
  }
}
 80020a8:	bf00      	nop
 80020aa:	3710      	adds	r7, #16
 80020ac:	46bd      	mov	sp, r7
 80020ae:	bd80      	pop	{r7, pc}

080020b0 <_strnlen_s>:


// internal secure strlen
// \return The length of the string (excluding the terminating 0) limited by 'maxsize'
static inline unsigned int _strnlen_s(const char* str, size_t maxsize)
{
 80020b0:	b480      	push	{r7}
 80020b2:	b085      	sub	sp, #20
 80020b4:	af00      	add	r7, sp, #0
 80020b6:	6078      	str	r0, [r7, #4]
 80020b8:	6039      	str	r1, [r7, #0]
  const char* s;
  for (s = str; *s && maxsize--; ++s);
 80020ba:	687b      	ldr	r3, [r7, #4]
 80020bc:	60fb      	str	r3, [r7, #12]
 80020be:	e002      	b.n	80020c6 <_strnlen_s+0x16>
 80020c0:	68fb      	ldr	r3, [r7, #12]
 80020c2:	3301      	adds	r3, #1
 80020c4:	60fb      	str	r3, [r7, #12]
 80020c6:	68fb      	ldr	r3, [r7, #12]
 80020c8:	781b      	ldrb	r3, [r3, #0]
 80020ca:	2b00      	cmp	r3, #0
 80020cc:	d004      	beq.n	80020d8 <_strnlen_s+0x28>
 80020ce:	683b      	ldr	r3, [r7, #0]
 80020d0:	1e5a      	subs	r2, r3, #1
 80020d2:	603a      	str	r2, [r7, #0]
 80020d4:	2b00      	cmp	r3, #0
 80020d6:	d1f3      	bne.n	80020c0 <_strnlen_s+0x10>
  return (unsigned int)(s - str);
 80020d8:	68fa      	ldr	r2, [r7, #12]
 80020da:	687b      	ldr	r3, [r7, #4]
 80020dc:	1ad3      	subs	r3, r2, r3
}
 80020de:	4618      	mov	r0, r3
 80020e0:	3714      	adds	r7, #20
 80020e2:	46bd      	mov	sp, r7
 80020e4:	bc80      	pop	{r7}
 80020e6:	4770      	bx	lr

080020e8 <_is_digit>:


// internal test if char is a digit (0-9)
// \return true if char is a digit
static inline bool _is_digit(char ch)
{
 80020e8:	b480      	push	{r7}
 80020ea:	b083      	sub	sp, #12
 80020ec:	af00      	add	r7, sp, #0
 80020ee:	4603      	mov	r3, r0
 80020f0:	71fb      	strb	r3, [r7, #7]
  return (ch >= '0') && (ch <= '9');
 80020f2:	79fb      	ldrb	r3, [r7, #7]
 80020f4:	2b2f      	cmp	r3, #47	; 0x2f
 80020f6:	d904      	bls.n	8002102 <_is_digit+0x1a>
 80020f8:	79fb      	ldrb	r3, [r7, #7]
 80020fa:	2b39      	cmp	r3, #57	; 0x39
 80020fc:	d801      	bhi.n	8002102 <_is_digit+0x1a>
 80020fe:	2301      	movs	r3, #1
 8002100:	e000      	b.n	8002104 <_is_digit+0x1c>
 8002102:	2300      	movs	r3, #0
 8002104:	f003 0301 	and.w	r3, r3, #1
 8002108:	b2db      	uxtb	r3, r3
}
 800210a:	4618      	mov	r0, r3
 800210c:	370c      	adds	r7, #12
 800210e:	46bd      	mov	sp, r7
 8002110:	bc80      	pop	{r7}
 8002112:	4770      	bx	lr

08002114 <_atoi>:


// internal ASCII string to unsigned int conversion
static unsigned int _atoi(const char** str)
{
 8002114:	b580      	push	{r7, lr}
 8002116:	b084      	sub	sp, #16
 8002118:	af00      	add	r7, sp, #0
 800211a:	6078      	str	r0, [r7, #4]
  unsigned int i = 0U;
 800211c:	2300      	movs	r3, #0
 800211e:	60fb      	str	r3, [r7, #12]
  while (_is_digit(**str)) {
 8002120:	e00e      	b.n	8002140 <_atoi+0x2c>
    i = i * 10U + (unsigned int)(*((*str)++) - '0');
 8002122:	68fa      	ldr	r2, [r7, #12]
 8002124:	4613      	mov	r3, r2
 8002126:	009b      	lsls	r3, r3, #2
 8002128:	4413      	add	r3, r2
 800212a:	005b      	lsls	r3, r3, #1
 800212c:	4618      	mov	r0, r3
 800212e:	687b      	ldr	r3, [r7, #4]
 8002130:	681b      	ldr	r3, [r3, #0]
 8002132:	1c59      	adds	r1, r3, #1
 8002134:	687a      	ldr	r2, [r7, #4]
 8002136:	6011      	str	r1, [r2, #0]
 8002138:	781b      	ldrb	r3, [r3, #0]
 800213a:	4403      	add	r3, r0
 800213c:	3b30      	subs	r3, #48	; 0x30
 800213e:	60fb      	str	r3, [r7, #12]
  while (_is_digit(**str)) {
 8002140:	687b      	ldr	r3, [r7, #4]
 8002142:	681b      	ldr	r3, [r3, #0]
 8002144:	781b      	ldrb	r3, [r3, #0]
 8002146:	4618      	mov	r0, r3
 8002148:	f7ff ffce 	bl	80020e8 <_is_digit>
 800214c:	4603      	mov	r3, r0
 800214e:	2b00      	cmp	r3, #0
 8002150:	d1e7      	bne.n	8002122 <_atoi+0xe>
  }
  return i;
 8002152:	68fb      	ldr	r3, [r7, #12]
}
 8002154:	4618      	mov	r0, r3
 8002156:	3710      	adds	r7, #16
 8002158:	46bd      	mov	sp, r7
 800215a:	bd80      	pop	{r7, pc}

0800215c <_out_rev>:


// output the specified string in reverse, taking care of any zero-padding
static size_t _out_rev(out_fct_type out, char* buffer, size_t idx, size_t maxlen, const char* buf, size_t len, unsigned int width, unsigned int flags)
{
 800215c:	b590      	push	{r4, r7, lr}
 800215e:	b087      	sub	sp, #28
 8002160:	af00      	add	r7, sp, #0
 8002162:	60f8      	str	r0, [r7, #12]
 8002164:	60b9      	str	r1, [r7, #8]
 8002166:	607a      	str	r2, [r7, #4]
 8002168:	603b      	str	r3, [r7, #0]
  const size_t start_idx = idx;
 800216a:	687b      	ldr	r3, [r7, #4]
 800216c:	613b      	str	r3, [r7, #16]

  // pad spaces up to given width
  if (!(flags & FLAGS_LEFT) && !(flags & FLAGS_ZEROPAD)) {
 800216e:	6b7b      	ldr	r3, [r7, #52]	; 0x34
 8002170:	f003 0302 	and.w	r3, r3, #2
 8002174:	2b00      	cmp	r3, #0
 8002176:	d125      	bne.n	80021c4 <_out_rev+0x68>
 8002178:	6b7b      	ldr	r3, [r7, #52]	; 0x34
 800217a:	f003 0301 	and.w	r3, r3, #1
 800217e:	2b00      	cmp	r3, #0
 8002180:	d120      	bne.n	80021c4 <_out_rev+0x68>
    for (size_t i = len; i < width; i++) {
 8002182:	6afb      	ldr	r3, [r7, #44]	; 0x2c
 8002184:	617b      	str	r3, [r7, #20]
 8002186:	e00a      	b.n	800219e <_out_rev+0x42>
      out(' ', buffer, idx++, maxlen);
 8002188:	687a      	ldr	r2, [r7, #4]
 800218a:	1c53      	adds	r3, r2, #1
 800218c:	607b      	str	r3, [r7, #4]
 800218e:	68fc      	ldr	r4, [r7, #12]
 8002190:	683b      	ldr	r3, [r7, #0]
 8002192:	68b9      	ldr	r1, [r7, #8]
 8002194:	2020      	movs	r0, #32
 8002196:	47a0      	blx	r4
    for (size_t i = len; i < width; i++) {
 8002198:	697b      	ldr	r3, [r7, #20]
 800219a:	3301      	adds	r3, #1
 800219c:	617b      	str	r3, [r7, #20]
 800219e:	697a      	ldr	r2, [r7, #20]
 80021a0:	6b3b      	ldr	r3, [r7, #48]	; 0x30
 80021a2:	429a      	cmp	r2, r3
 80021a4:	d3f0      	bcc.n	8002188 <_out_rev+0x2c>
    }
  }

  // reverse string
  while (len) {
 80021a6:	e00d      	b.n	80021c4 <_out_rev+0x68>
    out(buf[--len], buffer, idx++, maxlen);
 80021a8:	6afb      	ldr	r3, [r7, #44]	; 0x2c
 80021aa:	3b01      	subs	r3, #1
 80021ac:	62fb      	str	r3, [r7, #44]	; 0x2c
 80021ae:	6aba      	ldr	r2, [r7, #40]	; 0x28
 80021b0:	6afb      	ldr	r3, [r7, #44]	; 0x2c
 80021b2:	4413      	add	r3, r2
 80021b4:	7818      	ldrb	r0, [r3, #0]
 80021b6:	687a      	ldr	r2, [r7, #4]
 80021b8:	1c53      	adds	r3, r2, #1
 80021ba:	607b      	str	r3, [r7, #4]
 80021bc:	68fc      	ldr	r4, [r7, #12]
 80021be:	683b      	ldr	r3, [r7, #0]
 80021c0:	68b9      	ldr	r1, [r7, #8]
 80021c2:	47a0      	blx	r4
  while (len) {
 80021c4:	6afb      	ldr	r3, [r7, #44]	; 0x2c
 80021c6:	2b00      	cmp	r3, #0
 80021c8:	d1ee      	bne.n	80021a8 <_out_rev+0x4c>
  }

  // append pad spaces up to given width
  if (flags & FLAGS_LEFT) {
 80021ca:	6b7b      	ldr	r3, [r7, #52]	; 0x34
 80021cc:	f003 0302 	and.w	r3, r3, #2
 80021d0:	2b00      	cmp	r3, #0
 80021d2:	d00e      	beq.n	80021f2 <_out_rev+0x96>
    while (idx - start_idx < width) {
 80021d4:	e007      	b.n	80021e6 <_out_rev+0x8a>
      out(' ', buffer, idx++, maxlen);
 80021d6:	687a      	ldr	r2, [r7, #4]
 80021d8:	1c53      	adds	r3, r2, #1
 80021da:	607b      	str	r3, [r7, #4]
 80021dc:	68fc      	ldr	r4, [r7, #12]
 80021de:	683b      	ldr	r3, [r7, #0]
 80021e0:	68b9      	ldr	r1, [r7, #8]
 80021e2:	2020      	movs	r0, #32
 80021e4:	47a0      	blx	r4
    while (idx - start_idx < width) {
 80021e6:	687a      	ldr	r2, [r7, #4]
 80021e8:	693b      	ldr	r3, [r7, #16]
 80021ea:	1ad3      	subs	r3, r2, r3
 80021ec:	6b3a      	ldr	r2, [r7, #48]	; 0x30
 80021ee:	429a      	cmp	r2, r3
 80021f0:	d8f1      	bhi.n	80021d6 <_out_rev+0x7a>
    }
  }

  return idx;
 80021f2:	687b      	ldr	r3, [r7, #4]
}
 80021f4:	4618      	mov	r0, r3
 80021f6:	371c      	adds	r7, #28
 80021f8:	46bd      	mov	sp, r7
 80021fa:	bd90      	pop	{r4, r7, pc}

080021fc <_ntoa_format>:


// internal itoa format
static size_t _ntoa_format(out_fct_type out, char* buffer, size_t idx, size_t maxlen, char* buf, size_t len, bool negative, unsigned int base, unsigned int prec, unsigned int width, unsigned int flags)
{
 80021fc:	b580      	push	{r7, lr}
 80021fe:	b088      	sub	sp, #32
 8002200:	af04      	add	r7, sp, #16
 8002202:	60f8      	str	r0, [r7, #12]
 8002204:	60b9      	str	r1, [r7, #8]
 8002206:	607a      	str	r2, [r7, #4]
 8002208:	603b      	str	r3, [r7, #0]
  // pad leading zeros
  if (!(flags & FLAGS_LEFT)) {
 800220a:	6b3b      	ldr	r3, [r7, #48]	; 0x30
 800220c:	f003 0302 	and.w	r3, r3, #2
 8002210:	2b00      	cmp	r3, #0
 8002212:	d136      	bne.n	8002282 <_ntoa_format+0x86>
    if (width && (flags & FLAGS_ZEROPAD) && (negative || (flags & (FLAGS_PLUS | FLAGS_SPACE)))) {
 8002214:	6afb      	ldr	r3, [r7, #44]	; 0x2c
 8002216:	2b00      	cmp	r3, #0
 8002218:	d018      	beq.n	800224c <_ntoa_format+0x50>
 800221a:	6b3b      	ldr	r3, [r7, #48]	; 0x30
 800221c:	f003 0301 	and.w	r3, r3, #1
 8002220:	2b00      	cmp	r3, #0
 8002222:	d013      	beq.n	800224c <_ntoa_format+0x50>
 8002224:	f897 3020 	ldrb.w	r3, [r7, #32]
 8002228:	2b00      	cmp	r3, #0
 800222a:	d104      	bne.n	8002236 <_ntoa_format+0x3a>
 800222c:	6b3b      	ldr	r3, [r7, #48]	; 0x30
 800222e:	f003 030c 	and.w	r3, r3, #12
 8002232:	2b00      	cmp	r3, #0
 8002234:	d00a      	beq.n	800224c <_ntoa_format+0x50>
      width--;
 8002236:	6afb      	ldr	r3, [r7, #44]	; 0x2c
 8002238:	3b01      	subs	r3, #1
 800223a:	62fb      	str	r3, [r7, #44]	; 0x2c
    }
    while ((len < prec) && (len < PRINTF_NTOA_BUFFER_SIZE)) {
 800223c:	e006      	b.n	800224c <_ntoa_format+0x50>
      buf[len++] = '0';
 800223e:	69fb      	ldr	r3, [r7, #28]
 8002240:	1c5a      	adds	r2, r3, #1
 8002242:	61fa      	str	r2, [r7, #28]
 8002244:	69ba      	ldr	r2, [r7, #24]
 8002246:	4413      	add	r3, r2
 8002248:	2230      	movs	r2, #48	; 0x30
 800224a:	701a      	strb	r2, [r3, #0]
    while ((len < prec) && (len < PRINTF_NTOA_BUFFER_SIZE)) {
 800224c:	69fa      	ldr	r2, [r7, #28]
 800224e:	6abb      	ldr	r3, [r7, #40]	; 0x28
 8002250:	429a      	cmp	r2, r3
 8002252:	d20a      	bcs.n	800226a <_ntoa_format+0x6e>
 8002254:	69fb      	ldr	r3, [r7, #28]
 8002256:	2b1f      	cmp	r3, #31
 8002258:	d9f1      	bls.n	800223e <_ntoa_format+0x42>
    }
    while ((flags & FLAGS_ZEROPAD) && (len < width) && (len < PRINTF_NTOA_BUFFER_SIZE)) {
 800225a:	e006      	b.n	800226a <_ntoa_format+0x6e>
      buf[len++] = '0';
 800225c:	69fb      	ldr	r3, [r7, #28]
 800225e:	1c5a      	adds	r2, r3, #1
 8002260:	61fa      	str	r2, [r7, #28]
 8002262:	69ba      	ldr	r2, [r7, #24]
 8002264:	4413      	add	r3, r2
 8002266:	2230      	movs	r2, #48	; 0x30
 8002268:	701a      	strb	r2, [r3, #0]
    while ((flags & FLAGS_ZEROPAD) && (len < width) && (len < PRINTF_NTOA_BUFFER_SIZE)) {
 800226a:	6b3b      	ldr	r3, [r7, #48]	; 0x30
 800226c:	f003 0301 	and.w	r3, r3, #1
 8002270:	2b00      	cmp	r3, #0
 8002272:	d006      	beq.n	8002282 <_ntoa_format+0x86>
 8002274:	69fa      	ldr	r2, [r7, #28]
 8002276:	6afb      	ldr	r3, [r7, #44]	; 0x2c
 8002278:	429a      	cmp	r2, r3
 800227a:	d202      	bcs.n	8002282 <_ntoa_format+0x86>
 800227c:	69fb      	ldr	r3, [r7, #28]
 800227e:	2b1f      	cmp	r3, #31
 8002280:	d9ec      	bls.n	800225c <_ntoa_format+0x60>
    }
  }

  // handle hash
  if (flags & FLAGS_HASH) {
 8002282:	6b3b      	ldr	r3, [r7, #48]	; 0x30
 8002284:	f003 0310 	and.w	r3, r3, #16
 8002288:	2b00      	cmp	r3, #0
 800228a:	d058      	beq.n	800233e <_ntoa_format+0x142>
    if (!(flags & FLAGS_PRECISION) && len && ((len == prec) || (len == width))) {
 800228c:	6b3b      	ldr	r3, [r7, #48]	; 0x30
 800228e:	f403 6380 	and.w	r3, r3, #1024	; 0x400
 8002292:	2b00      	cmp	r3, #0
 8002294:	d116      	bne.n	80022c4 <_ntoa_format+0xc8>
 8002296:	69fb      	ldr	r3, [r7, #28]
 8002298:	2b00      	cmp	r3, #0
 800229a:	d013      	beq.n	80022c4 <_ntoa_format+0xc8>
 800229c:	69fa      	ldr	r2, [r7, #28]
 800229e:	6abb      	ldr	r3, [r7, #40]	; 0x28
 80022a0:	429a      	cmp	r2, r3
 80022a2:	d003      	beq.n	80022ac <_ntoa_format+0xb0>
 80022a4:	69fa      	ldr	r2, [r7, #28]
 80022a6:	6afb      	ldr	r3, [r7, #44]	; 0x2c
 80022a8:	429a      	cmp	r2, r3
 80022aa:	d10b      	bne.n	80022c4 <_ntoa_format+0xc8>
      len--;
 80022ac:	69fb      	ldr	r3, [r7, #28]
 80022ae:	3b01      	subs	r3, #1
 80022b0:	61fb      	str	r3, [r7, #28]
      if (len && (base == 16U)) {
 80022b2:	69fb      	ldr	r3, [r7, #28]
 80022b4:	2b00      	cmp	r3, #0
 80022b6:	d005      	beq.n	80022c4 <_ntoa_format+0xc8>
 80022b8:	6a7b      	ldr	r3, [r7, #36]	; 0x24
 80022ba:	2b10      	cmp	r3, #16
 80022bc:	d102      	bne.n	80022c4 <_ntoa_format+0xc8>
        len--;
 80022be:	69fb      	ldr	r3, [r7, #28]
 80022c0:	3b01      	subs	r3, #1
 80022c2:	61fb      	str	r3, [r7, #28]
      }
    }
    if ((base == 16U) && !(flags & FLAGS_UPPERCASE) && (len < PRINTF_NTOA_BUFFER_SIZE)) {
 80022c4:	6a7b      	ldr	r3, [r7, #36]	; 0x24
 80022c6:	2b10      	cmp	r3, #16
 80022c8:	d10f      	bne.n	80022ea <_ntoa_format+0xee>
 80022ca:	6b3b      	ldr	r3, [r7, #48]	; 0x30
 80022cc:	f003 0320 	and.w	r3, r3, #32
 80022d0:	2b00      	cmp	r3, #0
 80022d2:	d10a      	bne.n	80022ea <_ntoa_format+0xee>
 80022d4:	69fb      	ldr	r3, [r7, #28]
 80022d6:	2b1f      	cmp	r3, #31
 80022d8:	d807      	bhi.n	80022ea <_ntoa_format+0xee>
      buf[len++] = 'x';
 80022da:	69fb      	ldr	r3, [r7, #28]
 80022dc:	1c5a      	adds	r2, r3, #1
 80022de:	61fa      	str	r2, [r7, #28]
 80022e0:	69ba      	ldr	r2, [r7, #24]
 80022e2:	4413      	add	r3, r2
 80022e4:	2278      	movs	r2, #120	; 0x78
 80022e6:	701a      	strb	r2, [r3, #0]
 80022e8:	e01f      	b.n	800232a <_ntoa_format+0x12e>
    }
    else if ((base == 16U) && (flags & FLAGS_UPPERCASE) && (len < PRINTF_NTOA_BUFFER_SIZE)) {
 80022ea:	6a7b      	ldr	r3, [r7, #36]	; 0x24
 80022ec:	2b10      	cmp	r3, #16
 80022ee:	d10f      	bne.n	8002310 <_ntoa_format+0x114>
 80022f0:	6b3b      	ldr	r3, [r7, #48]	; 0x30
 80022f2:	f003 0320 	and.w	r3, r3, #32
 80022f6:	2b00      	cmp	r3, #0
 80022f8:	d00a      	beq.n	8002310 <_ntoa_format+0x114>
 80022fa:	69fb      	ldr	r3, [r7, #28]
 80022fc:	2b1f      	cmp	r3, #31
 80022fe:	d807      	bhi.n	8002310 <_ntoa_format+0x114>
      buf[len++] = 'X';
 8002300:	69fb      	ldr	r3, [r7, #28]
 8002302:	1c5a      	adds	r2, r3, #1
 8002304:	61fa      	str	r2, [r7, #28]
 8002306:	69ba      	ldr	r2, [r7, #24]
 8002308:	4413      	add	r3, r2
 800230a:	2258      	movs	r2, #88	; 0x58
 800230c:	701a      	strb	r2, [r3, #0]
 800230e:	e00c      	b.n	800232a <_ntoa_format+0x12e>
    }
    else if ((base == 2U) && (len < PRINTF_NTOA_BUFFER_SIZE)) {
 8002310:	6a7b      	ldr	r3, [r7, #36]	; 0x24
 8002312:	2b02      	cmp	r3, #2
 8002314:	d109      	bne.n	800232a <_ntoa_format+0x12e>
 8002316:	69fb      	ldr	r3, [r7, #28]
 8002318:	2b1f      	cmp	r3, #31
 800231a:	d806      	bhi.n	800232a <_ntoa_format+0x12e>
      buf[len++] = 'b';
 800231c:	69fb      	ldr	r3, [r7, #28]
 800231e:	1c5a      	adds	r2, r3, #1
 8002320:	61fa      	str	r2, [r7, #28]
 8002322:	69ba      	ldr	r2, [r7, #24]
 8002324:	4413      	add	r3, r2
 8002326:	2262      	movs	r2, #98	; 0x62
 8002328:	701a      	strb	r2, [r3, #0]
    }
    if (len < PRINTF_NTOA_BUFFER_SIZE) {
 800232a:	69fb      	ldr	r3, [r7, #28]
 800232c:	2b1f      	cmp	r3, #31
 800232e:	d806      	bhi.n	800233e <_ntoa_format+0x142>
      buf[len++] = '0';
 8002330:	69fb      	ldr	r3, [r7, #28]
 8002332:	1c5a      	adds	r2, r3, #1
 8002334:	61fa      	str	r2, [r7, #28]
 8002336:	69ba      	ldr	r2, [r7, #24]
 8002338:	4413      	add	r3, r2
 800233a:	2230      	movs	r2, #48	; 0x30
 800233c:	701a      	strb	r2, [r3, #0]
    }
  }

  if (len < PRINTF_NTOA_BUFFER_SIZE) {
 800233e:	69fb      	ldr	r3, [r7, #28]
 8002340:	2b1f      	cmp	r3, #31
 8002342:	d824      	bhi.n	800238e <_ntoa_format+0x192>
    if (negative) {
 8002344:	f897 3020 	ldrb.w	r3, [r7, #32]
 8002348:	2b00      	cmp	r3, #0
 800234a:	d007      	beq.n	800235c <_ntoa_format+0x160>
      buf[len++] = '-';
 800234c:	69fb      	ldr	r3, [r7, #28]
 800234e:	1c5a      	adds	r2, r3, #1
 8002350:	61fa      	str	r2, [r7, #28]
 8002352:	69ba      	ldr	r2, [r7, #24]
 8002354:	4413      	add	r3, r2
 8002356:	222d      	movs	r2, #45	; 0x2d
 8002358:	701a      	strb	r2, [r3, #0]
 800235a:	e018      	b.n	800238e <_ntoa_format+0x192>
    }
    else if (flags & FLAGS_PLUS) {
 800235c:	6b3b      	ldr	r3, [r7, #48]	; 0x30
 800235e:	f003 0304 	and.w	r3, r3, #4
 8002362:	2b00      	cmp	r3, #0
 8002364:	d007      	beq.n	8002376 <_ntoa_format+0x17a>
      buf[len++] = '+';  // ignore the space if the '+' exists
 8002366:	69fb      	ldr	r3, [r7, #28]
 8002368:	1c5a      	adds	r2, r3, #1
 800236a:	61fa      	str	r2, [r7, #28]
 800236c:	69ba      	ldr	r2, [r7, #24]
 800236e:	4413      	add	r3, r2
 8002370:	222b      	movs	r2, #43	; 0x2b
 8002372:	701a      	strb	r2, [r3, #0]
 8002374:	e00b      	b.n	800238e <_ntoa_format+0x192>
    }
    else if (flags & FLAGS_SPACE) {
 8002376:	6b3b      	ldr	r3, [r7, #48]	; 0x30
 8002378:	f003 0308 	and.w	r3, r3, #8
 800237c:	2b00      	cmp	r3, #0
 800237e:	d006      	beq.n	800238e <_ntoa_format+0x192>
      buf[len++] = ' ';
 8002380:	69fb      	ldr	r3, [r7, #28]
 8002382:	1c5a      	adds	r2, r3, #1
 8002384:	61fa      	str	r2, [r7, #28]
 8002386:	69ba      	ldr	r2, [r7, #24]
 8002388:	4413      	add	r3, r2
 800238a:	2220      	movs	r2, #32
 800238c:	701a      	strb	r2, [r3, #0]
    }
  }

  return _out_rev(out, buffer, idx, maxlen, buf, len, width, flags);
 800238e:	6b3b      	ldr	r3, [r7, #48]	; 0x30
 8002390:	9303      	str	r3, [sp, #12]
 8002392:	6afb      	ldr	r3, [r7, #44]	; 0x2c
 8002394:	9302      	str	r3, [sp, #8]
 8002396:	69fb      	ldr	r3, [r7, #28]
 8002398:	9301      	str	r3, [sp, #4]
 800239a:	69bb      	ldr	r3, [r7, #24]
 800239c:	9300      	str	r3, [sp, #0]
 800239e:	683b      	ldr	r3, [r7, #0]
 80023a0:	687a      	ldr	r2, [r7, #4]
 80023a2:	68b9      	ldr	r1, [r7, #8]
 80023a4:	68f8      	ldr	r0, [r7, #12]
 80023a6:	f7ff fed9 	bl	800215c <_out_rev>
 80023aa:	4603      	mov	r3, r0
}
 80023ac:	4618      	mov	r0, r3
 80023ae:	3710      	adds	r7, #16
 80023b0:	46bd      	mov	sp, r7
 80023b2:	bd80      	pop	{r7, pc}

080023b4 <_ntoa_long>:


// internal itoa for 'long' type
static size_t _ntoa_long(out_fct_type out, char* buffer, size_t idx, size_t maxlen, unsigned long value, bool negative, unsigned long base, unsigned int prec, unsigned int width, unsigned int flags)
{
 80023b4:	b580      	push	{r7, lr}
 80023b6:	b096      	sub	sp, #88	; 0x58
 80023b8:	af08      	add	r7, sp, #32
 80023ba:	60f8      	str	r0, [r7, #12]
 80023bc:	60b9      	str	r1, [r7, #8]
 80023be:	607a      	str	r2, [r7, #4]
 80023c0:	603b      	str	r3, [r7, #0]
  char buf[PRINTF_NTOA_BUFFER_SIZE];
  size_t len = 0U;
 80023c2:	2300      	movs	r3, #0
 80023c4:	637b      	str	r3, [r7, #52]	; 0x34

  // no hash for 0 values
  if (!value) {
 80023c6:	6c3b      	ldr	r3, [r7, #64]	; 0x40
 80023c8:	2b00      	cmp	r3, #0
 80023ca:	d103      	bne.n	80023d4 <_ntoa_long+0x20>
    flags &= ~FLAGS_HASH;
 80023cc:	6d7b      	ldr	r3, [r7, #84]	; 0x54
 80023ce:	f023 0310 	bic.w	r3, r3, #16
 80023d2:	657b      	str	r3, [r7, #84]	; 0x54
  }

  // write if precision != 0 and value is != 0
  if (!(flags & FLAGS_PRECISION) || value) {
 80023d4:	6d7b      	ldr	r3, [r7, #84]	; 0x54
 80023d6:	f403 6380 	and.w	r3, r3, #1024	; 0x400
 80023da:	2b00      	cmp	r3, #0
 80023dc:	d002      	beq.n	80023e4 <_ntoa_long+0x30>
 80023de:	6c3b      	ldr	r3, [r7, #64]	; 0x40
 80023e0:	2b00      	cmp	r3, #0
 80023e2:	d033      	beq.n	800244c <_ntoa_long+0x98>
    do {
      const char digit = (char)(value % base);
 80023e4:	6c3b      	ldr	r3, [r7, #64]	; 0x40
 80023e6:	6cba      	ldr	r2, [r7, #72]	; 0x48
 80023e8:	fbb3 f2f2 	udiv	r2, r3, r2
 80023ec:	6cb9      	ldr	r1, [r7, #72]	; 0x48
 80023ee:	fb01 f202 	mul.w	r2, r1, r2
 80023f2:	1a9b      	subs	r3, r3, r2
 80023f4:	f887 3033 	strb.w	r3, [r7, #51]	; 0x33
      buf[len++] = digit < 10 ? '0' + digit : (flags & FLAGS_UPPERCASE ? 'A' : 'a') + digit - 10;
 80023f8:	f897 3033 	ldrb.w	r3, [r7, #51]	; 0x33
 80023fc:	2b09      	cmp	r3, #9
 80023fe:	d804      	bhi.n	800240a <_ntoa_long+0x56>
 8002400:	f897 3033 	ldrb.w	r3, [r7, #51]	; 0x33
 8002404:	3330      	adds	r3, #48	; 0x30
 8002406:	b2da      	uxtb	r2, r3
 8002408:	e00d      	b.n	8002426 <_ntoa_long+0x72>
 800240a:	6d7b      	ldr	r3, [r7, #84]	; 0x54
 800240c:	f003 0320 	and.w	r3, r3, #32
 8002410:	2b00      	cmp	r3, #0
 8002412:	d001      	beq.n	8002418 <_ntoa_long+0x64>
 8002414:	2241      	movs	r2, #65	; 0x41
 8002416:	e000      	b.n	800241a <_ntoa_long+0x66>
 8002418:	2261      	movs	r2, #97	; 0x61
 800241a:	f897 3033 	ldrb.w	r3, [r7, #51]	; 0x33
 800241e:	4413      	add	r3, r2
 8002420:	b2db      	uxtb	r3, r3
 8002422:	3b0a      	subs	r3, #10
 8002424:	b2da      	uxtb	r2, r3
 8002426:	6b7b      	ldr	r3, [r7, #52]	; 0x34
 8002428:	1c59      	adds	r1, r3, #1
 800242a:	6379      	str	r1, [r7, #52]	; 0x34
 800242c:	f107 0138 	add.w	r1, r7, #56	; 0x38
 8002430:	440b      	add	r3, r1
 8002432:	f803 2c28 	strb.w	r2, [r3, #-40]
      value /= base;
 8002436:	6c3a      	ldr	r2, [r7, #64]	; 0x40
 8002438:	6cbb      	ldr	r3, [r7, #72]	; 0x48
 800243a:	fbb2 f3f3 	udiv	r3, r2, r3
 800243e:	643b      	str	r3, [r7, #64]	; 0x40
    } while (value && (len < PRINTF_NTOA_BUFFER_SIZE));
 8002440:	6c3b      	ldr	r3, [r7, #64]	; 0x40
 8002442:	2b00      	cmp	r3, #0
 8002444:	d002      	beq.n	800244c <_ntoa_long+0x98>
 8002446:	6b7b      	ldr	r3, [r7, #52]	; 0x34
 8002448:	2b1f      	cmp	r3, #31
 800244a:	d9cb      	bls.n	80023e4 <_ntoa_long+0x30>
  }

  return _ntoa_format(out, buffer, idx, maxlen, buf, len, negative, (unsigned int)base, prec, width, flags);
 800244c:	6d7b      	ldr	r3, [r7, #84]	; 0x54
 800244e:	9306      	str	r3, [sp, #24]
 8002450:	6d3b      	ldr	r3, [r7, #80]	; 0x50
 8002452:	9305      	str	r3, [sp, #20]
 8002454:	6cfb      	ldr	r3, [r7, #76]	; 0x4c
 8002456:	9304      	str	r3, [sp, #16]
 8002458:	6cbb      	ldr	r3, [r7, #72]	; 0x48
 800245a:	9303      	str	r3, [sp, #12]
 800245c:	f897 3044 	ldrb.w	r3, [r7, #68]	; 0x44
 8002460:	9302      	str	r3, [sp, #8]
 8002462:	6b7b      	ldr	r3, [r7, #52]	; 0x34
 8002464:	9301      	str	r3, [sp, #4]
 8002466:	f107 0310 	add.w	r3, r7, #16
 800246a:	9300      	str	r3, [sp, #0]
 800246c:	683b      	ldr	r3, [r7, #0]
 800246e:	687a      	ldr	r2, [r7, #4]
 8002470:	68b9      	ldr	r1, [r7, #8]
 8002472:	68f8      	ldr	r0, [r7, #12]
 8002474:	f7ff fec2 	bl	80021fc <_ntoa_format>
 8002478:	4603      	mov	r3, r0
}
 800247a:	4618      	mov	r0, r3
 800247c:	3738      	adds	r7, #56	; 0x38
 800247e:	46bd      	mov	sp, r7
 8002480:	bd80      	pop	{r7, pc}
 8002482:	0000      	movs	r0, r0
 8002484:	0000      	movs	r0, r0
	...

08002488 <_ftoa>:
#endif


// internal ftoa for fixed decimal floating point
static size_t _ftoa(out_fct_type out, char* buffer, size_t idx, size_t maxlen, double value, unsigned int prec, unsigned int width, unsigned int flags)
{
 8002488:	b590      	push	{r4, r7, lr}
 800248a:	b09b      	sub	sp, #108	; 0x6c
 800248c:	af04      	add	r7, sp, #16
 800248e:	60f8      	str	r0, [r7, #12]
 8002490:	60b9      	str	r1, [r7, #8]
 8002492:	607a      	str	r2, [r7, #4]
 8002494:	603b      	str	r3, [r7, #0]
  char buf[PRINTF_FTOA_BUFFER_SIZE];
  size_t len  = 0U;
 8002496:	2300      	movs	r3, #0
 8002498:	657b      	str	r3, [r7, #84]	; 0x54
  double diff = 0.0;
 800249a:	f04f 0300 	mov.w	r3, #0
 800249e:	f04f 0400 	mov.w	r4, #0
 80024a2:	e9c7 340e 	strd	r3, r4, [r7, #56]	; 0x38

  // powers of 10
  static const double pow10[] = { 1, 10, 100, 1000, 10000, 100000, 1000000, 10000000, 100000000, 1000000000 };

  // test for special values
  if (value != value)
 80024a6:	e9d7 231a 	ldrd	r2, r3, [r7, #104]	; 0x68
 80024aa:	e9d7 011a 	ldrd	r0, r1, [r7, #104]	; 0x68
 80024ae:	f7fe fad3 	bl	8000a58 <__aeabi_dcmpeq>
 80024b2:	4603      	mov	r3, r0
 80024b4:	2b00      	cmp	r3, #0
 80024b6:	d10f      	bne.n	80024d8 <_ftoa+0x50>
    return _out_rev(out, buffer, idx, maxlen, "nan", 3, width, flags);
 80024b8:	6fbb      	ldr	r3, [r7, #120]	; 0x78
 80024ba:	9303      	str	r3, [sp, #12]
 80024bc:	6f7b      	ldr	r3, [r7, #116]	; 0x74
 80024be:	9302      	str	r3, [sp, #8]
 80024c0:	2303      	movs	r3, #3
 80024c2:	9301      	str	r3, [sp, #4]
 80024c4:	4ba8      	ldr	r3, [pc, #672]	; (8002768 <_ftoa+0x2e0>)
 80024c6:	9300      	str	r3, [sp, #0]
 80024c8:	683b      	ldr	r3, [r7, #0]
 80024ca:	687a      	ldr	r2, [r7, #4]
 80024cc:	68b9      	ldr	r1, [r7, #8]
 80024ce:	68f8      	ldr	r0, [r7, #12]
 80024d0:	f7ff fe44 	bl	800215c <_out_rev>
 80024d4:	4603      	mov	r3, r0
 80024d6:	e229      	b.n	800292c <_ftoa+0x4a4>
  if (value < -DBL_MAX)
 80024d8:	f04f 32ff 	mov.w	r2, #4294967295	; 0xffffffff
 80024dc:	f46f 1380 	mvn.w	r3, #1048576	; 0x100000
 80024e0:	e9d7 011a 	ldrd	r0, r1, [r7, #104]	; 0x68
 80024e4:	f7fe fac2 	bl	8000a6c <__aeabi_dcmplt>
 80024e8:	4603      	mov	r3, r0
 80024ea:	2b00      	cmp	r3, #0
 80024ec:	d00f      	beq.n	800250e <_ftoa+0x86>
    return _out_rev(out, buffer, idx, maxlen, "fni-", 4, width, flags);
 80024ee:	6fbb      	ldr	r3, [r7, #120]	; 0x78
 80024f0:	9303      	str	r3, [sp, #12]
 80024f2:	6f7b      	ldr	r3, [r7, #116]	; 0x74
 80024f4:	9302      	str	r3, [sp, #8]
 80024f6:	2304      	movs	r3, #4
 80024f8:	9301      	str	r3, [sp, #4]
 80024fa:	4b9c      	ldr	r3, [pc, #624]	; (800276c <_ftoa+0x2e4>)
 80024fc:	9300      	str	r3, [sp, #0]
 80024fe:	683b      	ldr	r3, [r7, #0]
 8002500:	687a      	ldr	r2, [r7, #4]
 8002502:	68b9      	ldr	r1, [r7, #8]
 8002504:	68f8      	ldr	r0, [r7, #12]
 8002506:	f7ff fe29 	bl	800215c <_out_rev>
 800250a:	4603      	mov	r3, r0
 800250c:	e20e      	b.n	800292c <_ftoa+0x4a4>
  if (value > DBL_MAX)
 800250e:	f04f 32ff 	mov.w	r2, #4294967295	; 0xffffffff
 8002512:	4b97      	ldr	r3, [pc, #604]	; (8002770 <_ftoa+0x2e8>)
 8002514:	e9d7 011a 	ldrd	r0, r1, [r7, #104]	; 0x68
 8002518:	f7fe fac6 	bl	8000aa8 <__aeabi_dcmpgt>
 800251c:	4603      	mov	r3, r0
 800251e:	2b00      	cmp	r3, #0
 8002520:	d01d      	beq.n	800255e <_ftoa+0xd6>
    return _out_rev(out, buffer, idx, maxlen, (flags & FLAGS_PLUS) ? "fni+" : "fni", (flags & FLAGS_PLUS) ? 4U : 3U, width, flags);
 8002522:	6fbb      	ldr	r3, [r7, #120]	; 0x78
 8002524:	f003 0304 	and.w	r3, r3, #4
 8002528:	2b00      	cmp	r3, #0
 800252a:	d001      	beq.n	8002530 <_ftoa+0xa8>
 800252c:	4b91      	ldr	r3, [pc, #580]	; (8002774 <_ftoa+0x2ec>)
 800252e:	e000      	b.n	8002532 <_ftoa+0xaa>
 8002530:	4b91      	ldr	r3, [pc, #580]	; (8002778 <_ftoa+0x2f0>)
 8002532:	6fba      	ldr	r2, [r7, #120]	; 0x78
 8002534:	f002 0204 	and.w	r2, r2, #4
 8002538:	2a00      	cmp	r2, #0
 800253a:	d001      	beq.n	8002540 <_ftoa+0xb8>
 800253c:	2204      	movs	r2, #4
 800253e:	e000      	b.n	8002542 <_ftoa+0xba>
 8002540:	2203      	movs	r2, #3
 8002542:	6fb9      	ldr	r1, [r7, #120]	; 0x78
 8002544:	9103      	str	r1, [sp, #12]
 8002546:	6f79      	ldr	r1, [r7, #116]	; 0x74
 8002548:	9102      	str	r1, [sp, #8]
 800254a:	9201      	str	r2, [sp, #4]
 800254c:	9300      	str	r3, [sp, #0]
 800254e:	683b      	ldr	r3, [r7, #0]
 8002550:	687a      	ldr	r2, [r7, #4]
 8002552:	68b9      	ldr	r1, [r7, #8]
 8002554:	68f8      	ldr	r0, [r7, #12]
 8002556:	f7ff fe01 	bl	800215c <_out_rev>
 800255a:	4603      	mov	r3, r0
 800255c:	e1e6      	b.n	800292c <_ftoa+0x4a4>

  // test for very large values
  // standard printf behavior is to print EVERY whole number digit -- which could be 100s of characters overflowing your buffers == bad
  if ((value > PRINTF_MAX_FLOAT) || (value < -PRINTF_MAX_FLOAT)) {
 800255e:	a37e      	add	r3, pc, #504	; (adr r3, 8002758 <_ftoa+0x2d0>)
 8002560:	e9d3 2300 	ldrd	r2, r3, [r3]
 8002564:	e9d7 011a 	ldrd	r0, r1, [r7, #104]	; 0x68
 8002568:	f7fe fa9e 	bl	8000aa8 <__aeabi_dcmpgt>
 800256c:	4603      	mov	r3, r0
 800256e:	2b00      	cmp	r3, #0
 8002570:	d109      	bne.n	8002586 <_ftoa+0xfe>
 8002572:	a37b      	add	r3, pc, #492	; (adr r3, 8002760 <_ftoa+0x2d8>)
 8002574:	e9d3 2300 	ldrd	r2, r3, [r3]
 8002578:	e9d7 011a 	ldrd	r0, r1, [r7, #104]	; 0x68
 800257c:	f7fe fa76 	bl	8000a6c <__aeabi_dcmplt>
 8002580:	4603      	mov	r3, r0
 8002582:	2b00      	cmp	r3, #0
 8002584:	d001      	beq.n	800258a <_ftoa+0x102>
#if defined(PRINTF_SUPPORT_EXPONENTIAL)
    return _etoa(out, buffer, idx, maxlen, value, prec, width, flags);
#else
    return 0U;
 8002586:	2300      	movs	r3, #0
 8002588:	e1d0      	b.n	800292c <_ftoa+0x4a4>
#endif
  }

  // test for negative
  bool negative = false;
 800258a:	2300      	movs	r3, #0
 800258c:	f887 3053 	strb.w	r3, [r7, #83]	; 0x53
  if (value < 0) {
 8002590:	f04f 0200 	mov.w	r2, #0
 8002594:	f04f 0300 	mov.w	r3, #0
 8002598:	e9d7 011a 	ldrd	r0, r1, [r7, #104]	; 0x68
 800259c:	f7fe fa66 	bl	8000a6c <__aeabi_dcmplt>
 80025a0:	4603      	mov	r3, r0
 80025a2:	2b00      	cmp	r3, #0
 80025a4:	d00e      	beq.n	80025c4 <_ftoa+0x13c>
    negative = true;
 80025a6:	2301      	movs	r3, #1
 80025a8:	f887 3053 	strb.w	r3, [r7, #83]	; 0x53
    value = 0 - value;
 80025ac:	e9d7 231a 	ldrd	r2, r3, [r7, #104]	; 0x68
 80025b0:	f04f 0000 	mov.w	r0, #0
 80025b4:	f04f 0100 	mov.w	r1, #0
 80025b8:	f7fd fe2e 	bl	8000218 <__aeabi_dsub>
 80025bc:	4603      	mov	r3, r0
 80025be:	460c      	mov	r4, r1
 80025c0:	e9c7 341a 	strd	r3, r4, [r7, #104]	; 0x68
  }

  // set default precision, if not set explicitly
  if (!(flags & FLAGS_PRECISION)) {
 80025c4:	6fbb      	ldr	r3, [r7, #120]	; 0x78
 80025c6:	f403 6380 	and.w	r3, r3, #1024	; 0x400
 80025ca:	2b00      	cmp	r3, #0
 80025cc:	d10e      	bne.n	80025ec <_ftoa+0x164>
    prec = PRINTF_DEFAULT_FLOAT_PRECISION;
 80025ce:	2306      	movs	r3, #6
 80025d0:	673b      	str	r3, [r7, #112]	; 0x70
  }
  // limit precision to 9, cause a prec >= 10 can lead to overflow errors
  while ((len < PRINTF_FTOA_BUFFER_SIZE) && (prec > 9U)) {
 80025d2:	e00b      	b.n	80025ec <_ftoa+0x164>
    buf[len++] = '0';
 80025d4:	6d7b      	ldr	r3, [r7, #84]	; 0x54
 80025d6:	1c5a      	adds	r2, r3, #1
 80025d8:	657a      	str	r2, [r7, #84]	; 0x54
 80025da:	f107 0258 	add.w	r2, r7, #88	; 0x58
 80025de:	4413      	add	r3, r2
 80025e0:	2230      	movs	r2, #48	; 0x30
 80025e2:	f803 2c48 	strb.w	r2, [r3, #-72]
    prec--;
 80025e6:	6f3b      	ldr	r3, [r7, #112]	; 0x70
 80025e8:	3b01      	subs	r3, #1
 80025ea:	673b      	str	r3, [r7, #112]	; 0x70
  while ((len < PRINTF_FTOA_BUFFER_SIZE) && (prec > 9U)) {
 80025ec:	6d7b      	ldr	r3, [r7, #84]	; 0x54
 80025ee:	2b1f      	cmp	r3, #31
 80025f0:	d802      	bhi.n	80025f8 <_ftoa+0x170>
 80025f2:	6f3b      	ldr	r3, [r7, #112]	; 0x70
 80025f4:	2b09      	cmp	r3, #9
 80025f6:	d8ed      	bhi.n	80025d4 <_ftoa+0x14c>
  }

  int whole = (int)value;
 80025f8:	e9d7 011a 	ldrd	r0, r1, [r7, #104]	; 0x68
 80025fc:	f7fe fa5e 	bl	8000abc <__aeabi_d2iz>
 8002600:	4603      	mov	r3, r0
 8002602:	64fb      	str	r3, [r7, #76]	; 0x4c
  double tmp = (value - whole) * pow10[prec];
 8002604:	6cf8      	ldr	r0, [r7, #76]	; 0x4c
 8002606:	f7fd ff55 	bl	80004b4 <__aeabi_i2d>
 800260a:	4603      	mov	r3, r0
 800260c:	460c      	mov	r4, r1
 800260e:	461a      	mov	r2, r3
 8002610:	4623      	mov	r3, r4
 8002612:	e9d7 011a 	ldrd	r0, r1, [r7, #104]	; 0x68
 8002616:	f7fd fdff 	bl	8000218 <__aeabi_dsub>
 800261a:	4603      	mov	r3, r0
 800261c:	460c      	mov	r4, r1
 800261e:	4618      	mov	r0, r3
 8002620:	4621      	mov	r1, r4
 8002622:	4a56      	ldr	r2, [pc, #344]	; (800277c <_ftoa+0x2f4>)
 8002624:	6f3b      	ldr	r3, [r7, #112]	; 0x70
 8002626:	00db      	lsls	r3, r3, #3
 8002628:	4413      	add	r3, r2
 800262a:	e9d3 3400 	ldrd	r3, r4, [r3]
 800262e:	461a      	mov	r2, r3
 8002630:	4623      	mov	r3, r4
 8002632:	f7fd ffa9 	bl	8000588 <__aeabi_dmul>
 8002636:	4603      	mov	r3, r0
 8002638:	460c      	mov	r4, r1
 800263a:	e9c7 340c 	strd	r3, r4, [r7, #48]	; 0x30
  unsigned long frac = (unsigned long)tmp;
 800263e:	e9d7 010c 	ldrd	r0, r1, [r7, #48]	; 0x30
 8002642:	f7fe fa63 	bl	8000b0c <__aeabi_d2uiz>
 8002646:	4603      	mov	r3, r0
 8002648:	64bb      	str	r3, [r7, #72]	; 0x48
  diff = tmp - frac;
 800264a:	6cb8      	ldr	r0, [r7, #72]	; 0x48
 800264c:	f7fd ff22 	bl	8000494 <__aeabi_ui2d>
 8002650:	4603      	mov	r3, r0
 8002652:	460c      	mov	r4, r1
 8002654:	461a      	mov	r2, r3
 8002656:	4623      	mov	r3, r4
 8002658:	e9d7 010c 	ldrd	r0, r1, [r7, #48]	; 0x30
 800265c:	f7fd fddc 	bl	8000218 <__aeabi_dsub>
 8002660:	4603      	mov	r3, r0
 8002662:	460c      	mov	r4, r1
 8002664:	e9c7 340e 	strd	r3, r4, [r7, #56]	; 0x38

  if (diff > 0.5) {
 8002668:	f04f 0200 	mov.w	r2, #0
 800266c:	4b44      	ldr	r3, [pc, #272]	; (8002780 <_ftoa+0x2f8>)
 800266e:	e9d7 010e 	ldrd	r0, r1, [r7, #56]	; 0x38
 8002672:	f7fe fa19 	bl	8000aa8 <__aeabi_dcmpgt>
 8002676:	4603      	mov	r3, r0
 8002678:	2b00      	cmp	r3, #0
 800267a:	d018      	beq.n	80026ae <_ftoa+0x226>
    ++frac;
 800267c:	6cbb      	ldr	r3, [r7, #72]	; 0x48
 800267e:	3301      	adds	r3, #1
 8002680:	64bb      	str	r3, [r7, #72]	; 0x48
    // handle rollover, e.g. case 0.99 with prec 1 is 1.0
    if (frac >= pow10[prec]) {
 8002682:	6cb8      	ldr	r0, [r7, #72]	; 0x48
 8002684:	f7fd ff06 	bl	8000494 <__aeabi_ui2d>
 8002688:	4a3c      	ldr	r2, [pc, #240]	; (800277c <_ftoa+0x2f4>)
 800268a:	6f3b      	ldr	r3, [r7, #112]	; 0x70
 800268c:	00db      	lsls	r3, r3, #3
 800268e:	4413      	add	r3, r2
 8002690:	e9d3 3400 	ldrd	r3, r4, [r3]
 8002694:	461a      	mov	r2, r3
 8002696:	4623      	mov	r3, r4
 8002698:	f7fe f9fc 	bl	8000a94 <__aeabi_dcmpge>
 800269c:	4603      	mov	r3, r0
 800269e:	2b00      	cmp	r3, #0
 80026a0:	d01a      	beq.n	80026d8 <_ftoa+0x250>
      frac = 0;
 80026a2:	2300      	movs	r3, #0
 80026a4:	64bb      	str	r3, [r7, #72]	; 0x48
      ++whole;
 80026a6:	6cfb      	ldr	r3, [r7, #76]	; 0x4c
 80026a8:	3301      	adds	r3, #1
 80026aa:	64fb      	str	r3, [r7, #76]	; 0x4c
 80026ac:	e014      	b.n	80026d8 <_ftoa+0x250>
    }
  }
  else if (diff < 0.5) {
 80026ae:	f04f 0200 	mov.w	r2, #0
 80026b2:	4b33      	ldr	r3, [pc, #204]	; (8002780 <_ftoa+0x2f8>)
 80026b4:	e9d7 010e 	ldrd	r0, r1, [r7, #56]	; 0x38
 80026b8:	f7fe f9d8 	bl	8000a6c <__aeabi_dcmplt>
 80026bc:	4603      	mov	r3, r0
 80026be:	2b00      	cmp	r3, #0
 80026c0:	d10a      	bne.n	80026d8 <_ftoa+0x250>
  }
  else if ((frac == 0U) || (frac & 1U)) {
 80026c2:	6cbb      	ldr	r3, [r7, #72]	; 0x48
 80026c4:	2b00      	cmp	r3, #0
 80026c6:	d004      	beq.n	80026d2 <_ftoa+0x24a>
 80026c8:	6cbb      	ldr	r3, [r7, #72]	; 0x48
 80026ca:	f003 0301 	and.w	r3, r3, #1
 80026ce:	2b00      	cmp	r3, #0
 80026d0:	d002      	beq.n	80026d8 <_ftoa+0x250>
    // if halfway, round up if odd OR if last digit is 0
    ++frac;
 80026d2:	6cbb      	ldr	r3, [r7, #72]	; 0x48
 80026d4:	3301      	adds	r3, #1
 80026d6:	64bb      	str	r3, [r7, #72]	; 0x48
  }

  if (prec == 0U) {
 80026d8:	6f3b      	ldr	r3, [r7, #112]	; 0x70
 80026da:	2b00      	cmp	r3, #0
 80026dc:	d136      	bne.n	800274c <_ftoa+0x2c4>
    diff = value - (double)whole;
 80026de:	6cf8      	ldr	r0, [r7, #76]	; 0x4c
 80026e0:	f7fd fee8 	bl	80004b4 <__aeabi_i2d>
 80026e4:	4603      	mov	r3, r0
 80026e6:	460c      	mov	r4, r1
 80026e8:	461a      	mov	r2, r3
 80026ea:	4623      	mov	r3, r4
 80026ec:	e9d7 011a 	ldrd	r0, r1, [r7, #104]	; 0x68
 80026f0:	f7fd fd92 	bl	8000218 <__aeabi_dsub>
 80026f4:	4603      	mov	r3, r0
 80026f6:	460c      	mov	r4, r1
 80026f8:	e9c7 340e 	strd	r3, r4, [r7, #56]	; 0x38
    if ((!(diff < 0.5) || (diff > 0.5)) && (whole & 1)) {
 80026fc:	2301      	movs	r3, #1
 80026fe:	461c      	mov	r4, r3
 8002700:	f04f 0200 	mov.w	r2, #0
 8002704:	4b1e      	ldr	r3, [pc, #120]	; (8002780 <_ftoa+0x2f8>)
 8002706:	e9d7 010e 	ldrd	r0, r1, [r7, #56]	; 0x38
 800270a:	f7fe f9af 	bl	8000a6c <__aeabi_dcmplt>
 800270e:	4603      	mov	r3, r0
 8002710:	2b00      	cmp	r3, #0
 8002712:	d101      	bne.n	8002718 <_ftoa+0x290>
 8002714:	2300      	movs	r3, #0
 8002716:	461c      	mov	r4, r3
 8002718:	b2e3      	uxtb	r3, r4
 800271a:	f083 0301 	eor.w	r3, r3, #1
 800271e:	b2db      	uxtb	r3, r3
 8002720:	2b00      	cmp	r3, #0
 8002722:	d109      	bne.n	8002738 <_ftoa+0x2b0>
 8002724:	f04f 0200 	mov.w	r2, #0
 8002728:	4b15      	ldr	r3, [pc, #84]	; (8002780 <_ftoa+0x2f8>)
 800272a:	e9d7 010e 	ldrd	r0, r1, [r7, #56]	; 0x38
 800272e:	f7fe f9bb 	bl	8000aa8 <__aeabi_dcmpgt>
 8002732:	4603      	mov	r3, r0
 8002734:	2b00      	cmp	r3, #0
 8002736:	d069      	beq.n	800280c <_ftoa+0x384>
 8002738:	6cfb      	ldr	r3, [r7, #76]	; 0x4c
 800273a:	f003 0301 	and.w	r3, r3, #1
 800273e:	2b00      	cmp	r3, #0
 8002740:	f000 8087 	beq.w	8002852 <_ftoa+0x3ca>
      // exactly 0.5 and ODD, then round up
      // 1.5 -> 2, but 2.5 -> 2
      ++whole;
 8002744:	6cfb      	ldr	r3, [r7, #76]	; 0x4c
 8002746:	3301      	adds	r3, #1
 8002748:	64fb      	str	r3, [r7, #76]	; 0x4c
 800274a:	e082      	b.n	8002852 <_ftoa+0x3ca>
    }
  }
  else {
    unsigned int count = prec;
 800274c:	6f3b      	ldr	r3, [r7, #112]	; 0x70
 800274e:	647b      	str	r3, [r7, #68]	; 0x44
    // now do fractional part, as an unsigned number
    while (len < PRINTF_FTOA_BUFFER_SIZE) {
 8002750:	e039      	b.n	80027c6 <_ftoa+0x33e>
 8002752:	bf00      	nop
 8002754:	f3af 8000 	nop.w
 8002758:	00000000 	andeq	r0, r0, r0
 800275c:	41cdcd65 	bicmi	ip, sp, r5, ror #26
 8002760:	00000000 	andeq	r0, r0, r0
 8002764:	c1cdcd65 	bicgt	ip, sp, r5, ror #26
 8002768:	08004b00 	stmdaeq	r0, {r8, r9, fp, lr}
 800276c:	08004b04 	stmdaeq	r0, {r2, r8, r9, fp, lr}
 8002770:	7fefffff 	svcvc	0x00efffff
 8002774:	08004b0c 	stmdaeq	r0, {r2, r3, r8, r9, fp, lr}
 8002778:	08004b14 	stmdaeq	r0, {r2, r4, r8, r9, fp, lr}
 800277c:	08005708 	stmdaeq	r0, {r3, r8, r9, sl, ip, lr}
 8002780:	3fe00000 	svccc	0x00e00000
      --count;
 8002784:	6c7b      	ldr	r3, [r7, #68]	; 0x44
 8002786:	3b01      	subs	r3, #1
 8002788:	647b      	str	r3, [r7, #68]	; 0x44
      buf[len++] = (char)(48U + (frac % 10U));
 800278a:	6cb9      	ldr	r1, [r7, #72]	; 0x48
 800278c:	4b69      	ldr	r3, [pc, #420]	; (8002934 <_ftoa+0x4ac>)
 800278e:	fba3 2301 	umull	r2, r3, r3, r1
 8002792:	08da      	lsrs	r2, r3, #3
 8002794:	4613      	mov	r3, r2
 8002796:	009b      	lsls	r3, r3, #2
 8002798:	4413      	add	r3, r2
 800279a:	005b      	lsls	r3, r3, #1
 800279c:	1aca      	subs	r2, r1, r3
 800279e:	b2d2      	uxtb	r2, r2
 80027a0:	6d7b      	ldr	r3, [r7, #84]	; 0x54
 80027a2:	1c59      	adds	r1, r3, #1
 80027a4:	6579      	str	r1, [r7, #84]	; 0x54
 80027a6:	3230      	adds	r2, #48	; 0x30
 80027a8:	b2d2      	uxtb	r2, r2
 80027aa:	f107 0158 	add.w	r1, r7, #88	; 0x58
 80027ae:	440b      	add	r3, r1
 80027b0:	f803 2c48 	strb.w	r2, [r3, #-72]
      if (!(frac /= 10U)) {
 80027b4:	6cbb      	ldr	r3, [r7, #72]	; 0x48
 80027b6:	4a5f      	ldr	r2, [pc, #380]	; (8002934 <_ftoa+0x4ac>)
 80027b8:	fba2 2303 	umull	r2, r3, r2, r3
 80027bc:	08db      	lsrs	r3, r3, #3
 80027be:	64bb      	str	r3, [r7, #72]	; 0x48
 80027c0:	6cbb      	ldr	r3, [r7, #72]	; 0x48
 80027c2:	2b00      	cmp	r3, #0
 80027c4:	d003      	beq.n	80027ce <_ftoa+0x346>
    while (len < PRINTF_FTOA_BUFFER_SIZE) {
 80027c6:	6d7b      	ldr	r3, [r7, #84]	; 0x54
 80027c8:	2b1f      	cmp	r3, #31
 80027ca:	d9db      	bls.n	8002784 <_ftoa+0x2fc>
 80027cc:	e00a      	b.n	80027e4 <_ftoa+0x35c>
        break;
 80027ce:	bf00      	nop
      }
    }
    // add extra 0s
    while ((len < PRINTF_FTOA_BUFFER_SIZE) && (count-- > 0U)) {
 80027d0:	e008      	b.n	80027e4 <_ftoa+0x35c>
      buf[len++] = '0';
 80027d2:	6d7b      	ldr	r3, [r7, #84]	; 0x54
 80027d4:	1c5a      	adds	r2, r3, #1
 80027d6:	657a      	str	r2, [r7, #84]	; 0x54
 80027d8:	f107 0258 	add.w	r2, r7, #88	; 0x58
 80027dc:	4413      	add	r3, r2
 80027de:	2230      	movs	r2, #48	; 0x30
 80027e0:	f803 2c48 	strb.w	r2, [r3, #-72]
    while ((len < PRINTF_FTOA_BUFFER_SIZE) && (count-- > 0U)) {
 80027e4:	6d7b      	ldr	r3, [r7, #84]	; 0x54
 80027e6:	2b1f      	cmp	r3, #31
 80027e8:	d804      	bhi.n	80027f4 <_ftoa+0x36c>
 80027ea:	6c7b      	ldr	r3, [r7, #68]	; 0x44
 80027ec:	1e5a      	subs	r2, r3, #1
 80027ee:	647a      	str	r2, [r7, #68]	; 0x44
 80027f0:	2b00      	cmp	r3, #0
 80027f2:	d1ee      	bne.n	80027d2 <_ftoa+0x34a>
    }
    if (len < PRINTF_FTOA_BUFFER_SIZE) {
 80027f4:	6d7b      	ldr	r3, [r7, #84]	; 0x54
 80027f6:	2b1f      	cmp	r3, #31
 80027f8:	d82b      	bhi.n	8002852 <_ftoa+0x3ca>
      // add decimal
      buf[len++] = '.';
 80027fa:	6d7b      	ldr	r3, [r7, #84]	; 0x54
 80027fc:	1c5a      	adds	r2, r3, #1
 80027fe:	657a      	str	r2, [r7, #84]	; 0x54
 8002800:	f107 0258 	add.w	r2, r7, #88	; 0x58
 8002804:	4413      	add	r3, r2
 8002806:	222e      	movs	r2, #46	; 0x2e
 8002808:	f803 2c48 	strb.w	r2, [r3, #-72]
    }
  }

  // do whole part, number is reversed
  while (len < PRINTF_FTOA_BUFFER_SIZE) {
 800280c:	e021      	b.n	8002852 <_ftoa+0x3ca>
    buf[len++] = (char)(48 + (whole % 10));
 800280e:	6cfa      	ldr	r2, [r7, #76]	; 0x4c
 8002810:	4b49      	ldr	r3, [pc, #292]	; (8002938 <_ftoa+0x4b0>)
 8002812:	fb83 1302 	smull	r1, r3, r3, r2
 8002816:	1099      	asrs	r1, r3, #2
 8002818:	17d3      	asrs	r3, r2, #31
 800281a:	1ac9      	subs	r1, r1, r3
 800281c:	460b      	mov	r3, r1
 800281e:	009b      	lsls	r3, r3, #2
 8002820:	440b      	add	r3, r1
 8002822:	005b      	lsls	r3, r3, #1
 8002824:	1ad1      	subs	r1, r2, r3
 8002826:	b2ca      	uxtb	r2, r1
 8002828:	6d7b      	ldr	r3, [r7, #84]	; 0x54
 800282a:	1c59      	adds	r1, r3, #1
 800282c:	6579      	str	r1, [r7, #84]	; 0x54
 800282e:	3230      	adds	r2, #48	; 0x30
 8002830:	b2d2      	uxtb	r2, r2
 8002832:	f107 0158 	add.w	r1, r7, #88	; 0x58
 8002836:	440b      	add	r3, r1
 8002838:	f803 2c48 	strb.w	r2, [r3, #-72]
    if (!(whole /= 10)) {
 800283c:	6cfb      	ldr	r3, [r7, #76]	; 0x4c
 800283e:	4a3e      	ldr	r2, [pc, #248]	; (8002938 <_ftoa+0x4b0>)
 8002840:	fb82 1203 	smull	r1, r2, r2, r3
 8002844:	1092      	asrs	r2, r2, #2
 8002846:	17db      	asrs	r3, r3, #31
 8002848:	1ad3      	subs	r3, r2, r3
 800284a:	64fb      	str	r3, [r7, #76]	; 0x4c
 800284c:	6cfb      	ldr	r3, [r7, #76]	; 0x4c
 800284e:	2b00      	cmp	r3, #0
 8002850:	d003      	beq.n	800285a <_ftoa+0x3d2>
  while (len < PRINTF_FTOA_BUFFER_SIZE) {
 8002852:	6d7b      	ldr	r3, [r7, #84]	; 0x54
 8002854:	2b1f      	cmp	r3, #31
 8002856:	d9da      	bls.n	800280e <_ftoa+0x386>
 8002858:	e000      	b.n	800285c <_ftoa+0x3d4>
      break;
 800285a:	bf00      	nop
    }
  }

  // pad leading zeros
  if (!(flags & FLAGS_LEFT) && (flags & FLAGS_ZEROPAD)) {
 800285c:	6fbb      	ldr	r3, [r7, #120]	; 0x78
 800285e:	f003 0302 	and.w	r3, r3, #2
 8002862:	2b00      	cmp	r3, #0
 8002864:	d124      	bne.n	80028b0 <_ftoa+0x428>
 8002866:	6fbb      	ldr	r3, [r7, #120]	; 0x78
 8002868:	f003 0301 	and.w	r3, r3, #1
 800286c:	2b00      	cmp	r3, #0
 800286e:	d01f      	beq.n	80028b0 <_ftoa+0x428>
    if (width && (negative || (flags & (FLAGS_PLUS | FLAGS_SPACE)))) {
 8002870:	6f7b      	ldr	r3, [r7, #116]	; 0x74
 8002872:	2b00      	cmp	r3, #0
 8002874:	d015      	beq.n	80028a2 <_ftoa+0x41a>
 8002876:	f897 3053 	ldrb.w	r3, [r7, #83]	; 0x53
 800287a:	2b00      	cmp	r3, #0
 800287c:	d104      	bne.n	8002888 <_ftoa+0x400>
 800287e:	6fbb      	ldr	r3, [r7, #120]	; 0x78
 8002880:	f003 030c 	and.w	r3, r3, #12
 8002884:	2b00      	cmp	r3, #0
 8002886:	d00c      	beq.n	80028a2 <_ftoa+0x41a>
      width--;
 8002888:	6f7b      	ldr	r3, [r7, #116]	; 0x74
 800288a:	3b01      	subs	r3, #1
 800288c:	677b      	str	r3, [r7, #116]	; 0x74
    }
    while ((len < width) && (len < PRINTF_FTOA_BUFFER_SIZE)) {
 800288e:	e008      	b.n	80028a2 <_ftoa+0x41a>
      buf[len++] = '0';
 8002890:	6d7b      	ldr	r3, [r7, #84]	; 0x54
 8002892:	1c5a      	adds	r2, r3, #1
 8002894:	657a      	str	r2, [r7, #84]	; 0x54
 8002896:	f107 0258 	add.w	r2, r7, #88	; 0x58
 800289a:	4413      	add	r3, r2
 800289c:	2230      	movs	r2, #48	; 0x30
 800289e:	f803 2c48 	strb.w	r2, [r3, #-72]
    while ((len < width) && (len < PRINTF_FTOA_BUFFER_SIZE)) {
 80028a2:	6d7a      	ldr	r2, [r7, #84]	; 0x54
 80028a4:	6f7b      	ldr	r3, [r7, #116]	; 0x74
 80028a6:	429a      	cmp	r2, r3
 80028a8:	d202      	bcs.n	80028b0 <_ftoa+0x428>
 80028aa:	6d7b      	ldr	r3, [r7, #84]	; 0x54
 80028ac:	2b1f      	cmp	r3, #31
 80028ae:	d9ef      	bls.n	8002890 <_ftoa+0x408>
    }
  }

  if (len < PRINTF_FTOA_BUFFER_SIZE) {
 80028b0:	6d7b      	ldr	r3, [r7, #84]	; 0x54
 80028b2:	2b1f      	cmp	r3, #31
 80028b4:	d82a      	bhi.n	800290c <_ftoa+0x484>
    if (negative) {
 80028b6:	f897 3053 	ldrb.w	r3, [r7, #83]	; 0x53
 80028ba:	2b00      	cmp	r3, #0
 80028bc:	d009      	beq.n	80028d2 <_ftoa+0x44a>
      buf[len++] = '-';
 80028be:	6d7b      	ldr	r3, [r7, #84]	; 0x54
 80028c0:	1c5a      	adds	r2, r3, #1
 80028c2:	657a      	str	r2, [r7, #84]	; 0x54
 80028c4:	f107 0258 	add.w	r2, r7, #88	; 0x58
 80028c8:	4413      	add	r3, r2
 80028ca:	222d      	movs	r2, #45	; 0x2d
 80028cc:	f803 2c48 	strb.w	r2, [r3, #-72]
 80028d0:	e01c      	b.n	800290c <_ftoa+0x484>
    }
    else if (flags & FLAGS_PLUS) {
 80028d2:	6fbb      	ldr	r3, [r7, #120]	; 0x78
 80028d4:	f003 0304 	and.w	r3, r3, #4
 80028d8:	2b00      	cmp	r3, #0
 80028da:	d009      	beq.n	80028f0 <_ftoa+0x468>
      buf[len++] = '+';  // ignore the space if the '+' exists
 80028dc:	6d7b      	ldr	r3, [r7, #84]	; 0x54
 80028de:	1c5a      	adds	r2, r3, #1
 80028e0:	657a      	str	r2, [r7, #84]	; 0x54
 80028e2:	f107 0258 	add.w	r2, r7, #88	; 0x58
 80028e6:	4413      	add	r3, r2
 80028e8:	222b      	movs	r2, #43	; 0x2b
 80028ea:	f803 2c48 	strb.w	r2, [r3, #-72]
 80028ee:	e00d      	b.n	800290c <_ftoa+0x484>
    }
    else if (flags & FLAGS_SPACE) {
 80028f0:	6fbb      	ldr	r3, [r7, #120]	; 0x78
 80028f2:	f003 0308 	and.w	r3, r3, #8
 80028f6:	2b00      	cmp	r3, #0
 80028f8:	d008      	beq.n	800290c <_ftoa+0x484>
      buf[len++] = ' ';
 80028fa:	6d7b      	ldr	r3, [r7, #84]	; 0x54
 80028fc:	1c5a      	adds	r2, r3, #1
 80028fe:	657a      	str	r2, [r7, #84]	; 0x54
 8002900:	f107 0258 	add.w	r2, r7, #88	; 0x58
 8002904:	4413      	add	r3, r2
 8002906:	2220      	movs	r2, #32
 8002908:	f803 2c48 	strb.w	r2, [r3, #-72]
    }
  }

  return _out_rev(out, buffer, idx, maxlen, buf, len, width, flags);
 800290c:	6fbb      	ldr	r3, [r7, #120]	; 0x78
 800290e:	9303      	str	r3, [sp, #12]
 8002910:	6f7b      	ldr	r3, [r7, #116]	; 0x74
 8002912:	9302      	str	r3, [sp, #8]
 8002914:	6d7b      	ldr	r3, [r7, #84]	; 0x54
 8002916:	9301      	str	r3, [sp, #4]
 8002918:	f107 0310 	add.w	r3, r7, #16
 800291c:	9300      	str	r3, [sp, #0]
 800291e:	683b      	ldr	r3, [r7, #0]
 8002920:	687a      	ldr	r2, [r7, #4]
 8002922:	68b9      	ldr	r1, [r7, #8]
 8002924:	68f8      	ldr	r0, [r7, #12]
 8002926:	f7ff fc19 	bl	800215c <_out_rev>
 800292a:	4603      	mov	r3, r0
}
 800292c:	4618      	mov	r0, r3
 800292e:	375c      	adds	r7, #92	; 0x5c
 8002930:	46bd      	mov	sp, r7
 8002932:	bd90      	pop	{r4, r7, pc}
 8002934:	cccccccd 	stclgt	12, cr12, [ip], {205}	; 0xcd
 8002938:	66666667 	strbtvs	r6, [r6], -r7, ror #12

0800293c <_vsnprintf>:
#endif  // PRINTF_SUPPORT_FLOAT


// internal vsnprintf
static int _vsnprintf(out_fct_type out, char* buffer, const size_t maxlen, const char* format, va_list va)
{
 800293c:	b590      	push	{r4, r7, lr}
 800293e:	b099      	sub	sp, #100	; 0x64
 8002940:	af06      	add	r7, sp, #24
 8002942:	60f8      	str	r0, [r7, #12]
 8002944:	60b9      	str	r1, [r7, #8]
 8002946:	607a      	str	r2, [r7, #4]
 8002948:	603b      	str	r3, [r7, #0]
  unsigned int flags, width, precision, n;
  size_t idx = 0U;
 800294a:	2300      	movs	r3, #0
 800294c:	637b      	str	r3, [r7, #52]	; 0x34

  if (!buffer) {
 800294e:	68bb      	ldr	r3, [r7, #8]
 8002950:	2b00      	cmp	r3, #0
 8002952:	f040 83e3 	bne.w	800311c <_vsnprintf+0x7e0>
    // use null output function
    out = _out_null;
 8002956:	4b9f      	ldr	r3, [pc, #636]	; (8002bd4 <_vsnprintf+0x298>)
 8002958:	60fb      	str	r3, [r7, #12]
  }

  while (*format)
 800295a:	e3df      	b.n	800311c <_vsnprintf+0x7e0>
  {
    // format specifier?  %[flags][width][.precision][length]
    if (*format != '%') {
 800295c:	683b      	ldr	r3, [r7, #0]
 800295e:	781b      	ldrb	r3, [r3, #0]
 8002960:	2b25      	cmp	r3, #37	; 0x25
 8002962:	d00c      	beq.n	800297e <_vsnprintf+0x42>
      // no
      out(*format, buffer, idx++, maxlen);
 8002964:	683b      	ldr	r3, [r7, #0]
 8002966:	7818      	ldrb	r0, [r3, #0]
 8002968:	6b7a      	ldr	r2, [r7, #52]	; 0x34
 800296a:	1c53      	adds	r3, r2, #1
 800296c:	637b      	str	r3, [r7, #52]	; 0x34
 800296e:	68fc      	ldr	r4, [r7, #12]
 8002970:	687b      	ldr	r3, [r7, #4]
 8002972:	68b9      	ldr	r1, [r7, #8]
 8002974:	47a0      	blx	r4
      format++;
 8002976:	683b      	ldr	r3, [r7, #0]
 8002978:	3301      	adds	r3, #1
 800297a:	603b      	str	r3, [r7, #0]
      continue;
 800297c:	e3ce      	b.n	800311c <_vsnprintf+0x7e0>
    }
    else {
      // yes, evaluate it
      format++;
 800297e:	683b      	ldr	r3, [r7, #0]
 8002980:	3301      	adds	r3, #1
 8002982:	603b      	str	r3, [r7, #0]
    }

    // evaluate flags
    flags = 0U;
 8002984:	2300      	movs	r3, #0
 8002986:	647b      	str	r3, [r7, #68]	; 0x44
    do {
      switch (*format) {
 8002988:	683b      	ldr	r3, [r7, #0]
 800298a:	781b      	ldrb	r3, [r3, #0]
 800298c:	3b20      	subs	r3, #32
 800298e:	2b10      	cmp	r3, #16
 8002990:	d856      	bhi.n	8002a40 <_vsnprintf+0x104>
 8002992:	a201      	add	r2, pc, #4	; (adr r2, 8002998 <_vsnprintf+0x5c>)
 8002994:	f852 f023 	ldr.w	pc, [r2, r3, lsl #2]
 8002998:	08002a19 	stmdaeq	r0, {r0, r3, r4, r9, fp, sp}
 800299c:	08002a41 	stmdaeq	r0, {r0, r6, r9, fp, sp}
 80029a0:	08002a41 	stmdaeq	r0, {r0, r6, r9, fp, sp}
 80029a4:	08002a2d 	stmdaeq	r0, {r0, r2, r3, r5, r9, fp, sp}
 80029a8:	08002a41 	stmdaeq	r0, {r0, r6, r9, fp, sp}
 80029ac:	08002a41 	stmdaeq	r0, {r0, r6, r9, fp, sp}
 80029b0:	08002a41 	stmdaeq	r0, {r0, r6, r9, fp, sp}
 80029b4:	08002a41 	stmdaeq	r0, {r0, r6, r9, fp, sp}
 80029b8:	08002a41 	stmdaeq	r0, {r0, r6, r9, fp, sp}
 80029bc:	08002a41 	stmdaeq	r0, {r0, r6, r9, fp, sp}
 80029c0:	08002a41 	stmdaeq	r0, {r0, r6, r9, fp, sp}
 80029c4:	08002a05 	stmdaeq	r0, {r0, r2, r9, fp, sp}
 80029c8:	08002a41 	stmdaeq	r0, {r0, r6, r9, fp, sp}
 80029cc:	080029f1 	stmdaeq	r0, {r0, r4, r5, r6, r7, r8, fp, sp}
 80029d0:	08002a41 	stmdaeq	r0, {r0, r6, r9, fp, sp}
 80029d4:	08002a41 	stmdaeq	r0, {r0, r6, r9, fp, sp}
 80029d8:	080029dd 	stmdaeq	r0, {r0, r2, r3, r4, r6, r7, r8, fp, sp}
        case '0': flags |= FLAGS_ZEROPAD; format++; n = 1U; break;
 80029dc:	6c7b      	ldr	r3, [r7, #68]	; 0x44
 80029de:	f043 0301 	orr.w	r3, r3, #1
 80029e2:	647b      	str	r3, [r7, #68]	; 0x44
 80029e4:	683b      	ldr	r3, [r7, #0]
 80029e6:	3301      	adds	r3, #1
 80029e8:	603b      	str	r3, [r7, #0]
 80029ea:	2301      	movs	r3, #1
 80029ec:	63bb      	str	r3, [r7, #56]	; 0x38
 80029ee:	e02a      	b.n	8002a46 <_vsnprintf+0x10a>
        case '-': flags |= FLAGS_LEFT;    format++; n = 1U; break;
 80029f0:	6c7b      	ldr	r3, [r7, #68]	; 0x44
 80029f2:	f043 0302 	orr.w	r3, r3, #2
 80029f6:	647b      	str	r3, [r7, #68]	; 0x44
 80029f8:	683b      	ldr	r3, [r7, #0]
 80029fa:	3301      	adds	r3, #1
 80029fc:	603b      	str	r3, [r7, #0]
 80029fe:	2301      	movs	r3, #1
 8002a00:	63bb      	str	r3, [r7, #56]	; 0x38
 8002a02:	e020      	b.n	8002a46 <_vsnprintf+0x10a>
        case '+': flags |= FLAGS_PLUS;    format++; n = 1U; break;
 8002a04:	6c7b      	ldr	r3, [r7, #68]	; 0x44
 8002a06:	f043 0304 	orr.w	r3, r3, #4
 8002a0a:	647b      	str	r3, [r7, #68]	; 0x44
 8002a0c:	683b      	ldr	r3, [r7, #0]
 8002a0e:	3301      	adds	r3, #1
 8002a10:	603b      	str	r3, [r7, #0]
 8002a12:	2301      	movs	r3, #1
 8002a14:	63bb      	str	r3, [r7, #56]	; 0x38
 8002a16:	e016      	b.n	8002a46 <_vsnprintf+0x10a>
        case ' ': flags |= FLAGS_SPACE;   format++; n = 1U; break;
 8002a18:	6c7b      	ldr	r3, [r7, #68]	; 0x44
 8002a1a:	f043 0308 	orr.w	r3, r3, #8
 8002a1e:	647b      	str	r3, [r7, #68]	; 0x44
 8002a20:	683b      	ldr	r3, [r7, #0]
 8002a22:	3301      	adds	r3, #1
 8002a24:	603b      	str	r3, [r7, #0]
 8002a26:	2301      	movs	r3, #1
 8002a28:	63bb      	str	r3, [r7, #56]	; 0x38
 8002a2a:	e00c      	b.n	8002a46 <_vsnprintf+0x10a>
        case '#': flags |= FLAGS_HASH;    format++; n = 1U; break;
 8002a2c:	6c7b      	ldr	r3, [r7, #68]	; 0x44
 8002a2e:	f043 0310 	orr.w	r3, r3, #16
 8002a32:	647b      	str	r3, [r7, #68]	; 0x44
 8002a34:	683b      	ldr	r3, [r7, #0]
 8002a36:	3301      	adds	r3, #1
 8002a38:	603b      	str	r3, [r7, #0]
 8002a3a:	2301      	movs	r3, #1
 8002a3c:	63bb      	str	r3, [r7, #56]	; 0x38
 8002a3e:	e002      	b.n	8002a46 <_vsnprintf+0x10a>
        default :                                   n = 0U; break;
 8002a40:	2300      	movs	r3, #0
 8002a42:	63bb      	str	r3, [r7, #56]	; 0x38
 8002a44:	bf00      	nop
      }
    } while (n);
 8002a46:	6bbb      	ldr	r3, [r7, #56]	; 0x38
 8002a48:	2b00      	cmp	r3, #0
 8002a4a:	d19d      	bne.n	8002988 <_vsnprintf+0x4c>

    // evaluate width field
    width = 0U;
 8002a4c:	2300      	movs	r3, #0
 8002a4e:	643b      	str	r3, [r7, #64]	; 0x40
    if (_is_digit(*format)) {
 8002a50:	683b      	ldr	r3, [r7, #0]
 8002a52:	781b      	ldrb	r3, [r3, #0]
 8002a54:	4618      	mov	r0, r3
 8002a56:	f7ff fb47 	bl	80020e8 <_is_digit>
 8002a5a:	4603      	mov	r3, r0
 8002a5c:	2b00      	cmp	r3, #0
 8002a5e:	d005      	beq.n	8002a6c <_vsnprintf+0x130>
      width = _atoi(&format);
 8002a60:	463b      	mov	r3, r7
 8002a62:	4618      	mov	r0, r3
 8002a64:	f7ff fb56 	bl	8002114 <_atoi>
 8002a68:	6438      	str	r0, [r7, #64]	; 0x40
 8002a6a:	e018      	b.n	8002a9e <_vsnprintf+0x162>
    }
    else if (*format == '*') {
 8002a6c:	683b      	ldr	r3, [r7, #0]
 8002a6e:	781b      	ldrb	r3, [r3, #0]
 8002a70:	2b2a      	cmp	r3, #42	; 0x2a
 8002a72:	d114      	bne.n	8002a9e <_vsnprintf+0x162>
      const int w = va_arg(va, int);
 8002a74:	6dbb      	ldr	r3, [r7, #88]	; 0x58
 8002a76:	1d1a      	adds	r2, r3, #4
 8002a78:	65ba      	str	r2, [r7, #88]	; 0x58
 8002a7a:	681b      	ldr	r3, [r3, #0]
 8002a7c:	623b      	str	r3, [r7, #32]
      if (w < 0) {
 8002a7e:	6a3b      	ldr	r3, [r7, #32]
 8002a80:	2b00      	cmp	r3, #0
 8002a82:	da07      	bge.n	8002a94 <_vsnprintf+0x158>
        flags |= FLAGS_LEFT;    // reverse padding
 8002a84:	6c7b      	ldr	r3, [r7, #68]	; 0x44
 8002a86:	f043 0302 	orr.w	r3, r3, #2
 8002a8a:	647b      	str	r3, [r7, #68]	; 0x44
        width = (unsigned int)-w;
 8002a8c:	6a3b      	ldr	r3, [r7, #32]
 8002a8e:	425b      	negs	r3, r3
 8002a90:	643b      	str	r3, [r7, #64]	; 0x40
 8002a92:	e001      	b.n	8002a98 <_vsnprintf+0x15c>
      }
      else {
        width = (unsigned int)w;
 8002a94:	6a3b      	ldr	r3, [r7, #32]
 8002a96:	643b      	str	r3, [r7, #64]	; 0x40
      }
      format++;
 8002a98:	683b      	ldr	r3, [r7, #0]
 8002a9a:	3301      	adds	r3, #1
 8002a9c:	603b      	str	r3, [r7, #0]
    }

    // evaluate precision field
    precision = 0U;
 8002a9e:	2300      	movs	r3, #0
 8002aa0:	63fb      	str	r3, [r7, #60]	; 0x3c
    if (*format == '.') {
 8002aa2:	683b      	ldr	r3, [r7, #0]
 8002aa4:	781b      	ldrb	r3, [r3, #0]
 8002aa6:	2b2e      	cmp	r3, #46	; 0x2e
 8002aa8:	d124      	bne.n	8002af4 <_vsnprintf+0x1b8>
      flags |= FLAGS_PRECISION;
 8002aaa:	6c7b      	ldr	r3, [r7, #68]	; 0x44
 8002aac:	f443 6380 	orr.w	r3, r3, #1024	; 0x400
 8002ab0:	647b      	str	r3, [r7, #68]	; 0x44
      format++;
 8002ab2:	683b      	ldr	r3, [r7, #0]
 8002ab4:	3301      	adds	r3, #1
 8002ab6:	603b      	str	r3, [r7, #0]
      if (_is_digit(*format)) {
 8002ab8:	683b      	ldr	r3, [r7, #0]
 8002aba:	781b      	ldrb	r3, [r3, #0]
 8002abc:	4618      	mov	r0, r3
 8002abe:	f7ff fb13 	bl	80020e8 <_is_digit>
 8002ac2:	4603      	mov	r3, r0
 8002ac4:	2b00      	cmp	r3, #0
 8002ac6:	d005      	beq.n	8002ad4 <_vsnprintf+0x198>
        precision = _atoi(&format);
 8002ac8:	463b      	mov	r3, r7
 8002aca:	4618      	mov	r0, r3
 8002acc:	f7ff fb22 	bl	8002114 <_atoi>
 8002ad0:	63f8      	str	r0, [r7, #60]	; 0x3c
 8002ad2:	e00f      	b.n	8002af4 <_vsnprintf+0x1b8>
      }
      else if (*format == '*') {
 8002ad4:	683b      	ldr	r3, [r7, #0]
 8002ad6:	781b      	ldrb	r3, [r3, #0]
 8002ad8:	2b2a      	cmp	r3, #42	; 0x2a
 8002ada:	d10b      	bne.n	8002af4 <_vsnprintf+0x1b8>
        const int prec = (int)va_arg(va, int);
 8002adc:	6dbb      	ldr	r3, [r7, #88]	; 0x58
 8002ade:	1d1a      	adds	r2, r3, #4
 8002ae0:	65ba      	str	r2, [r7, #88]	; 0x58
 8002ae2:	681b      	ldr	r3, [r3, #0]
 8002ae4:	61fb      	str	r3, [r7, #28]
        precision = prec > 0 ? (unsigned int)prec : 0U;
 8002ae6:	69fb      	ldr	r3, [r7, #28]
 8002ae8:	ea23 73e3 	bic.w	r3, r3, r3, asr #31
 8002aec:	63fb      	str	r3, [r7, #60]	; 0x3c
        format++;
 8002aee:	683b      	ldr	r3, [r7, #0]
 8002af0:	3301      	adds	r3, #1
 8002af2:	603b      	str	r3, [r7, #0]
      }
    }

    // evaluate length field
    switch (*format) {
 8002af4:	683b      	ldr	r3, [r7, #0]
 8002af6:	781b      	ldrb	r3, [r3, #0]
 8002af8:	3b68      	subs	r3, #104	; 0x68
 8002afa:	2b12      	cmp	r3, #18
 8002afc:	d866      	bhi.n	8002bcc <_vsnprintf+0x290>
 8002afe:	a201      	add	r2, pc, #4	; (adr r2, 8002b04 <_vsnprintf+0x1c8>)
 8002b00:	f852 f023 	ldr.w	pc, [r2, r3, lsl #2]
 8002b04:	08002b77 	stmdaeq	r0, {r0, r1, r2, r4, r5, r6, r8, r9, fp, sp}
 8002b08:	08002bcd 	stmdaeq	r0, {r0, r2, r3, r6, r7, r8, r9, fp, sp}
 8002b0c:	08002bad 	stmdaeq	r0, {r0, r2, r3, r5, r7, r8, r9, fp, sp}
 8002b10:	08002bcd 	stmdaeq	r0, {r0, r2, r3, r6, r7, r8, r9, fp, sp}
 8002b14:	08002b51 	stmdaeq	r0, {r0, r4, r6, r8, r9, fp, sp}
 8002b18:	08002bcd 	stmdaeq	r0, {r0, r2, r3, r6, r7, r8, r9, fp, sp}
 8002b1c:	08002bcd 	stmdaeq	r0, {r0, r2, r3, r6, r7, r8, r9, fp, sp}
 8002b20:	08002bcd 	stmdaeq	r0, {r0, r2, r3, r6, r7, r8, r9, fp, sp}
 8002b24:	08002bcd 	stmdaeq	r0, {r0, r2, r3, r6, r7, r8, r9, fp, sp}
 8002b28:	08002bcd 	stmdaeq	r0, {r0, r2, r3, r6, r7, r8, r9, fp, sp}
 8002b2c:	08002bcd 	stmdaeq	r0, {r0, r2, r3, r6, r7, r8, r9, fp, sp}
 8002b30:	08002bcd 	stmdaeq	r0, {r0, r2, r3, r6, r7, r8, r9, fp, sp}
 8002b34:	08002b9d 	stmdaeq	r0, {r0, r2, r3, r4, r7, r8, r9, fp, sp}
 8002b38:	08002bcd 	stmdaeq	r0, {r0, r2, r3, r6, r7, r8, r9, fp, sp}
 8002b3c:	08002bcd 	stmdaeq	r0, {r0, r2, r3, r6, r7, r8, r9, fp, sp}
 8002b40:	08002bcd 	stmdaeq	r0, {r0, r2, r3, r6, r7, r8, r9, fp, sp}
 8002b44:	08002bcd 	stmdaeq	r0, {r0, r2, r3, r6, r7, r8, r9, fp, sp}
 8002b48:	08002bcd 	stmdaeq	r0, {r0, r2, r3, r6, r7, r8, r9, fp, sp}
 8002b4c:	08002bbd 	stmdaeq	r0, {r0, r2, r3, r4, r5, r7, r8, r9, fp, sp}
      case 'l' :
        flags |= FLAGS_LONG;
 8002b50:	6c7b      	ldr	r3, [r7, #68]	; 0x44
 8002b52:	f443 7380 	orr.w	r3, r3, #256	; 0x100
 8002b56:	647b      	str	r3, [r7, #68]	; 0x44
        format++;
 8002b58:	683b      	ldr	r3, [r7, #0]
 8002b5a:	3301      	adds	r3, #1
 8002b5c:	603b      	str	r3, [r7, #0]
        if (*format == 'l') {
 8002b5e:	683b      	ldr	r3, [r7, #0]
 8002b60:	781b      	ldrb	r3, [r3, #0]
 8002b62:	2b6c      	cmp	r3, #108	; 0x6c
 8002b64:	d134      	bne.n	8002bd0 <_vsnprintf+0x294>
          flags |= FLAGS_LONG_LONG;
 8002b66:	6c7b      	ldr	r3, [r7, #68]	; 0x44
 8002b68:	f443 7300 	orr.w	r3, r3, #512	; 0x200
 8002b6c:	647b      	str	r3, [r7, #68]	; 0x44
          format++;
 8002b6e:	683b      	ldr	r3, [r7, #0]
 8002b70:	3301      	adds	r3, #1
 8002b72:	603b      	str	r3, [r7, #0]
        }
        break;
 8002b74:	e02c      	b.n	8002bd0 <_vsnprintf+0x294>
      case 'h' :
        flags |= FLAGS_SHORT;
 8002b76:	6c7b      	ldr	r3, [r7, #68]	; 0x44
 8002b78:	f043 0380 	orr.w	r3, r3, #128	; 0x80
 8002b7c:	647b      	str	r3, [r7, #68]	; 0x44
        format++;
 8002b7e:	683b      	ldr	r3, [r7, #0]
 8002b80:	3301      	adds	r3, #1
 8002b82:	603b      	str	r3, [r7, #0]
        if (*format == 'h') {
 8002b84:	683b      	ldr	r3, [r7, #0]
 8002b86:	781b      	ldrb	r3, [r3, #0]
 8002b88:	2b68      	cmp	r3, #104	; 0x68
 8002b8a:	d125      	bne.n	8002bd8 <_vsnprintf+0x29c>
          flags |= FLAGS_CHAR;
 8002b8c:	6c7b      	ldr	r3, [r7, #68]	; 0x44
 8002b8e:	f043 0340 	orr.w	r3, r3, #64	; 0x40
 8002b92:	647b      	str	r3, [r7, #68]	; 0x44
          format++;
 8002b94:	683b      	ldr	r3, [r7, #0]
 8002b96:	3301      	adds	r3, #1
 8002b98:	603b      	str	r3, [r7, #0]
        }
        break;
 8002b9a:	e01d      	b.n	8002bd8 <_vsnprintf+0x29c>
#if defined(PRINTF_SUPPORT_PTRDIFF_T)
      case 't' :
        flags |= (sizeof(ptrdiff_t) == sizeof(long) ? FLAGS_LONG : FLAGS_LONG_LONG);
 8002b9c:	6c7b      	ldr	r3, [r7, #68]	; 0x44
 8002b9e:	f443 7380 	orr.w	r3, r3, #256	; 0x100
 8002ba2:	647b      	str	r3, [r7, #68]	; 0x44
        format++;
 8002ba4:	683b      	ldr	r3, [r7, #0]
 8002ba6:	3301      	adds	r3, #1
 8002ba8:	603b      	str	r3, [r7, #0]
        break;
 8002baa:	e016      	b.n	8002bda <_vsnprintf+0x29e>
#endif
      case 'j' :
        flags |= (sizeof(intmax_t) == sizeof(long) ? FLAGS_LONG : FLAGS_LONG_LONG);
 8002bac:	6c7b      	ldr	r3, [r7, #68]	; 0x44
 8002bae:	f443 7300 	orr.w	r3, r3, #512	; 0x200
 8002bb2:	647b      	str	r3, [r7, #68]	; 0x44
        format++;
 8002bb4:	683b      	ldr	r3, [r7, #0]
 8002bb6:	3301      	adds	r3, #1
 8002bb8:	603b      	str	r3, [r7, #0]
        break;
 8002bba:	e00e      	b.n	8002bda <_vsnprintf+0x29e>
      case 'z' :
        flags |= (sizeof(size_t) == sizeof(long) ? FLAGS_LONG : FLAGS_LONG_LONG);
 8002bbc:	6c7b      	ldr	r3, [r7, #68]	; 0x44
 8002bbe:	f443 7380 	orr.w	r3, r3, #256	; 0x100
 8002bc2:	647b      	str	r3, [r7, #68]	; 0x44
        format++;
 8002bc4:	683b      	ldr	r3, [r7, #0]
 8002bc6:	3301      	adds	r3, #1
 8002bc8:	603b      	str	r3, [r7, #0]
        break;
 8002bca:	e006      	b.n	8002bda <_vsnprintf+0x29e>
      default :
        break;
 8002bcc:	bf00      	nop
 8002bce:	e004      	b.n	8002bda <_vsnprintf+0x29e>
        break;
 8002bd0:	bf00      	nop
 8002bd2:	e002      	b.n	8002bda <_vsnprintf+0x29e>
 8002bd4:	08002071 	stmdaeq	r0, {r0, r4, r5, r6, sp}
        break;
 8002bd8:	bf00      	nop
    }

    // evaluate specifier
    switch (*format) {
 8002bda:	683b      	ldr	r3, [r7, #0]
 8002bdc:	781b      	ldrb	r3, [r3, #0]
 8002bde:	3b25      	subs	r3, #37	; 0x25
 8002be0:	2b53      	cmp	r3, #83	; 0x53
 8002be2:	f200 828e 	bhi.w	8003102 <_vsnprintf+0x7c6>
 8002be6:	a201      	add	r2, pc, #4	; (adr r2, 8002bec <_vsnprintf+0x2b0>)
 8002be8:	f852 f023 	ldr.w	pc, [r2, r3, lsl #2]
 8002bec:	080030eb 	stmdaeq	r0, {r0, r1, r3, r5, r6, r7, ip, sp}
 8002bf0:	08003103 	stmdaeq	r0, {r0, r1, r8, ip, sp}
 8002bf4:	08003103 	stmdaeq	r0, {r0, r1, r8, ip, sp}
 8002bf8:	08003103 	stmdaeq	r0, {r0, r1, r8, ip, sp}
 8002bfc:	08003103 	stmdaeq	r0, {r0, r1, r8, ip, sp}
 8002c00:	08003103 	stmdaeq	r0, {r0, r1, r8, ip, sp}
 8002c04:	08003103 	stmdaeq	r0, {r0, r1, r8, ip, sp}
 8002c08:	08003103 	stmdaeq	r0, {r0, r1, r8, ip, sp}
 8002c0c:	08003103 	stmdaeq	r0, {r0, r1, r8, ip, sp}
 8002c10:	08003103 	stmdaeq	r0, {r0, r1, r8, ip, sp}
 8002c14:	08003103 	stmdaeq	r0, {r0, r1, r8, ip, sp}
 8002c18:	08003103 	stmdaeq	r0, {r0, r1, r8, ip, sp}
 8002c1c:	08003103 	stmdaeq	r0, {r0, r1, r8, ip, sp}
 8002c20:	08003103 	stmdaeq	r0, {r0, r1, r8, ip, sp}
 8002c24:	08003103 	stmdaeq	r0, {r0, r1, r8, ip, sp}
 8002c28:	08003103 	stmdaeq	r0, {r0, r1, r8, ip, sp}
 8002c2c:	08003103 	stmdaeq	r0, {r0, r1, r8, ip, sp}
 8002c30:	08003103 	stmdaeq	r0, {r0, r1, r8, ip, sp}
 8002c34:	08003103 	stmdaeq	r0, {r0, r1, r8, ip, sp}
 8002c38:	08003103 	stmdaeq	r0, {r0, r1, r8, ip, sp}
 8002c3c:	08003103 	stmdaeq	r0, {r0, r1, r8, ip, sp}
 8002c40:	08003103 	stmdaeq	r0, {r0, r1, r8, ip, sp}
 8002c44:	08003103 	stmdaeq	r0, {r0, r1, r8, ip, sp}
 8002c48:	08003103 	stmdaeq	r0, {r0, r1, r8, ip, sp}
 8002c4c:	08003103 	stmdaeq	r0, {r0, r1, r8, ip, sp}
 8002c50:	08003103 	stmdaeq	r0, {r0, r1, r8, ip, sp}
 8002c54:	08003103 	stmdaeq	r0, {r0, r1, r8, ip, sp}
 8002c58:	08003103 	stmdaeq	r0, {r0, r1, r8, ip, sp}
 8002c5c:	08003103 	stmdaeq	r0, {r0, r1, r8, ip, sp}
 8002c60:	08003103 	stmdaeq	r0, {r0, r1, r8, ip, sp}
 8002c64:	08003103 	stmdaeq	r0, {r0, r1, r8, ip, sp}
 8002c68:	08003103 	stmdaeq	r0, {r0, r1, r8, ip, sp}
 8002c6c:	08003103 	stmdaeq	r0, {r0, r1, r8, ip, sp}
 8002c70:	08002f29 	stmdaeq	r0, {r0, r3, r5, r8, r9, sl, fp, sp}
 8002c74:	08003103 	stmdaeq	r0, {r0, r1, r8, ip, sp}
 8002c78:	08003103 	stmdaeq	r0, {r0, r1, r8, ip, sp}
 8002c7c:	08003103 	stmdaeq	r0, {r0, r1, r8, ip, sp}
 8002c80:	08003103 	stmdaeq	r0, {r0, r1, r8, ip, sp}
 8002c84:	08003103 	stmdaeq	r0, {r0, r1, r8, ip, sp}
 8002c88:	08003103 	stmdaeq	r0, {r0, r1, r8, ip, sp}
 8002c8c:	08003103 	stmdaeq	r0, {r0, r1, r8, ip, sp}
 8002c90:	08003103 	stmdaeq	r0, {r0, r1, r8, ip, sp}
 8002c94:	08003103 	stmdaeq	r0, {r0, r1, r8, ip, sp}
 8002c98:	08003103 	stmdaeq	r0, {r0, r1, r8, ip, sp}
 8002c9c:	08003103 	stmdaeq	r0, {r0, r1, r8, ip, sp}
 8002ca0:	08003103 	stmdaeq	r0, {r0, r1, r8, ip, sp}
 8002ca4:	08003103 	stmdaeq	r0, {r0, r1, r8, ip, sp}
 8002ca8:	08003103 	stmdaeq	r0, {r0, r1, r8, ip, sp}
 8002cac:	08003103 	stmdaeq	r0, {r0, r1, r8, ip, sp}
 8002cb0:	08003103 	stmdaeq	r0, {r0, r1, r8, ip, sp}
 8002cb4:	08003103 	stmdaeq	r0, {r0, r1, r8, ip, sp}
 8002cb8:	08002d3d 	stmdaeq	r0, {r0, r2, r3, r4, r5, r8, sl, fp, sp}
 8002cbc:	08003103 	stmdaeq	r0, {r0, r1, r8, ip, sp}
 8002cc0:	08003103 	stmdaeq	r0, {r0, r1, r8, ip, sp}
 8002cc4:	08003103 	stmdaeq	r0, {r0, r1, r8, ip, sp}
 8002cc8:	08003103 	stmdaeq	r0, {r0, r1, r8, ip, sp}
 8002ccc:	08003103 	stmdaeq	r0, {r0, r1, r8, ip, sp}
 8002cd0:	08003103 	stmdaeq	r0, {r0, r1, r8, ip, sp}
 8002cd4:	08003103 	stmdaeq	r0, {r0, r1, r8, ip, sp}
 8002cd8:	08003103 	stmdaeq	r0, {r0, r1, r8, ip, sp}
 8002cdc:	08003103 	stmdaeq	r0, {r0, r1, r8, ip, sp}
 8002ce0:	08002d3d 	stmdaeq	r0, {r0, r2, r3, r4, r5, r8, sl, fp, sp}
 8002ce4:	08002f71 	stmdaeq	r0, {r0, r4, r5, r6, r8, r9, sl, fp, sp}
 8002ce8:	08002d3d 	stmdaeq	r0, {r0, r2, r3, r4, r5, r8, sl, fp, sp}
 8002cec:	08003103 	stmdaeq	r0, {r0, r1, r8, ip, sp}
 8002cf0:	08002f29 	stmdaeq	r0, {r0, r3, r5, r8, r9, sl, fp, sp}
 8002cf4:	08003103 	stmdaeq	r0, {r0, r1, r8, ip, sp}
 8002cf8:	08003103 	stmdaeq	r0, {r0, r1, r8, ip, sp}
 8002cfc:	08002d3d 	stmdaeq	r0, {r0, r2, r3, r4, r5, r8, sl, fp, sp}
 8002d00:	08003103 	stmdaeq	r0, {r0, r1, r8, ip, sp}
 8002d04:	08003103 	stmdaeq	r0, {r0, r1, r8, ip, sp}
 8002d08:	08003103 	stmdaeq	r0, {r0, r1, r8, ip, sp}
 8002d0c:	08003103 	stmdaeq	r0, {r0, r1, r8, ip, sp}
 8002d10:	08003103 	stmdaeq	r0, {r0, r1, r8, ip, sp}
 8002d14:	08002d3d 	stmdaeq	r0, {r0, r2, r3, r4, r5, r8, sl, fp, sp}
 8002d18:	080030a9 	stmdaeq	r0, {r0, r3, r5, r7, ip, sp}
 8002d1c:	08003103 	stmdaeq	r0, {r0, r1, r8, ip, sp}
 8002d20:	08003103 	stmdaeq	r0, {r0, r1, r8, ip, sp}
 8002d24:	08002fe5 	stmdaeq	r0, {r0, r2, r5, r6, r7, r8, r9, sl, fp, sp}
 8002d28:	08003103 	stmdaeq	r0, {r0, r1, r8, ip, sp}
 8002d2c:	08002d3d 	stmdaeq	r0, {r0, r2, r3, r4, r5, r8, sl, fp, sp}
 8002d30:	08003103 	stmdaeq	r0, {r0, r1, r8, ip, sp}
 8002d34:	08003103 	stmdaeq	r0, {r0, r1, r8, ip, sp}
 8002d38:	08002d3d 	stmdaeq	r0, {r0, r2, r3, r4, r5, r8, sl, fp, sp}
      case 'X' :
      case 'o' :
      case 'b' : {
        // set the base
        unsigned int base;
        if (*format == 'x' || *format == 'X') {
 8002d3c:	683b      	ldr	r3, [r7, #0]
 8002d3e:	781b      	ldrb	r3, [r3, #0]
 8002d40:	2b78      	cmp	r3, #120	; 0x78
 8002d42:	d003      	beq.n	8002d4c <_vsnprintf+0x410>
 8002d44:	683b      	ldr	r3, [r7, #0]
 8002d46:	781b      	ldrb	r3, [r3, #0]
 8002d48:	2b58      	cmp	r3, #88	; 0x58
 8002d4a:	d102      	bne.n	8002d52 <_vsnprintf+0x416>
          base = 16U;
 8002d4c:	2310      	movs	r3, #16
 8002d4e:	633b      	str	r3, [r7, #48]	; 0x30
 8002d50:	e013      	b.n	8002d7a <_vsnprintf+0x43e>
        }
        else if (*format == 'o') {
 8002d52:	683b      	ldr	r3, [r7, #0]
 8002d54:	781b      	ldrb	r3, [r3, #0]
 8002d56:	2b6f      	cmp	r3, #111	; 0x6f
 8002d58:	d102      	bne.n	8002d60 <_vsnprintf+0x424>
          base =  8U;
 8002d5a:	2308      	movs	r3, #8
 8002d5c:	633b      	str	r3, [r7, #48]	; 0x30
 8002d5e:	e00c      	b.n	8002d7a <_vsnprintf+0x43e>
        }
        else if (*format == 'b') {
 8002d60:	683b      	ldr	r3, [r7, #0]
 8002d62:	781b      	ldrb	r3, [r3, #0]
 8002d64:	2b62      	cmp	r3, #98	; 0x62
 8002d66:	d102      	bne.n	8002d6e <_vsnprintf+0x432>
          base =  2U;
 8002d68:	2302      	movs	r3, #2
 8002d6a:	633b      	str	r3, [r7, #48]	; 0x30
 8002d6c:	e005      	b.n	8002d7a <_vsnprintf+0x43e>
        }
        else {
          base = 10U;
 8002d6e:	230a      	movs	r3, #10
 8002d70:	633b      	str	r3, [r7, #48]	; 0x30
          flags &= ~FLAGS_HASH;   // no hash for dec format
 8002d72:	6c7b      	ldr	r3, [r7, #68]	; 0x44
 8002d74:	f023 0310 	bic.w	r3, r3, #16
 8002d78:	647b      	str	r3, [r7, #68]	; 0x44
        }
        // uppercase
        if (*format == 'X') {
 8002d7a:	683b      	ldr	r3, [r7, #0]
 8002d7c:	781b      	ldrb	r3, [r3, #0]
 8002d7e:	2b58      	cmp	r3, #88	; 0x58
 8002d80:	d103      	bne.n	8002d8a <_vsnprintf+0x44e>
          flags |= FLAGS_UPPERCASE;
 8002d82:	6c7b      	ldr	r3, [r7, #68]	; 0x44
 8002d84:	f043 0320 	orr.w	r3, r3, #32
 8002d88:	647b      	str	r3, [r7, #68]	; 0x44
        }

        // no plus or space flag for u, x, X, o, b
        if ((*format != 'i') && (*format != 'd')) {
 8002d8a:	683b      	ldr	r3, [r7, #0]
 8002d8c:	781b      	ldrb	r3, [r3, #0]
 8002d8e:	2b69      	cmp	r3, #105	; 0x69
 8002d90:	d007      	beq.n	8002da2 <_vsnprintf+0x466>
 8002d92:	683b      	ldr	r3, [r7, #0]
 8002d94:	781b      	ldrb	r3, [r3, #0]
 8002d96:	2b64      	cmp	r3, #100	; 0x64
 8002d98:	d003      	beq.n	8002da2 <_vsnprintf+0x466>
          flags &= ~(FLAGS_PLUS | FLAGS_SPACE);
 8002d9a:	6c7b      	ldr	r3, [r7, #68]	; 0x44
 8002d9c:	f023 030c 	bic.w	r3, r3, #12
 8002da0:	647b      	str	r3, [r7, #68]	; 0x44
        }

        // ignore '0' flag when precision is given
        if (flags & FLAGS_PRECISION) {
 8002da2:	6c7b      	ldr	r3, [r7, #68]	; 0x44
 8002da4:	f403 6380 	and.w	r3, r3, #1024	; 0x400
 8002da8:	2b00      	cmp	r3, #0
 8002daa:	d003      	beq.n	8002db4 <_vsnprintf+0x478>
          flags &= ~FLAGS_ZEROPAD;
 8002dac:	6c7b      	ldr	r3, [r7, #68]	; 0x44
 8002dae:	f023 0301 	bic.w	r3, r3, #1
 8002db2:	647b      	str	r3, [r7, #68]	; 0x44
        }

        // convert the integer
        if ((*format == 'i') || (*format == 'd')) {
 8002db4:	683b      	ldr	r3, [r7, #0]
 8002db6:	781b      	ldrb	r3, [r3, #0]
 8002db8:	2b69      	cmp	r3, #105	; 0x69
 8002dba:	d003      	beq.n	8002dc4 <_vsnprintf+0x488>
 8002dbc:	683b      	ldr	r3, [r7, #0]
 8002dbe:	781b      	ldrb	r3, [r3, #0]
 8002dc0:	2b64      	cmp	r3, #100	; 0x64
 8002dc2:	d15e      	bne.n	8002e82 <_vsnprintf+0x546>
          // signed
          if (flags & FLAGS_LONG_LONG) {
 8002dc4:	6c7b      	ldr	r3, [r7, #68]	; 0x44
 8002dc6:	f403 7300 	and.w	r3, r3, #512	; 0x200
 8002dca:	2b00      	cmp	r3, #0
 8002dcc:	f040 80a8 	bne.w	8002f20 <_vsnprintf+0x5e4>
#if defined(PRINTF_SUPPORT_LONG_LONG)
            const long long value = va_arg(va, long long);
            idx = _ntoa_long_long(out, buffer, idx, maxlen, (unsigned long long)(value > 0 ? value : 0 - value), value < 0, base, precision, width, flags);
#endif
          }
          else if (flags & FLAGS_LONG) {
 8002dd0:	6c7b      	ldr	r3, [r7, #68]	; 0x44
 8002dd2:	f403 7380 	and.w	r3, r3, #256	; 0x100
 8002dd6:	2b00      	cmp	r3, #0
 8002dd8:	d01e      	beq.n	8002e18 <_vsnprintf+0x4dc>
            const long value = va_arg(va, long);
 8002dda:	6dbb      	ldr	r3, [r7, #88]	; 0x58
 8002ddc:	1d1a      	adds	r2, r3, #4
 8002dde:	65ba      	str	r2, [r7, #88]	; 0x58
 8002de0:	681b      	ldr	r3, [r3, #0]
 8002de2:	617b      	str	r3, [r7, #20]
            idx = _ntoa_long(out, buffer, idx, maxlen, (unsigned long)(value > 0 ? value : 0 - value), value < 0, base, precision, width, flags);
 8002de4:	697b      	ldr	r3, [r7, #20]
 8002de6:	2b00      	cmp	r3, #0
 8002de8:	bfb8      	it	lt
 8002dea:	425b      	neglt	r3, r3
 8002dec:	4619      	mov	r1, r3
 8002dee:	697b      	ldr	r3, [r7, #20]
 8002df0:	0fdb      	lsrs	r3, r3, #31
 8002df2:	b2db      	uxtb	r3, r3
 8002df4:	6c7a      	ldr	r2, [r7, #68]	; 0x44
 8002df6:	9205      	str	r2, [sp, #20]
 8002df8:	6c3a      	ldr	r2, [r7, #64]	; 0x40
 8002dfa:	9204      	str	r2, [sp, #16]
 8002dfc:	6bfa      	ldr	r2, [r7, #60]	; 0x3c
 8002dfe:	9203      	str	r2, [sp, #12]
 8002e00:	6b3a      	ldr	r2, [r7, #48]	; 0x30
 8002e02:	9202      	str	r2, [sp, #8]
 8002e04:	9301      	str	r3, [sp, #4]
 8002e06:	9100      	str	r1, [sp, #0]
 8002e08:	687b      	ldr	r3, [r7, #4]
 8002e0a:	6b7a      	ldr	r2, [r7, #52]	; 0x34
 8002e0c:	68b9      	ldr	r1, [r7, #8]
 8002e0e:	68f8      	ldr	r0, [r7, #12]
 8002e10:	f7ff fad0 	bl	80023b4 <_ntoa_long>
 8002e14:	6378      	str	r0, [r7, #52]	; 0x34
          if (flags & FLAGS_LONG_LONG) {
 8002e16:	e083      	b.n	8002f20 <_vsnprintf+0x5e4>
          }
          else {
            const int value = (flags & FLAGS_CHAR) ? (char)va_arg(va, int) : (flags & FLAGS_SHORT) ? (short int)va_arg(va, int) : va_arg(va, int);
 8002e18:	6c7b      	ldr	r3, [r7, #68]	; 0x44
 8002e1a:	f003 0340 	and.w	r3, r3, #64	; 0x40
 8002e1e:	2b00      	cmp	r3, #0
 8002e20:	d005      	beq.n	8002e2e <_vsnprintf+0x4f2>
 8002e22:	6dbb      	ldr	r3, [r7, #88]	; 0x58
 8002e24:	1d1a      	adds	r2, r3, #4
 8002e26:	65ba      	str	r2, [r7, #88]	; 0x58
 8002e28:	681b      	ldr	r3, [r3, #0]
 8002e2a:	b2db      	uxtb	r3, r3
 8002e2c:	e00e      	b.n	8002e4c <_vsnprintf+0x510>
 8002e2e:	6c7b      	ldr	r3, [r7, #68]	; 0x44
 8002e30:	f003 0380 	and.w	r3, r3, #128	; 0x80
 8002e34:	2b00      	cmp	r3, #0
 8002e36:	d005      	beq.n	8002e44 <_vsnprintf+0x508>
 8002e38:	6dbb      	ldr	r3, [r7, #88]	; 0x58
 8002e3a:	1d1a      	adds	r2, r3, #4
 8002e3c:	65ba      	str	r2, [r7, #88]	; 0x58
 8002e3e:	681b      	ldr	r3, [r3, #0]
 8002e40:	b21b      	sxth	r3, r3
 8002e42:	e003      	b.n	8002e4c <_vsnprintf+0x510>
 8002e44:	6dbb      	ldr	r3, [r7, #88]	; 0x58
 8002e46:	1d1a      	adds	r2, r3, #4
 8002e48:	65ba      	str	r2, [r7, #88]	; 0x58
 8002e4a:	681b      	ldr	r3, [r3, #0]
 8002e4c:	613b      	str	r3, [r7, #16]
            idx = _ntoa_long(out, buffer, idx, maxlen, (unsigned int)(value > 0 ? value : 0 - value), value < 0, base, precision, width, flags);
 8002e4e:	693b      	ldr	r3, [r7, #16]
 8002e50:	2b00      	cmp	r3, #0
 8002e52:	bfb8      	it	lt
 8002e54:	425b      	neglt	r3, r3
 8002e56:	4619      	mov	r1, r3
 8002e58:	693b      	ldr	r3, [r7, #16]
 8002e5a:	0fdb      	lsrs	r3, r3, #31
 8002e5c:	b2db      	uxtb	r3, r3
 8002e5e:	6c7a      	ldr	r2, [r7, #68]	; 0x44
 8002e60:	9205      	str	r2, [sp, #20]
 8002e62:	6c3a      	ldr	r2, [r7, #64]	; 0x40
 8002e64:	9204      	str	r2, [sp, #16]
 8002e66:	6bfa      	ldr	r2, [r7, #60]	; 0x3c
 8002e68:	9203      	str	r2, [sp, #12]
 8002e6a:	6b3a      	ldr	r2, [r7, #48]	; 0x30
 8002e6c:	9202      	str	r2, [sp, #8]
 8002e6e:	9301      	str	r3, [sp, #4]
 8002e70:	9100      	str	r1, [sp, #0]
 8002e72:	687b      	ldr	r3, [r7, #4]
 8002e74:	6b7a      	ldr	r2, [r7, #52]	; 0x34
 8002e76:	68b9      	ldr	r1, [r7, #8]
 8002e78:	68f8      	ldr	r0, [r7, #12]
 8002e7a:	f7ff fa9b 	bl	80023b4 <_ntoa_long>
 8002e7e:	6378      	str	r0, [r7, #52]	; 0x34
          if (flags & FLAGS_LONG_LONG) {
 8002e80:	e04e      	b.n	8002f20 <_vsnprintf+0x5e4>
          }
        }
        else {
          // unsigned
          if (flags & FLAGS_LONG_LONG) {
 8002e82:	6c7b      	ldr	r3, [r7, #68]	; 0x44
 8002e84:	f403 7300 	and.w	r3, r3, #512	; 0x200
 8002e88:	2b00      	cmp	r3, #0
 8002e8a:	d149      	bne.n	8002f20 <_vsnprintf+0x5e4>
#if defined(PRINTF_SUPPORT_LONG_LONG)
            idx = _ntoa_long_long(out, buffer, idx, maxlen, va_arg(va, unsigned long long), false, base, precision, width, flags);
#endif
          }
          else if (flags & FLAGS_LONG) {
 8002e8c:	6c7b      	ldr	r3, [r7, #68]	; 0x44
 8002e8e:	f403 7380 	and.w	r3, r3, #256	; 0x100
 8002e92:	2b00      	cmp	r3, #0
 8002e94:	d016      	beq.n	8002ec4 <_vsnprintf+0x588>
            idx = _ntoa_long(out, buffer, idx, maxlen, va_arg(va, unsigned long), false, base, precision, width, flags);
 8002e96:	6dbb      	ldr	r3, [r7, #88]	; 0x58
 8002e98:	1d1a      	adds	r2, r3, #4
 8002e9a:	65ba      	str	r2, [r7, #88]	; 0x58
 8002e9c:	681b      	ldr	r3, [r3, #0]
 8002e9e:	6c7a      	ldr	r2, [r7, #68]	; 0x44
 8002ea0:	9205      	str	r2, [sp, #20]
 8002ea2:	6c3a      	ldr	r2, [r7, #64]	; 0x40
 8002ea4:	9204      	str	r2, [sp, #16]
 8002ea6:	6bfa      	ldr	r2, [r7, #60]	; 0x3c
 8002ea8:	9203      	str	r2, [sp, #12]
 8002eaa:	6b3a      	ldr	r2, [r7, #48]	; 0x30
 8002eac:	9202      	str	r2, [sp, #8]
 8002eae:	2200      	movs	r2, #0
 8002eb0:	9201      	str	r2, [sp, #4]
 8002eb2:	9300      	str	r3, [sp, #0]
 8002eb4:	687b      	ldr	r3, [r7, #4]
 8002eb6:	6b7a      	ldr	r2, [r7, #52]	; 0x34
 8002eb8:	68b9      	ldr	r1, [r7, #8]
 8002eba:	68f8      	ldr	r0, [r7, #12]
 8002ebc:	f7ff fa7a 	bl	80023b4 <_ntoa_long>
 8002ec0:	6378      	str	r0, [r7, #52]	; 0x34
 8002ec2:	e02d      	b.n	8002f20 <_vsnprintf+0x5e4>
          }
          else {
            const unsigned int value = (flags & FLAGS_CHAR) ? (unsigned char)va_arg(va, unsigned int) : (flags & FLAGS_SHORT) ? (unsigned short int)va_arg(va, unsigned int) : va_arg(va, unsigned int);
 8002ec4:	6c7b      	ldr	r3, [r7, #68]	; 0x44
 8002ec6:	f003 0340 	and.w	r3, r3, #64	; 0x40
 8002eca:	2b00      	cmp	r3, #0
 8002ecc:	d005      	beq.n	8002eda <_vsnprintf+0x59e>
 8002ece:	6dbb      	ldr	r3, [r7, #88]	; 0x58
 8002ed0:	1d1a      	adds	r2, r3, #4
 8002ed2:	65ba      	str	r2, [r7, #88]	; 0x58
 8002ed4:	681b      	ldr	r3, [r3, #0]
 8002ed6:	b2db      	uxtb	r3, r3
 8002ed8:	e00e      	b.n	8002ef8 <_vsnprintf+0x5bc>
 8002eda:	6c7b      	ldr	r3, [r7, #68]	; 0x44
 8002edc:	f003 0380 	and.w	r3, r3, #128	; 0x80
 8002ee0:	2b00      	cmp	r3, #0
 8002ee2:	d005      	beq.n	8002ef0 <_vsnprintf+0x5b4>
 8002ee4:	6dbb      	ldr	r3, [r7, #88]	; 0x58
 8002ee6:	1d1a      	adds	r2, r3, #4
 8002ee8:	65ba      	str	r2, [r7, #88]	; 0x58
 8002eea:	681b      	ldr	r3, [r3, #0]
 8002eec:	b29b      	uxth	r3, r3
 8002eee:	e003      	b.n	8002ef8 <_vsnprintf+0x5bc>
 8002ef0:	6dbb      	ldr	r3, [r7, #88]	; 0x58
 8002ef2:	1d1a      	adds	r2, r3, #4
 8002ef4:	65ba      	str	r2, [r7, #88]	; 0x58
 8002ef6:	681b      	ldr	r3, [r3, #0]
 8002ef8:	61bb      	str	r3, [r7, #24]
            idx = _ntoa_long(out, buffer, idx, maxlen, value, false, base, precision, width, flags);
 8002efa:	6c7b      	ldr	r3, [r7, #68]	; 0x44
 8002efc:	9305      	str	r3, [sp, #20]
 8002efe:	6c3b      	ldr	r3, [r7, #64]	; 0x40
 8002f00:	9304      	str	r3, [sp, #16]
 8002f02:	6bfb      	ldr	r3, [r7, #60]	; 0x3c
 8002f04:	9303      	str	r3, [sp, #12]
 8002f06:	6b3b      	ldr	r3, [r7, #48]	; 0x30
 8002f08:	9302      	str	r3, [sp, #8]
 8002f0a:	2300      	movs	r3, #0
 8002f0c:	9301      	str	r3, [sp, #4]
 8002f0e:	69bb      	ldr	r3, [r7, #24]
 8002f10:	9300      	str	r3, [sp, #0]
 8002f12:	687b      	ldr	r3, [r7, #4]
 8002f14:	6b7a      	ldr	r2, [r7, #52]	; 0x34
 8002f16:	68b9      	ldr	r1, [r7, #8]
 8002f18:	68f8      	ldr	r0, [r7, #12]
 8002f1a:	f7ff fa4b 	bl	80023b4 <_ntoa_long>
 8002f1e:	6378      	str	r0, [r7, #52]	; 0x34
          }
        }
        format++;
 8002f20:	683b      	ldr	r3, [r7, #0]
 8002f22:	3301      	adds	r3, #1
 8002f24:	603b      	str	r3, [r7, #0]
        break;
 8002f26:	e0f9      	b.n	800311c <_vsnprintf+0x7e0>
      }
#if defined(PRINTF_SUPPORT_FLOAT)
      case 'f' :
      case 'F' :
        if (*format == 'F') flags |= FLAGS_UPPERCASE;
 8002f28:	683b      	ldr	r3, [r7, #0]
 8002f2a:	781b      	ldrb	r3, [r3, #0]
 8002f2c:	2b46      	cmp	r3, #70	; 0x46
 8002f2e:	d103      	bne.n	8002f38 <_vsnprintf+0x5fc>
 8002f30:	6c7b      	ldr	r3, [r7, #68]	; 0x44
 8002f32:	f043 0320 	orr.w	r3, r3, #32
 8002f36:	647b      	str	r3, [r7, #68]	; 0x44
        idx = _ftoa(out, buffer, idx, maxlen, va_arg(va, double), precision, width, flags);
 8002f38:	6dbb      	ldr	r3, [r7, #88]	; 0x58
 8002f3a:	3307      	adds	r3, #7
 8002f3c:	f023 0307 	bic.w	r3, r3, #7
 8002f40:	f103 0208 	add.w	r2, r3, #8
 8002f44:	65ba      	str	r2, [r7, #88]	; 0x58
 8002f46:	e9d3 3400 	ldrd	r3, r4, [r3]
 8002f4a:	6c7a      	ldr	r2, [r7, #68]	; 0x44
 8002f4c:	9204      	str	r2, [sp, #16]
 8002f4e:	6c3a      	ldr	r2, [r7, #64]	; 0x40
 8002f50:	9203      	str	r2, [sp, #12]
 8002f52:	6bfa      	ldr	r2, [r7, #60]	; 0x3c
 8002f54:	9202      	str	r2, [sp, #8]
 8002f56:	e9cd 3400 	strd	r3, r4, [sp]
 8002f5a:	687b      	ldr	r3, [r7, #4]
 8002f5c:	6b7a      	ldr	r2, [r7, #52]	; 0x34
 8002f5e:	68b9      	ldr	r1, [r7, #8]
 8002f60:	68f8      	ldr	r0, [r7, #12]
 8002f62:	f7ff fa91 	bl	8002488 <_ftoa>
 8002f66:	6378      	str	r0, [r7, #52]	; 0x34
        format++;
 8002f68:	683b      	ldr	r3, [r7, #0]
 8002f6a:	3301      	adds	r3, #1
 8002f6c:	603b      	str	r3, [r7, #0]
        break;
 8002f6e:	e0d5      	b.n	800311c <_vsnprintf+0x7e0>
        format++;
        break;
#endif  // PRINTF_SUPPORT_EXPONENTIAL
#endif  // PRINTF_SUPPORT_FLOAT
      case 'c' : {
        unsigned int l = 1U;
 8002f70:	2301      	movs	r3, #1
 8002f72:	62fb      	str	r3, [r7, #44]	; 0x2c
        // pre padding
        if (!(flags & FLAGS_LEFT)) {
 8002f74:	6c7b      	ldr	r3, [r7, #68]	; 0x44
 8002f76:	f003 0302 	and.w	r3, r3, #2
 8002f7a:	2b00      	cmp	r3, #0
 8002f7c:	d10e      	bne.n	8002f9c <_vsnprintf+0x660>
          while (l++ < width) {
 8002f7e:	e007      	b.n	8002f90 <_vsnprintf+0x654>
            out(' ', buffer, idx++, maxlen);
 8002f80:	6b7a      	ldr	r2, [r7, #52]	; 0x34
 8002f82:	1c53      	adds	r3, r2, #1
 8002f84:	637b      	str	r3, [r7, #52]	; 0x34
 8002f86:	68fc      	ldr	r4, [r7, #12]
 8002f88:	687b      	ldr	r3, [r7, #4]
 8002f8a:	68b9      	ldr	r1, [r7, #8]
 8002f8c:	2020      	movs	r0, #32
 8002f8e:	47a0      	blx	r4
          while (l++ < width) {
 8002f90:	6afb      	ldr	r3, [r7, #44]	; 0x2c
 8002f92:	1c5a      	adds	r2, r3, #1
 8002f94:	62fa      	str	r2, [r7, #44]	; 0x2c
 8002f96:	6c3a      	ldr	r2, [r7, #64]	; 0x40
 8002f98:	429a      	cmp	r2, r3
 8002f9a:	d8f1      	bhi.n	8002f80 <_vsnprintf+0x644>
          }
        }
        // char output
        out((char)va_arg(va, int), buffer, idx++, maxlen);
 8002f9c:	6dbb      	ldr	r3, [r7, #88]	; 0x58
 8002f9e:	1d1a      	adds	r2, r3, #4
 8002fa0:	65ba      	str	r2, [r7, #88]	; 0x58
 8002fa2:	681b      	ldr	r3, [r3, #0]
 8002fa4:	b2d8      	uxtb	r0, r3
 8002fa6:	6b7a      	ldr	r2, [r7, #52]	; 0x34
 8002fa8:	1c53      	adds	r3, r2, #1
 8002faa:	637b      	str	r3, [r7, #52]	; 0x34
 8002fac:	68fc      	ldr	r4, [r7, #12]
 8002fae:	687b      	ldr	r3, [r7, #4]
 8002fb0:	68b9      	ldr	r1, [r7, #8]
 8002fb2:	47a0      	blx	r4
        // post padding
        if (flags & FLAGS_LEFT) {
 8002fb4:	6c7b      	ldr	r3, [r7, #68]	; 0x44
 8002fb6:	f003 0302 	and.w	r3, r3, #2
 8002fba:	2b00      	cmp	r3, #0
 8002fbc:	d00e      	beq.n	8002fdc <_vsnprintf+0x6a0>
          while (l++ < width) {
 8002fbe:	e007      	b.n	8002fd0 <_vsnprintf+0x694>
            out(' ', buffer, idx++, maxlen);
 8002fc0:	6b7a      	ldr	r2, [r7, #52]	; 0x34
 8002fc2:	1c53      	adds	r3, r2, #1
 8002fc4:	637b      	str	r3, [r7, #52]	; 0x34
 8002fc6:	68fc      	ldr	r4, [r7, #12]
 8002fc8:	687b      	ldr	r3, [r7, #4]
 8002fca:	68b9      	ldr	r1, [r7, #8]
 8002fcc:	2020      	movs	r0, #32
 8002fce:	47a0      	blx	r4
          while (l++ < width) {
 8002fd0:	6afb      	ldr	r3, [r7, #44]	; 0x2c
 8002fd2:	1c5a      	adds	r2, r3, #1
 8002fd4:	62fa      	str	r2, [r7, #44]	; 0x2c
 8002fd6:	6c3a      	ldr	r2, [r7, #64]	; 0x40
 8002fd8:	429a      	cmp	r2, r3
 8002fda:	d8f1      	bhi.n	8002fc0 <_vsnprintf+0x684>
          }
        }
        format++;
