
Memory Configuration

Name             Origin             Length             Attributes
*default*        0x00000000         0xffffffff

Linker script and memory map

LOAD C:\Users\suse1\AppData\Local\Temp\ccryWWPI.o
LOAD C:\Users\suse1\AppData\Local\Temp\ccJy2rF5.o
LOAD C:\Users\suse1\AppData\Local\Temp\ccQ3aPl1.o
LOAD C:\Users\suse1\AppData\Local\Temp\ccl5Pza6.o
LOAD C:\Users\suse1\AppData\Local\Temp\ccByZQon.o
LOAD C:\Users\suse1\AppData\Local\Temp\ccFTRjpQ.o
LOAD C:\Users\suse1\AppData\Local\Temp\ccnRbmhA.o
                0x00000000                . = 0x0
                0x00000000                _stext = .

.text           0x00000000     0x19ac
 *(.text._start)
 .text._start   0x00000000       0x10 C:\Users\suse1\AppData\Local\Temp\ccryWWPI.o
                0x00000000                _start
 *(.isr_vectors)
 .isr_vectors   0x00000010       0x40 C:\Users\suse1\AppData\Local\Temp\ccryWWPI.o
 *(.text)
 .text          0x00000050        0x0 C:\Users\suse1\AppData\Local\Temp\ccryWWPI.o
 .text          0x00000050       0xf4 C:\Users\suse1\AppData\Local\Temp\ccJy2rF5.o
                0x00000050                main
                0x0000006c                nmi_handler
                0x00000084                hard_fault_handler
                0x0000009c                mem_manage_handler
                0x000000b4                bus_fault_handler
                0x000000cc                usage_fault_handler
                0x000000e4                svc_handler
                0x000000fc                debug_mon_handler
                0x00000114                pend_sv_handler
                0x0000012c                sys_tick_handler
 .text          0x00000144       0xe8 C:\Users\suse1\AppData\Local\Temp\ccQ3aPl1.o
                0x000001d4                hal_mpu_test
 .text          0x0000022c      0x3b4 C:\Users\suse1\AppData\Local\Temp\ccl5Pza6.o
                0x0000025c                __putchar
                0x0000027c                __getchar
                0x0000029c                lite_getchar
                0x000002c4                lite_putchar
                0x000002e4                _putchar
                0x00000304                __putstr
                0x00000330                __strlen
                0x0000035c                lite_printf
                0x000005a8                __io_putchar
                0x000005c8                __io_getchar
 .text          0x000005e0      0x254 C:\Users\suse1\AppData\Local\Temp\ccByZQon.o
                0x000005e0                test_div
                0x00000614                fault_test_by_unalign
                0x0000067c                fault_test_by_div0
                0x00000724                backtrace_test
 .text          0x00000834      0xd74 C:\Users\suse1\AppData\Local\Temp\ccFTRjpQ.o
                0x00001466                printf_
                0x0000149c                sprintf_
                0x000014d4                snprintf_
                0x0000150c                vprintf_
                0x00001538                vsnprintf_
                0x00001564                fctprintf
 .text          0x000015a8      0x404 C:\Users\suse1\AppData\Local\Temp\ccnRbmhA.o
                0x000015a8                shell_get_line
                0x0000164c                shell_get_args
                0x000016b0                shell_help_func
                0x000016f4                strtok_r
                0x000017a8                strtok
                0x000017cc                memcpy
                0x00001818                memset
                0x00001856                strcmp
                0x000018b0                shell_main
                0x000019a0                shell_start
                0x000019ac                __shell_command_start = .

.glue_7         0x000019ac        0x0
 .glue_7        0x000019ac        0x0 linker stubs

.glue_7t        0x000019ac        0x0
 .glue_7t       0x000019ac        0x0 linker stubs

.vfp11_veneer   0x000019ac        0x0
 .vfp11_veneer  0x000019ac        0x0 linker stubs

.v4_bx          0x000019ac        0x0
 .v4_bx         0x000019ac        0x0 linker stubs

.text.default_handler
                0x000019ac        0x2
 .text.default_handler
                0x000019ac        0x2 C:\Users\suse1\AppData\Local\Temp\ccryWWPI.o

.rodata         0x000019b0      0x25a
 .rodata        0x000019b0       0xc1 C:\Users\suse1\AppData\Local\Temp\ccJy2rF5.o
 *fill*         0x00001a71        0x3 
 .rodata        0x00001a74       0x20 C:\Users\suse1\AppData\Local\Temp\ccQ3aPl1.o
 .rodata        0x00001a94        0x4 C:\Users\suse1\AppData\Local\Temp\ccl5Pza6.o
 .rodata        0x00001a98      0x113 C:\Users\suse1\AppData\Local\Temp\ccByZQon.o
 *fill*         0x00001bab        0x1 
 .rodata        0x00001bac       0x5e C:\Users\suse1\AppData\Local\Temp\ccnRbmhA.o

.iplt           0x00001c0c        0x0
 .iplt          0x00001c0c        0x0 C:\Users\suse1\AppData\Local\Temp\ccryWWPI.o

.rel.dyn        0x00001c0c        0x0
 .rel.iplt      0x00001c0c        0x0 C:\Users\suse1\AppData\Local\Temp\ccryWWPI.o

.shell_command  0x00001c0c        0xc
 *(.shell_command)
 .shell_command
                0x00001c0c        0xc C:\Users\suse1\AppData\Local\Temp\ccnRbmhA.o
                0x00001c0c                __shell_command_help
                0x00001c18                __shell_command_end = .
                0x00001c18                . = ALIGN (0x4)
                0x00001c18                _etext = .
                0x00001c18                _exit = .
                0x20000000                . = 0x20000000

.data           0x20000000        0x0
 *(.data)
 .data          0x20000000        0x0 C:\Users\suse1\AppData\Local\Temp\ccryWWPI.o
 .data          0x20000000        0x0 C:\Users\suse1\AppData\Local\Temp\ccJy2rF5.o
 .data          0x20000000        0x0 C:\Users\suse1\AppData\Local\Temp\ccQ3aPl1.o
 .data          0x20000000        0x0 C:\Users\suse1\AppData\Local\Temp\ccl5Pza6.o
 .data          0x20000000        0x0 C:\Users\suse1\AppData\Local\Temp\ccByZQon.o
 .data          0x20000000        0x0 C:\Users\suse1\AppData\Local\Temp\ccFTRjpQ.o
 .data          0x20000000        0x0 C:\Users\suse1\AppData\Local\Temp\ccnRbmhA.o
                0x20000000                __bss_start__ = .

.igot.plt       0x20000000        0x0
 .igot.plt      0x20000000        0x0 C:\Users\suse1\AppData\Local\Temp\ccryWWPI.o

.bss            0x20000000       0x20
 *(.bss)
 .bss           0x20000000        0x0 C:\Users\suse1\AppData\Local\Temp\ccryWWPI.o
 .bss           0x20000000        0x0 C:\Users\suse1\AppData\Local\Temp\ccJy2rF5.o
 .bss           0x20000000        0x0 C:\Users\suse1\AppData\Local\Temp\ccQ3aPl1.o
 .bss           0x20000000        0x0 C:\Users\suse1\AppData\Local\Temp\ccl5Pza6.o
 .bss           0x20000000       0x18 C:\Users\suse1\AppData\Local\Temp\ccByZQon.o
                0x20000000                code_start_addr
                0x20000004                code_end_addr
                0x20000008                code_size
                0x2000000c                stack_start_addr
                0x20000010                stack_end_addr
                0x20000014                stack_size
 .bss           0x20000018        0x0 C:\Users\suse1\AppData\Local\Temp\ccFTRjpQ.o
 .bss           0x20000018        0x8 C:\Users\suse1\AppData\Local\Temp\ccnRbmhA.o
                0x20000020                . = ALIGN (0x8)
                0x20000020                __bss_end__ = .
                0x20000020                _sstack = .
                0x20001020                . = (. + 0x1000)
                0x20001020                _estack = .
                0x20001020                . = ALIGN (0x8)
                0x20001020                _sheap = .
                0x20005020                . = (. + 0x4000)
                0x20005020                _eheap = .
                0x20005020                ensd = _eheap
OUTPUT(./build/test.elf elf32-littlearm)

.ARM.attributes
                0x00000000       0x2f
 .ARM.attributes
                0x00000000       0x21 C:\Users\suse1\AppData\Local\Temp\ccryWWPI.o
 .ARM.attributes
                0x00000021       0x33 C:\Users\suse1\AppData\Local\Temp\ccJy2rF5.o
 .ARM.attributes
                0x00000054       0x33 C:\Users\suse1\AppData\Local\Temp\ccQ3aPl1.o
 .ARM.attributes
                0x00000087       0x33 C:\Users\suse1\AppData\Local\Temp\ccl5Pza6.o
 .ARM.attributes
                0x000000ba       0x33 C:\Users\suse1\AppData\Local\Temp\ccByZQon.o
 .ARM.attributes
                0x000000ed       0x33 C:\Users\suse1\AppData\Local\Temp\ccFTRjpQ.o
 .ARM.attributes
                0x00000120       0x33 C:\Users\suse1\AppData\Local\Temp\ccnRbmhA.o

.comment        0x00000000       0x7e
 .comment       0x00000000       0x7e C:\Users\suse1\AppData\Local\Temp\ccJy2rF5.o
                                 0x7f (size before relaxing)
 .comment       0x0000007e       0x7f C:\Users\suse1\AppData\Local\Temp\ccQ3aPl1.o
 .comment       0x0000007e       0x7f C:\Users\suse1\AppData\Local\Temp\ccl5Pza6.o
 .comment       0x0000007e       0x7f C:\Users\suse1\AppData\Local\Temp\ccByZQon.o
 .comment       0x0000007e       0x7f C:\Users\suse1\AppData\Local\Temp\ccFTRjpQ.o
 .comment       0x0000007e       0x7f C:\Users\suse1\AppData\Local\Temp\ccnRbmhA.o

.debug_line     0x00000000      0xd03
 .debug_line    0x00000000       0x4f C:\Users\suse1\AppData\Local\Temp\ccryWWPI.o
 .debug_line    0x0000004f      0x13c C:\Users\suse1\AppData\Local\Temp\ccJy2rF5.o
 .debug_line    0x0000018b      0x154 C:\Users\suse1\AppData\Local\Temp\ccQ3aPl1.o
 .debug_line    0x000002df      0x16b C:\Users\suse1\AppData\Local\Temp\ccl5Pza6.o
 .debug_line    0x0000044a      0x21b C:\Users\suse1\AppData\Local\Temp\ccByZQon.o
 .debug_line    0x00000665      0x36b C:\Users\suse1\AppData\Local\Temp\ccFTRjpQ.o
 .debug_line    0x000009d0      0x333 C:\Users\suse1\AppData\Local\Temp\ccnRbmhA.o

.debug_info     0x00000000     0x2d71
 .debug_info    0x00000000       0x22 C:\Users\suse1\AppData\Local\Temp\ccryWWPI.o
 .debug_info    0x00000022      0x2c1 C:\Users\suse1\AppData\Local\Temp\ccJy2rF5.o
 .debug_info    0x000002e3      0x437 C:\Users\suse1\AppData\Local\Temp\ccQ3aPl1.o
 .debug_info    0x0000071a      0x303 C:\Users\suse1\AppData\Local\Temp\ccl5Pza6.o
 .debug_info    0x00000a1d      0xd1b C:\Users\suse1\AppData\Local\Temp\ccByZQon.o
 .debug_info    0x00001738      0x95f C:\Users\suse1\AppData\Local\Temp\ccFTRjpQ.o
 .debug_info    0x00002097      0xcda C:\Users\suse1\AppData\Local\Temp\ccnRbmhA.o

.debug_abbrev   0x00000000      0xa3d
 .debug_abbrev  0x00000000       0x12 C:\Users\suse1\AppData\Local\Temp\ccryWWPI.o
 .debug_abbrev  0x00000012       0xa0 C:\Users\suse1\AppData\Local\Temp\ccJy2rF5.o
 .debug_abbrev  0x000000b2      0x14b C:\Users\suse1\AppData\Local\Temp\ccQ3aPl1.o
 .debug_abbrev  0x000001fd      0x11c C:\Users\suse1\AppData\Local\Temp\ccl5Pza6.o
 .debug_abbrev  0x00000319      0x2ac C:\Users\suse1\AppData\Local\Temp\ccByZQon.o
 .debug_abbrev  0x000005c5      0x1e9 C:\Users\suse1\AppData\Local\Temp\ccFTRjpQ.o
 .debug_abbrev  0x000007ae      0x28f C:\Users\suse1\AppData\Local\Temp\ccnRbmhA.o

.debug_aranges  0x00000000       0xe8
 .debug_aranges
                0x00000000       0x28 C:\Users\suse1\AppData\Local\Temp\ccryWWPI.o
 .debug_aranges
                0x00000028       0x20 C:\Users\suse1\AppData\Local\Temp\ccJy2rF5.o
 .debug_aranges
                0x00000048       0x20 C:\Users\suse1\AppData\Local\Temp\ccQ3aPl1.o
 .debug_aranges
                0x00000068       0x20 C:\Users\suse1\AppData\Local\Temp\ccl5Pza6.o
 .debug_aranges
                0x00000088       0x20 C:\Users\suse1\AppData\Local\Temp\ccByZQon.o
 .debug_aranges
                0x000000a8       0x20 C:\Users\suse1\AppData\Local\Temp\ccFTRjpQ.o
 .debug_aranges
                0x000000c8       0x20 C:\Users\suse1\AppData\Local\Temp\ccnRbmhA.o

.debug_str      0x00000000      0xbdb
 .debug_str     0x00000000       0x4e C:\Users\suse1\AppData\Local\Temp\ccryWWPI.o
 .debug_str     0x0000004e      0x1fc C:\Users\suse1\AppData\Local\Temp\ccJy2rF5.o
                                0x27d (size before relaxing)
 .debug_str     0x0000024a      0x150 C:\Users\suse1\AppData\Local\Temp\ccQ3aPl1.o
                                0x2f4 (size before relaxing)
 .debug_str     0x0000039a       0xc5 C:\Users\suse1\AppData\Local\Temp\ccl5Pza6.o
                                0x268 (size before relaxing)
 .debug_str     0x0000045f      0x4ce C:\Users\suse1\AppData\Local\Temp\ccByZQon.o
                                0x715 (size before relaxing)
 .debug_str     0x0000092d      0x129 C:\Users\suse1\AppData\Local\Temp\ccFTRjpQ.o
                                0x320 (size before relaxing)
 .debug_str     0x00000a56      0x185 C:\Users\suse1\AppData\Local\Temp\ccnRbmhA.o
                                0x75a (size before relaxing)

.debug_ranges   0x00000000       0x38
 .debug_ranges  0x00000000       0x20 C:\Users\suse1\AppData\Local\Temp\ccryWWPI.o
 .debug_ranges  0x00000020       0x18 C:\Users\suse1\AppData\Local\Temp\ccnRbmhA.o

.debug_frame    0x00000000      0x8e4
 .debug_frame   0x00000000      0x128 C:\Users\suse1\AppData\Local\Temp\ccJy2rF5.o
 .debug_frame   0x00000128       0xa8 C:\Users\suse1\AppData\Local\Temp\ccQ3aPl1.o
 .debug_frame   0x000001d0      0x1dc C:\Users\suse1\AppData\Local\Temp\ccl5Pza6.o
 .debug_frame   0x000003ac       0xcc C:\Users\suse1\AppData\Local\Temp\ccByZQon.o
 .debug_frame   0x00000478      0x2e8 C:\Users\suse1\AppData\Local\Temp\ccFTRjpQ.o
 .debug_frame   0x00000760      0x184 C:\Users\suse1\AppData\Local\Temp\ccnRbmhA.o
