
Allocating common symbols
Common symbol       size              file

next_task           0x4               C:\Users\suse1\AppData\Local\Temp\ccr4KEXz.o
stack               0x800             C:\Users\suse1\AppData\Local\Temp\ccr4KEXz.o
task1               0x4               C:\Users\suse1\AppData\Local\Temp\ccr4KEXz.o
task2               0x4               C:\Users\suse1\AppData\Local\Temp\ccr4KEXz.o
current_task        0x4               C:\Users\suse1\AppData\Local\Temp\ccr4KEXz.o

Memory Configuration

Name             Origin             Length             Attributes
*default*        0x00000000         0xffffffff

Linker script and memory map

LOAD C:\Users\suse1\AppData\Local\Temp\ccvbhoGi.o
LOAD C:\Users\suse1\AppData\Local\Temp\ccFLy78J.o
LOAD C:\Users\suse1\AppData\Local\Temp\ccW0PAOd.o
LOAD C:\Users\suse1\AppData\Local\Temp\ccnHeyuN.o
LOAD C:\Users\suse1\AppData\Local\Temp\ccIkHPTz.o
LOAD C:\Users\suse1\AppData\Local\Temp\cc3lmJYx.o
LOAD C:\Users\suse1\AppData\Local\Temp\ccr4KEXz.o
LOAD C:\Users\suse1\AppData\Local\Temp\ccPuehHM.o
LOAD C:\Users\suse1\AppData\Local\Temp\ccHC4Lyc.o
                0x00000000                . = 0x0
                0x00000000                _stext = .

.text           0x00000000     0x20d8
 *(.text._start)
 .text._start   0x00000000       0x10 C:\Users\suse1\AppData\Local\Temp\ccvbhoGi.o
                0x00000000                _start
 *(.isr_vectors)
 .isr_vectors   0x00000010       0x40 C:\Users\suse1\AppData\Local\Temp\ccvbhoGi.o
 *(.text)
 .text          0x00000050        0x0 C:\Users\suse1\AppData\Local\Temp\ccvbhoGi.o
 .text          0x00000050       0xf4 C:\Users\suse1\AppData\Local\Temp\ccFLy78J.o
                0x00000050                main
                0x0000006c                nmi_handler
                0x00000084                hard_fault_handler
                0x0000009c                mem_manage_handler
                0x000000b4                bus_fault_handler
                0x000000cc                usage_fault_handler
                0x000000e4                svc_handler
                0x000000fc                debug_mon_handler
                0x00000114                pend_sv_handler
                0x0000012c                sys_tick_handler
 .text          0x00000144       0xe8 C:\Users\suse1\AppData\Local\Temp\ccW0PAOd.o
                0x000001d4                hal_mpu_test
 .text          0x0000022c        0x0 C:\Users\suse1\AppData\Local\Temp\ccnHeyuN.o
 .text          0x0000022c      0x378 C:\Users\suse1\AppData\Local\Temp\ccIkHPTz.o
                0x0000022c                _putchar
                0x0000024c                _getchar
                0x00000264                __io_putchar
                0x00000280                __io_getchar
                0x0000028e                lite_getchar
                0x000002b2                lite_putchar
                0x000002cc                _putstr
                0x000002f4                _strlen
                0x00000350                lite_printf
 .text          0x000005a4      0xd74 C:\Users\suse1\AppData\Local\Temp\cc3lmJYx.o
                0x000011d6                printf_
                0x0000120c                sprintf_
                0x00001244                snprintf_
                0x0000127c                vprintf_
                0x000012a8                vsnprintf_
                0x000012d4                fctprintf
 .text          0x00001318      0x244 C:\Users\suse1\AppData\Local\Temp\ccr4KEXz.o
                0x0000136c                task_entry_1
                0x0000138c                task_entry_2
                0x000013ac                trigget_pendsv
                0x000013c8                task_create
                0x000014a8                task_sched
                0x000014dc                run_first_task
                0x00001510                task_start
 .text          0x0000155c      0x404 C:\Users\suse1\AppData\Local\Temp\ccPuehHM.o
                0x0000155c                shell_get_line
                0x00001600                shell_get_args
                0x00001664                shell_help_func
                0x000016a8                strtok_r
                0x0000175c                strtok
                0x00001780                memcpy
                0x000017cc                memset
                0x0000180a                strcmp
                0x00001864                shell_main
                0x00001954                shell_start
 .text          0x00001960      0x778 C:\Users\suse1\AppData\Local\Temp\ccHC4Lyc.o
                0x00001960                test_div
                0x000019a0                fault_test_by_unalign
                0x00001a08                fault_test_by_div0
                0x00001a48                dump_stack
                0x00001b0a                backtrace_call_stack
                0x00001bec                print_call_stack
                0x00001ccc                backtrace_level_3
                0x00001d18                backtrace_level_2
                0x00001d34                backtrace_level_1
                0x00001d50                backtrace_test
                0x00001ec4                LoopUntilEntry
                0x00001f08                CalculateBLTargetAddress
                0x00001f8c                CalculateTargetAddress
                0x0000201c                BackTraceSub
                0x000020d8                __shell_command_start = .

.glue_7         0x000020d8        0x0
 .glue_7        0x000020d8        0x0 linker stubs

.glue_7t        0x000020d8        0x0
 .glue_7t       0x000020d8        0x0 linker stubs

.vfp11_veneer   0x000020d8        0x0
 .vfp11_veneer  0x000020d8        0x0 linker stubs

.v4_bx          0x000020d8        0x0
 .v4_bx         0x000020d8        0x0 linker stubs

.text.default_handler
                0x000020d8        0x2
 .text.default_handler
                0x000020d8        0x2 C:\Users\suse1\AppData\Local\Temp\ccvbhoGi.o

.rodata         0x000020dc      0xcef
 .rodata        0x000020dc       0xc1 C:\Users\suse1\AppData\Local\Temp\ccFLy78J.o
 *fill*         0x0000219d        0x3 
 .rodata        0x000021a0       0x20 C:\Users\suse1\AppData\Local\Temp\ccW0PAOd.o
 .rodata        0x000021c0        0x4 C:\Users\suse1\AppData\Local\Temp\ccIkHPTz.o
 .rodata        0x000021c4       0x29 C:\Users\suse1\AppData\Local\Temp\ccr4KEXz.o
 *fill*         0x000021ed        0x3 
 .rodata        0x000021f0       0x5e C:\Users\suse1\AppData\Local\Temp\ccPuehHM.o
 *fill*         0x0000224e        0x2 
 .rodata        0x00002250      0xb7b C:\Users\suse1\AppData\Local\Temp\ccHC4Lyc.o

.iplt           0x00002dcc        0x0
 .iplt          0x00002dcc        0x0 C:\Users\suse1\AppData\Local\Temp\ccvbhoGi.o

.rel.dyn        0x00002dcc        0x0
 .rel.iplt      0x00002dcc        0x0 C:\Users\suse1\AppData\Local\Temp\ccvbhoGi.o

.shell_command  0x00002dcc        0xc
 *(.shell_command)
 .shell_command
                0x00002dcc        0xc C:\Users\suse1\AppData\Local\Temp\ccPuehHM.o
                0x00002dcc                __shell_command_help
                0x00002dd8                __shell_command_end = .
                0x00002dd8                . = ALIGN (0x4)
                0x00002dd8                _etext = .
                0x00002dd8                _exit = .
                0x20000000                . = 0x20000000

.data           0x20000000        0x0
 *(.data)
 .data          0x20000000        0x0 C:\Users\suse1\AppData\Local\Temp\ccvbhoGi.o
 .data          0x20000000        0x0 C:\Users\suse1\AppData\Local\Temp\ccFLy78J.o
 .data          0x20000000        0x0 C:\Users\suse1\AppData\Local\Temp\ccW0PAOd.o
 .data          0x20000000        0x0 C:\Users\suse1\AppData\Local\Temp\ccnHeyuN.o
 .data          0x20000000        0x0 C:\Users\suse1\AppData\Local\Temp\ccIkHPTz.o
 .data          0x20000000        0x0 C:\Users\suse1\AppData\Local\Temp\cc3lmJYx.o
 .data          0x20000000        0x0 C:\Users\suse1\AppData\Local\Temp\ccr4KEXz.o
 .data          0x20000000        0x0 C:\Users\suse1\AppData\Local\Temp\ccPuehHM.o
 .data          0x20000000        0x0 C:\Users\suse1\AppData\Local\Temp\ccHC4Lyc.o
                0x20000000                __bss_start__ = .

.igot.plt       0x20000000        0x0
 .igot.plt      0x20000000        0x0 C:\Users\suse1\AppData\Local\Temp\ccvbhoGi.o

.bss            0x20000000      0x8d8
 *(.bss)
 .bss           0x20000000        0x0 C:\Users\suse1\AppData\Local\Temp\ccvbhoGi.o
 .bss           0x20000000        0x0 C:\Users\suse1\AppData\Local\Temp\ccFLy78J.o
 .bss           0x20000000        0x0 C:\Users\suse1\AppData\Local\Temp\ccW0PAOd.o
 .bss           0x20000000        0x0 C:\Users\suse1\AppData\Local\Temp\ccnHeyuN.o
 .bss           0x20000000        0x0 C:\Users\suse1\AppData\Local\Temp\ccIkHPTz.o
 .bss           0x20000000        0x0 C:\Users\suse1\AppData\Local\Temp\cc3lmJYx.o
 .bss           0x20000000        0x0 C:\Users\suse1\AppData\Local\Temp\ccr4KEXz.o
 .bss           0x20000000        0x8 C:\Users\suse1\AppData\Local\Temp\ccPuehHM.o
 .bss           0x20000008       0xc0 C:\Users\suse1\AppData\Local\Temp\ccHC4Lyc.o
                0x20000008                code_start_addr
                0x2000000c                code_end_addr
                0x20000010                code_size
                0x20000014                stack_start_addr
                0x20000018                stack_end_addr
                0x2000001c                stack_size
                0x20000020                heap_start_addr
                0x20000024                heap_end_addr
                0x20000028                heap_size
 COMMON         0x200000c8      0x810 C:\Users\suse1\AppData\Local\Temp\ccr4KEXz.o
                0x200000c8                next_task
                0x200000cc                stack
                0x200008cc                task1
                0x200008d0                task2
                0x200008d4                current_task
                0x200008d8                . = ALIGN (0x8)
                0x200008d8                __bss_end__ = .
                0x200008d8                _sstack = .
                0x200018d8                . = (. + 0x1000)
                0x200018d8                _estack = .
                0x200018d8                . = ALIGN (0x8)
                0x200018d8                _sheap = .
                0x200058d8                . = (. + 0x4000)
                0x200058d8                _eheap = .
                0x200058d8                ensd = _eheap
OUTPUT(../../../../build/lm3s811/test.elf elf32-littlearm)

.ARM.attributes
                0x00000000       0x2f
 .ARM.attributes
                0x00000000       0x21 C:\Users\suse1\AppData\Local\Temp\ccvbhoGi.o
 .ARM.attributes
                0x00000021       0x33 C:\Users\suse1\AppData\Local\Temp\ccFLy78J.o
 .ARM.attributes
                0x00000054       0x33 C:\Users\suse1\AppData\Local\Temp\ccW0PAOd.o
 .ARM.attributes
                0x00000087       0x33 C:\Users\suse1\AppData\Local\Temp\ccnHeyuN.o
 .ARM.attributes
                0x000000ba       0x33 C:\Users\suse1\AppData\Local\Temp\ccIkHPTz.o
 .ARM.attributes
                0x000000ed       0x33 C:\Users\suse1\AppData\Local\Temp\cc3lmJYx.o
 .ARM.attributes
                0x00000120       0x33 C:\Users\suse1\AppData\Local\Temp\ccr4KEXz.o
 .ARM.attributes
                0x00000153       0x33 C:\Users\suse1\AppData\Local\Temp\ccPuehHM.o
 .ARM.attributes
                0x00000186       0x33 C:\Users\suse1\AppData\Local\Temp\ccHC4Lyc.o

.comment        0x00000000       0x7e
 .comment       0x00000000       0x7e C:\Users\suse1\AppData\Local\Temp\ccFLy78J.o
                                 0x7f (size before relaxing)
 .comment       0x0000007e       0x7f C:\Users\suse1\AppData\Local\Temp\ccW0PAOd.o
 .comment       0x0000007e       0x7f C:\Users\suse1\AppData\Local\Temp\ccnHeyuN.o
 .comment       0x0000007e       0x7f C:\Users\suse1\AppData\Local\Temp\ccIkHPTz.o
 .comment       0x0000007e       0x7f C:\Users\suse1\AppData\Local\Temp\cc3lmJYx.o
 .comment       0x0000007e       0x7f C:\Users\suse1\AppData\Local\Temp\ccr4KEXz.o
 .comment       0x0000007e       0x7f C:\Users\suse1\AppData\Local\Temp\ccPuehHM.o
 .comment       0x0000007e       0x7f C:\Users\suse1\AppData\Local\Temp\ccHC4Lyc.o

.debug_line     0x00000000     0x12bc
 .debug_line    0x00000000       0x49 C:\Users\suse1\AppData\Local\Temp\ccvbhoGi.o
 .debug_line    0x00000049      0x1d4 C:\Users\suse1\AppData\Local\Temp\ccFLy78J.o
 .debug_line    0x0000021d      0x1f1 C:\Users\suse1\AppData\Local\Temp\ccW0PAOd.o
 .debug_line    0x0000040e       0x1d C:\Users\suse1\AppData\Local\Temp\ccnHeyuN.o
 .debug_line    0x0000042b      0x17b C:\Users\suse1\AppData\Local\Temp\ccIkHPTz.o
 .debug_line    0x000005a6      0x377 C:\Users\suse1\AppData\Local\Temp\cc3lmJYx.o
 .debug_line    0x0000091d      0x288 C:\Users\suse1\AppData\Local\Temp\ccr4KEXz.o
 .debug_line    0x00000ba5      0x355 C:\Users\suse1\AppData\Local\Temp\ccPuehHM.o
 .debug_line    0x00000efa      0x3c2 C:\Users\suse1\AppData\Local\Temp\ccHC4Lyc.o

.debug_info     0x00000000     0x513a
 .debug_info    0x00000000       0x22 C:\Users\suse1\AppData\Local\Temp\ccvbhoGi.o
 .debug_info    0x00000022      0xad7 C:\Users\suse1\AppData\Local\Temp\ccFLy78J.o
 .debug_info    0x00000af9      0xc59 C:\Users\suse1\AppData\Local\Temp\ccW0PAOd.o
 .debug_info    0x00001752       0x3a C:\Users\suse1\AppData\Local\Temp\ccnHeyuN.o
 .debug_info    0x0000178c      0x2bc C:\Users\suse1\AppData\Local\Temp\ccIkHPTz.o
 .debug_info    0x00001a48      0x95f C:\Users\suse1\AppData\Local\Temp\cc3lmJYx.o
 .debug_info    0x000023a7      0xe34 C:\Users\suse1\AppData\Local\Temp\ccr4KEXz.o
 .debug_info    0x000031db      0xcda C:\Users\suse1\AppData\Local\Temp\ccPuehHM.o
 .debug_info    0x00003eb5     0x1285 C:\Users\suse1\AppData\Local\Temp\ccHC4Lyc.o

.debug_abbrev   0x00000000     0x1040
 .debug_abbrev  0x00000000       0x12 C:\Users\suse1\AppData\Local\Temp\ccvbhoGi.o
 .debug_abbrev  0x00000012      0x1bd C:\Users\suse1\AppData\Local\Temp\ccFLy78J.o
 .debug_abbrev  0x000001cf      0x21a C:\Users\suse1\AppData\Local\Temp\ccW0PAOd.o
 .debug_abbrev  0x000003e9       0x26 C:\Users\suse1\AppData\Local\Temp\ccnHeyuN.o
 .debug_abbrev  0x0000040f      0x16a C:\Users\suse1\AppData\Local\Temp\ccIkHPTz.o
 .debug_abbrev  0x00000579      0x1e9 C:\Users\suse1\AppData\Local\Temp\cc3lmJYx.o
 .debug_abbrev  0x00000762      0x2c1 C:\Users\suse1\AppData\Local\Temp\ccr4KEXz.o
 .debug_abbrev  0x00000a23      0x28f C:\Users\suse1\AppData\Local\Temp\ccPuehHM.o
 .debug_abbrev  0x00000cb2      0x38e C:\Users\suse1\AppData\Local\Temp\ccHC4Lyc.o

.debug_aranges  0x00000000      0x120
 .debug_aranges
                0x00000000       0x28 C:\Users\suse1\AppData\Local\Temp\ccvbhoGi.o
 .debug_aranges
                0x00000028       0x20 C:\Users\suse1\AppData\Local\Temp\ccFLy78J.o
 .debug_aranges
                0x00000048       0x20 C:\Users\suse1\AppData\Local\Temp\ccW0PAOd.o
 .debug_aranges
                0x00000068       0x18 C:\Users\suse1\AppData\Local\Temp\ccnHeyuN.o
 .debug_aranges
                0x00000080       0x20 C:\Users\suse1\AppData\Local\Temp\ccIkHPTz.o
 .debug_aranges
                0x000000a0       0x20 C:\Users\suse1\AppData\Local\Temp\cc3lmJYx.o
 .debug_aranges
                0x000000c0       0x20 C:\Users\suse1\AppData\Local\Temp\ccr4KEXz.o
 .debug_aranges
                0x000000e0       0x20 C:\Users\suse1\AppData\Local\Temp\ccPuehHM.o
 .debug_aranges
                0x00000100       0x20 C:\Users\suse1\AppData\Local\Temp\ccHC4Lyc.o

.debug_str      0x00000000     0x12da
 .debug_str     0x00000000       0x6d C:\Users\suse1\AppData\Local\Temp\ccvbhoGi.o
 .debug_str     0x0000006d      0x5b0 C:\Users\suse1\AppData\Local\Temp\ccFLy78J.o
                                0x67b (size before relaxing)
 .debug_str     0x0000061d      0x157 C:\Users\suse1\AppData\Local\Temp\ccW0PAOd.o
                                0x706 (size before relaxing)
 .debug_str     0x00000774       0x2f C:\Users\suse1\AppData\Local\Temp\ccnHeyuN.o
                                0x169 (size before relaxing)
 .debug_str     0x000007a3       0xc0 C:\Users\suse1\AppData\Local\Temp\ccIkHPTz.o
                                0x291 (size before relaxing)
 .debug_str     0x00000863      0x13c C:\Users\suse1\AppData\Local\Temp\cc3lmJYx.o
                                0x351 (size before relaxing)
 .debug_str     0x0000099f      0x205 C:\Users\suse1\AppData\Local\Temp\ccr4KEXz.o
                                0x826 (size before relaxing)
 .debug_str     0x00000ba4      0x172 C:\Users\suse1\AppData\Local\Temp\ccPuehHM.o
                                0x78b (size before relaxing)
 .debug_str     0x00000d16      0x5c4 C:\Users\suse1\AppData\Local\Temp\ccHC4Lyc.o
                                0xc34 (size before relaxing)

.debug_ranges   0x00000000       0x38
 .debug_ranges  0x00000000       0x20 C:\Users\suse1\AppData\Local\Temp\ccvbhoGi.o
 .debug_ranges  0x00000020       0x18 C:\Users\suse1\AppData\Local\Temp\ccPuehHM.o

.debug_frame    0x00000000      0xb18
 .debug_frame   0x00000000      0x128 C:\Users\suse1\AppData\Local\Temp\ccFLy78J.o
 .debug_frame   0x00000128       0xa8 C:\Users\suse1\AppData\Local\Temp\ccW0PAOd.o
 .debug_frame   0x000001d0      0x194 C:\Users\suse1\AppData\Local\Temp\ccIkHPTz.o
 .debug_frame   0x00000364      0x2e8 C:\Users\suse1\AppData\Local\Temp\cc3lmJYx.o
 .debug_frame   0x0000064c      0x11c C:\Users\suse1\AppData\Local\Temp\ccr4KEXz.o
 .debug_frame   0x00000768      0x184 C:\Users\suse1\AppData\Local\Temp\ccPuehHM.o
 .debug_frame   0x000008ec      0x22c C:\Users\suse1\AppData\Local\Temp\ccHC4Lyc.o
